---
triple:          'arm64-apple-darwin'
binary-path:     '/Users/atheeshkrishnan/AK/DEV/OOP1/rutgersmqf-portfolio-optimization/build/final'
relocations:
  - { offsetInCU: 0x44, offset: 0x44, size: 0x8, addend: 0x0, symName: __ZN5EigenL4lastE, symObjAddr: 0x477B6, symBinAddr: 0x100048020, symSize: 0x0 }
  - { offsetInCU: 0x98C, offset: 0x98C, size: 0x8, addend: 0x0, symName: __ZN5Eigen8internal31conditional_aligned_delete_autoIdLb1EEEvPT_m, symObjAddr: 0x15E8, symBinAddr: 0x100005514, symSize: 0x28 }
  - { offsetInCU: 0x9D8, offset: 0x9D8, size: 0x8, addend: 0x0, symName: __ZN5Eigen8internal24conditional_aligned_freeILb1EEEvPv, symObjAddr: 0x1610, symBinAddr: 0x10000553C, symSize: 0x24 }
  - { offsetInCU: 0xA0C, offset: 0xA0C, size: 0x8, addend: 0x0, symName: __ZN5Eigen8internal12aligned_freeEPv, symObjAddr: 0x1634, symBinAddr: 0x100005560, symSize: 0x24 }
  - { offsetInCU: 0xA3B, offset: 0xA3B, size: 0x8, addend: 0x0, symName: __ZN5Eigen8internal12print_matrixINS_6MatrixIdLin1ELi1ELi0ELin1ELi1EEEEERNSt3__113basic_ostreamIcNS4_11char_traitsIcEEEES9_RKT_RKNS_8IOFormatE, symObjAddr: 0x234C, symBinAddr: 0x100006278, symSize: 0x580 }
  - { offsetInCU: 0xBC4, offset: 0xBC4, size: 0x8, addend: 0x0, symName: __ZN5Eigen8internal12print_matrixINS_6MatrixIdLin1ELin1ELi0ELin1ELin1EEEEERNSt3__113basic_ostreamIcNS4_11char_traitsIcEEEES9_RKT_RKNS_8IOFormatE, symObjAddr: 0x381C, symBinAddr: 0x100007748, symSize: 0x580 }
  - { offsetInCU: 0xDAF, offset: 0xDAF, size: 0x8, addend: 0x0, symName: __ZN5EigenL6lastp1E, symObjAddr: 0x477B7, symBinAddr: 0x100048021, symSize: 0x0 }
  - { offsetInCU: 0xDC8, offset: 0xDC8, size: 0x8, addend: 0x0, symName: __ZN5EigenL3allE, symObjAddr: 0x477BA, symBinAddr: 0x100048024, symSize: 0x0 }
  - { offsetInCU: 0xDE1, offset: 0xDE1, size: 0x8, addend: 0x0, symName: __ZN5EigenL3fixILi1EEE, symObjAddr: 0x477B9, symBinAddr: 0x100048023, symSize: 0x0 }
  - { offsetInCU: 0x5AEC, offset: 0x5AEC, size: 0x8, addend: 0x0, symName: __ZN5EigenlsINS_6MatrixIdLin1ELi1ELi0ELin1ELi1EEEEERNSt3__113basic_ostreamIcNS3_11char_traitsIcEEEES8_RKNS_9DenseBaseIT_EE, symObjAddr: 0x6BC, symBinAddr: 0x1000045E8, symSize: 0x208 }
  - { offsetInCU: 0x5B2F, offset: 0x5B2F, size: 0x8, addend: 0x0, symName: __ZN5EigenlsINS_6MatrixIdLin1ELin1ELi0ELin1ELin1EEEEERNSt3__113basic_ostreamIcNS3_11char_traitsIcEEEES8_RKNS_9DenseBaseIT_EE, symObjAddr: 0x8C4, symBinAddr: 0x1000047F0, symSize: 0x208 }
  - { offsetInCU: 0xA340, offset: 0xA340, size: 0x8, addend: 0x0, symName: __ZNSt3__124__put_character_sequenceB7v160006IcNS_11char_traitsIcEEEERNS_13basic_ostreamIT_T0_EES7_PKS4_m, symObjAddr: 0x19B4, symBinAddr: 0x1000058E0, symSize: 0x1EC }
  - { offsetInCU: 0xCEF5, offset: 0xCEF5, size: 0x8, addend: 0x0, symName: __ZNSt3__1lsB7v160006INS_11char_traitsIcEEEERNS_13basic_ostreamIcT_EES6_PKc, symObjAddr: 0x674, symBinAddr: 0x1000045A0, symSize: 0x48 }
  - { offsetInCU: 0xCF3B, offset: 0xCF3B, size: 0x8, addend: 0x0, symName: __ZNSt3__14endlB7v160006IcNS_11char_traitsIcEEEERNS_13basic_ostreamIT_T0_EES7_, symObjAddr: 0xB50, symBinAddr: 0x100004A7C, symSize: 0x58 }
  - { offsetInCU: 0xCF7B, offset: 0xCF7B, size: 0x8, addend: 0x0, symName: __ZNSt3__1neB7v160006IPdEEbRKNS_11__wrap_iterIT_EES6_, symObjAddr: 0xC08, symBinAddr: 0x100004B34, symSize: 0x34 }
  - { offsetInCU: 0xCFBE, offset: 0xCFBE, size: 0x8, addend: 0x0, symName: __ZNSt3__1eqB7v160006IPdEEbRKNS_11__wrap_iterIT_EES6_, symObjAddr: 0xE88, symBinAddr: 0x100004DB4, symSize: 0x48 }
  - { offsetInCU: 0xD001, offset: 0xD001, size: 0x8, addend: 0x0, symName: __ZNSt3__118__debug_db_erase_cB7v160006INS_6vectorIdNS_9allocatorIdEEEEEEvPT_, symObjAddr: 0x113C, symBinAddr: 0x100005068, symSize: 0x10 }
  - { offsetInCU: 0xD032, offset: 0xD032, size: 0x8, addend: 0x0, symName: __ZNSt3__112__to_addressB7v160006IdEEPT_S2_, symObjAddr: 0x1280, symBinAddr: 0x1000051AC, symSize: 0x14 }
  - { offsetInCU: 0xD067, offset: 0xD067, size: 0x8, addend: 0x0, symName: __ZNSt3__119__libcpp_deallocateB7v160006EPvmm, symObjAddr: 0x13A0, symBinAddr: 0x1000052CC, symSize: 0x30 }
  - { offsetInCU: 0xD0AF, offset: 0xD0AF, size: 0x8, addend: 0x0, symName: __ZNSt3__127__do_deallocate_handle_sizeB7v160006IJEEEvPvmDpT_, symObjAddr: 0x13D0, symBinAddr: 0x1000052FC, symSize: 0x28 }
  - { offsetInCU: 0xD0ED, offset: 0xD0ED, size: 0x8, addend: 0x0, symName: __ZNSt3__124__libcpp_operator_deleteB7v160006IJPvEEEvDpT_, symObjAddr: 0x13F8, symBinAddr: 0x100005324, symSize: 0x24 }
  - { offsetInCU: 0xD122, offset: 0xD122, size: 0x8, addend: 0x0, symName: __ZNSt3__119__debug_db_insert_cB7v160006INS_12basic_stringIcNS_11char_traitsIcEENS_9allocatorIcEEEEEEvPT_, symObjAddr: 0x17F0, symBinAddr: 0x10000571C, symSize: 0x10 }
  - { offsetInCU: 0xD153, offset: 0xD153, size: 0x8, addend: 0x0, symName: __ZNSt3__118__constexpr_strlenB7v160006EPKc, symObjAddr: 0x18BC, symBinAddr: 0x1000057E8, symSize: 0x24 }
  - { offsetInCU: 0xD17F, offset: 0xD17F, size: 0x8, addend: 0x0, symName: __ZNSt3__116__pad_and_outputB7v160006IcNS_11char_traitsIcEEEENS_19ostreambuf_iteratorIT_T0_EES6_PKS4_S8_S8_RNS_8ios_baseES4_, symObjAddr: 0x1BBC, symBinAddr: 0x100005AE8, symSize: 0x240 }
  - { offsetInCU: 0xD24E, offset: 0xD24E, size: 0x8, addend: 0x0, symName: __ZNSt3__112__to_addressB7v160006IKcEEPT_S3_, symObjAddr: 0x2034, symBinAddr: 0x100005F60, symSize: 0x14 }
  - { offsetInCU: 0xD2B6, offset: 0xD2B6, size: 0x8, addend: 0x0, symName: __ZNSt3__19use_facetB7v160006INS_5ctypeIcEEEERKT_RKNS_6localeE, symObjAddr: 0x22B4, symBinAddr: 0x1000061E0, symSize: 0x2C }
  - { offsetInCU: 0xD785, offset: 0xD785, size: 0x8, addend: 0x0, symName: __ZNSt3__1lsB7v160006IcNS_11char_traitsIcEENS_9allocatorIcEEEERNS_13basic_ostreamIT_T0_EES9_RKNS_12basic_stringIS6_S7_T1_EE, symObjAddr: 0x29E8, symBinAddr: 0x100006914, symSize: 0x4C }
  - { offsetInCU: 0xE0DF, offset: 0xE0DF, size: 0x8, addend: 0x0, symName: __ZNSt3__13maxB7v160006IlEERKT_S3_S3_, symObjAddr: 0x2C38, symBinAddr: 0x100006B64, symSize: 0x2C }
  - { offsetInCU: 0xE12D, offset: 0xE12D, size: 0x8, addend: 0x0, symName: __ZNSt3__13maxB7v160006IlNS_6__lessIllEEEERKT_S5_S5_T0_, symObjAddr: 0x325C, symBinAddr: 0x100007188, symSize: 0x54 }
  - { offsetInCU: 0xE1F5, offset: 0xE1F5, size: 0x8, addend: 0x0, symName: __ZNSt3__118__debug_db_erase_cB7v160006INS_6vectorI15PortfolioResultNS_9allocatorIS2_EEEEEEvPT_, symObjAddr: 0x417C, symBinAddr: 0x1000080A8, symSize: 0x10 }
  - { offsetInCU: 0xE226, offset: 0xE226, size: 0x8, addend: 0x0, symName: __ZNSt3__112__to_addressB7v160006I15PortfolioResultEEPT_S3_, symObjAddr: 0x42C0, symBinAddr: 0x1000081EC, symSize: 0x14 }
  - { offsetInCU: 0x111D2, offset: 0x111D2, size: 0x8, addend: 0x0, symName: __ZN5Eigen8symbolic10SymbolExprINS_8internal17symbolic_last_tagEEC1Ev, symObjAddr: 0x0, symBinAddr: 0x100003F2C, symSize: 0x2C }
  - { offsetInCU: 0x111FC, offset: 0x111FC, size: 0x8, addend: 0x0, symName: __ZNK5Eigen8symbolic8BaseExprINS0_10SymbolExprINS_8internal17symbolic_last_tagEEEEplILi1EEENS0_7AddExprIS5_NS0_9ValueExprINS3_8FixedIntIXT_EEEEEEESB_, symObjAddr: 0x2C, symBinAddr: 0x100003F58, symSize: 0x48 }
  - { offsetInCU: 0x11237, offset: 0x11237, size: 0x8, addend: 0x0, symName: __ZNK5Eigen8internal8FixedIntILi1EEclEv, symObjAddr: 0x74, symBinAddr: 0x100003FA0, symSize: 0x10 }
  - { offsetInCU: 0x1125D, offset: 0x1125D, size: 0x8, addend: 0x0, symName: __ZN5Eigen8internal5all_tC1Ev, symObjAddr: 0x84, symBinAddr: 0x100003FB0, symSize: 0x2C }
  - { offsetInCU: 0x11287, offset: 0x11287, size: 0x8, addend: 0x0, symName: _main, symObjAddr: 0xB0, symBinAddr: 0x100003FDC, symSize: 0x590 }
  - { offsetInCU: 0x1142F, offset: 0x1142F, size: 0x8, addend: 0x0, symName: __ZNSt3__112basic_stringIcNS_11char_traitsIcEENS_9allocatorIcEEEC1B7v160006IDnEEPKc, symObjAddr: 0x640, symBinAddr: 0x10000456C, symSize: 0x34 }
  - { offsetInCU: 0x11532, offset: 0x11532, size: 0x8, addend: 0x0, symName: __ZN18MaxSharpePortfolioC1Ev, symObjAddr: 0xACC, symBinAddr: 0x1000049F8, symSize: 0x2C }
  - { offsetInCU: 0x115BA, offset: 0x115BA, size: 0x8, addend: 0x0, symName: __ZN22MinVolatilityPortfolioC1Ev, symObjAddr: 0xAF8, symBinAddr: 0x100004A24, symSize: 0x2C }
  - { offsetInCU: 0x115E6, offset: 0x115E6, size: 0x8, addend: 0x0, symName: __ZNSt3__113basic_ostreamIcNS_11char_traitsIcEEElsB7v160006EPFRS3_S4_E, symObjAddr: 0xB24, symBinAddr: 0x100004A50, symSize: 0x2C }
  - { offsetInCU: 0x1161A, offset: 0x1161A, size: 0x8, addend: 0x0, symName: __ZNSt3__16vectorIdNS_9allocatorIdEEE5beginB7v160006Ev, symObjAddr: 0xBA8, symBinAddr: 0x100004AD4, symSize: 0x30 }
  - { offsetInCU: 0x11642, offset: 0x11642, size: 0x8, addend: 0x0, symName: __ZNSt3__16vectorIdNS_9allocatorIdEEE3endB7v160006Ev, symObjAddr: 0xBD8, symBinAddr: 0x100004B04, symSize: 0x30 }
  - { offsetInCU: 0x1166A, offset: 0x1166A, size: 0x8, addend: 0x0, symName: __ZNKSt3__111__wrap_iterIPdEdeB7v160006Ev, symObjAddr: 0xC3C, symBinAddr: 0x100004B68, symSize: 0x18 }
  - { offsetInCU: 0x11690, offset: 0x11690, size: 0x8, addend: 0x0, symName: __ZNSt3__111__wrap_iterIPdEppB7v160006Ev, symObjAddr: 0xC54, symBinAddr: 0x100004B80, symSize: 0x20 }
  - { offsetInCU: 0x116BB, offset: 0x116BB, size: 0x8, addend: 0x0, symName: __ZN15PortfolioResultD1Ev, symObjAddr: 0xC74, symBinAddr: 0x100004BA0, symSize: 0x2C }
  - { offsetInCU: 0x116E7, offset: 0x116E7, size: 0x8, addend: 0x0, symName: __ZN22MinVolatilityPortfolioD1Ev, symObjAddr: 0xCA0, symBinAddr: 0x100004BCC, symSize: 0x2C }
  - { offsetInCU: 0x11713, offset: 0x11713, size: 0x8, addend: 0x0, symName: __ZN18MaxSharpePortfolioD1Ev, symObjAddr: 0xCCC, symBinAddr: 0x100004BF8, symSize: 0x2C }
  - { offsetInCU: 0x1173F, offset: 0x1173F, size: 0x8, addend: 0x0, symName: __ZNSt3__16vectorI15PortfolioResultNS_9allocatorIS1_EEED1B7v160006Ev, symObjAddr: 0xCF8, symBinAddr: 0x100004C24, symSize: 0x2C }
  - { offsetInCU: 0x11769, offset: 0x11769, size: 0x8, addend: 0x0, symName: __ZN5Eigen6MatrixIdLin1ELin1ELi0ELin1ELin1EED1Ev, symObjAddr: 0xD24, symBinAddr: 0x100004C50, symSize: 0x2C }
  - { offsetInCU: 0x11795, offset: 0x11795, size: 0x8, addend: 0x0, symName: __ZN5Eigen6MatrixIdLin1ELi1ELi0ELin1ELi1EED1Ev, symObjAddr: 0xD50, symBinAddr: 0x100004C7C, symSize: 0x2C }
  - { offsetInCU: 0x117C1, offset: 0x117C1, size: 0x8, addend: 0x0, symName: __ZN5Eigen8internal8FixedIntILi1EEC1Ev, symObjAddr: 0xD7C, symBinAddr: 0x100004CA8, symSize: 0x2C }
  - { offsetInCU: 0x117EB, offset: 0x117EB, size: 0x8, addend: 0x0, symName: __ZN5Eigen8internal5all_tC2Ev, symObjAddr: 0xDA8, symBinAddr: 0x100004CD4, symSize: 0x14 }
  - { offsetInCU: 0x11815, offset: 0x11815, size: 0x8, addend: 0x0, symName: __ZN18MaxSharpePortfolioC2Ev, symObjAddr: 0xDBC, symBinAddr: 0x100004CE8, symSize: 0x44 }
  - { offsetInCU: 0x1183F, offset: 0x1183F, size: 0x8, addend: 0x0, symName: __ZN17PortfolioStrategyC2Ev, symObjAddr: 0xE00, symBinAddr: 0x100004D2C, symSize: 0x24 }
  - { offsetInCU: 0x11869, offset: 0x11869, size: 0x8, addend: 0x0, symName: __ZN17PortfolioStrategyD1Ev, symObjAddr: 0xE24, symBinAddr: 0x100004D50, symSize: 0x14 }
  - { offsetInCU: 0x11893, offset: 0x11893, size: 0x8, addend: 0x0, symName: __ZN17PortfolioStrategyD0Ev, symObjAddr: 0xE38, symBinAddr: 0x100004D64, symSize: 0xC }
  - { offsetInCU: 0x118BD, offset: 0x118BD, size: 0x8, addend: 0x0, symName: __ZN22MinVolatilityPortfolioC2Ev, symObjAddr: 0xE44, symBinAddr: 0x100004D70, symSize: 0x44 }
  - { offsetInCU: 0x118E9, offset: 0x118E9, size: 0x8, addend: 0x0, symName: __ZNKSt3__111__wrap_iterIPdE4baseB7v160006Ev, symObjAddr: 0xED0, symBinAddr: 0x100004DFC, symSize: 0x18 }
  - { offsetInCU: 0x1190F, offset: 0x1190F, size: 0x8, addend: 0x0, symName: __ZN15PortfolioResultD2Ev, symObjAddr: 0xEE8, symBinAddr: 0x100004E14, symSize: 0x30 }
  - { offsetInCU: 0x1193B, offset: 0x1193B, size: 0x8, addend: 0x0, symName: __ZNSt3__16vectorIdNS_9allocatorIdEEED1B7v160006Ev, symObjAddr: 0xF18, symBinAddr: 0x100004E44, symSize: 0x2C }
  - { offsetInCU: 0x11965, offset: 0x11965, size: 0x8, addend: 0x0, symName: __ZNSt3__16vectorIdNS_9allocatorIdEEED2B7v160006Ev, symObjAddr: 0xF44, symBinAddr: 0x100004E70, symSize: 0x44 }
  - { offsetInCU: 0x1198F, offset: 0x1198F, size: 0x8, addend: 0x0, symName: __ZNSt3__16vectorIdNS_9allocatorIdEEE16__destroy_vectorC1ERS3_, symObjAddr: 0xF88, symBinAddr: 0x100004EB4, symSize: 0x34 }
  - { offsetInCU: 0x119C8, offset: 0x119C8, size: 0x8, addend: 0x0, symName: __ZNSt3__16vectorIdNS_9allocatorIdEEE16__destroy_vectorclB7v160006Ev, symObjAddr: 0xFC8, symBinAddr: 0x100004EF4, symSize: 0x9C }
  - { offsetInCU: 0x119EE, offset: 0x119EE, size: 0x8, addend: 0x0, symName: __ZNSt3__16vectorIdNS_9allocatorIdEEE16__destroy_vectorC2ERS3_, symObjAddr: 0x1064, symBinAddr: 0x100004F90, symSize: 0x20 }
  - { offsetInCU: 0x11A27, offset: 0x11A27, size: 0x8, addend: 0x0, symName: __ZNKSt3__16vectorIdNS_9allocatorIdEEE17__annotate_deleteB7v160006Ev, symObjAddr: 0x1084, symBinAddr: 0x100004FB0, symSize: 0xB8 }
  - { offsetInCU: 0x11A4D, offset: 0x11A4D, size: 0x8, addend: 0x0, symName: __ZNSt3__16vectorIdNS_9allocatorIdEEE7__clearB7v160006Ev, symObjAddr: 0x114C, symBinAddr: 0x100005078, symSize: 0x28 }
  - { offsetInCU: 0x11A73, offset: 0x11A73, size: 0x8, addend: 0x0, symName: __ZNSt3__116allocator_traitsINS_9allocatorIdEEE10deallocateB7v160006ERS2_Pdm, symObjAddr: 0x1174, symBinAddr: 0x1000050A0, symSize: 0x34 }
  - { offsetInCU: 0x11AB5, offset: 0x11AB5, size: 0x8, addend: 0x0, symName: __ZNSt3__16vectorIdNS_9allocatorIdEEE7__allocB7v160006Ev, symObjAddr: 0x11A8, symBinAddr: 0x1000050D4, symSize: 0x28 }
  - { offsetInCU: 0x11ADB, offset: 0x11ADB, size: 0x8, addend: 0x0, symName: __ZNKSt3__16vectorIdNS_9allocatorIdEEE8capacityB7v160006Ev, symObjAddr: 0x11D0, symBinAddr: 0x1000050FC, symSize: 0x40 }
  - { offsetInCU: 0x11B01, offset: 0x11B01, size: 0x8, addend: 0x0, symName: __ZNKSt3__16vectorIdNS_9allocatorIdEEE31__annotate_contiguous_containerB7v160006EPKvS5_S5_S5_, symObjAddr: 0x1210, symBinAddr: 0x10000513C, symSize: 0x20 }
  - { offsetInCU: 0x11B57, offset: 0x11B57, size: 0x8, addend: 0x0, symName: __ZNKSt3__16vectorIdNS_9allocatorIdEEE4dataB7v160006Ev, symObjAddr: 0x1230, symBinAddr: 0x10000515C, symSize: 0x28 }
  - { offsetInCU: 0x11B7D, offset: 0x11B7D, size: 0x8, addend: 0x0, symName: __ZNKSt3__16vectorIdNS_9allocatorIdEEE4sizeB7v160006Ev, symObjAddr: 0x1258, symBinAddr: 0x100005184, symSize: 0x28 }
  - { offsetInCU: 0x11BA3, offset: 0x11BA3, size: 0x8, addend: 0x0, symName: __ZNSt3__16vectorIdNS_9allocatorIdEEE22__base_destruct_at_endB7v160006EPd, symObjAddr: 0x1294, symBinAddr: 0x1000051C0, symSize: 0x8C }
  - { offsetInCU: 0x11BE7, offset: 0x11BE7, size: 0x8, addend: 0x0, symName: __ZNSt3__116allocator_traitsINS_9allocatorIdEEE7destroyB7v160006IdvEEvRS2_PT_, symObjAddr: 0x1320, symBinAddr: 0x10000524C, symSize: 0x2C }
  - { offsetInCU: 0x11C24, offset: 0x11C24, size: 0x8, addend: 0x0, symName: __ZNSt3__19allocatorIdE7destroyB7v160006EPd, symObjAddr: 0x134C, symBinAddr: 0x100005278, symSize: 0x14 }
  - { offsetInCU: 0x11C58, offset: 0x11C58, size: 0x8, addend: 0x0, symName: __ZNSt3__19allocatorIdE10deallocateB7v160006EPdm, symObjAddr: 0x1360, symBinAddr: 0x10000528C, symSize: 0x40 }
  - { offsetInCU: 0x11C9A, offset: 0x11C9A, size: 0x8, addend: 0x0, symName: __ZNSt3__117__compressed_pairIPdNS_9allocatorIdEEE6secondB7v160006Ev, symObjAddr: 0x141C, symBinAddr: 0x100005348, symSize: 0x24 }
  - { offsetInCU: 0x11CC0, offset: 0x11CC0, size: 0x8, addend: 0x0, symName: __ZNSt3__122__compressed_pair_elemINS_9allocatorIdEELi1ELb1EE5__getB7v160006Ev, symObjAddr: 0x1440, symBinAddr: 0x10000536C, symSize: 0x14 }
  - { offsetInCU: 0x11CE6, offset: 0x11CE6, size: 0x8, addend: 0x0, symName: __ZNKSt3__16vectorIdNS_9allocatorIdEEE9__end_capB7v160006Ev, symObjAddr: 0x1454, symBinAddr: 0x100005380, symSize: 0x28 }
  - { offsetInCU: 0x11D0C, offset: 0x11D0C, size: 0x8, addend: 0x0, symName: __ZNKSt3__117__compressed_pairIPdNS_9allocatorIdEEE5firstB7v160006Ev, symObjAddr: 0x147C, symBinAddr: 0x1000053A8, symSize: 0x24 }
  - { offsetInCU: 0x11D32, offset: 0x11D32, size: 0x8, addend: 0x0, symName: __ZNKSt3__122__compressed_pair_elemIPdLi0ELb0EE5__getB7v160006Ev, symObjAddr: 0x14A0, symBinAddr: 0x1000053CC, symSize: 0x14 }
  - { offsetInCU: 0x11D58, offset: 0x11D58, size: 0x8, addend: 0x0, symName: __ZN22MinVolatilityPortfolioD2Ev, symObjAddr: 0x14B4, symBinAddr: 0x1000053E0, symSize: 0x2C }
  - { offsetInCU: 0x11D84, offset: 0x11D84, size: 0x8, addend: 0x0, symName: __ZN17PortfolioStrategyD2Ev, symObjAddr: 0x14E0, symBinAddr: 0x10000540C, symSize: 0x14 }
  - { offsetInCU: 0x11DAE, offset: 0x11DAE, size: 0x8, addend: 0x0, symName: __ZN18MaxSharpePortfolioD2Ev, symObjAddr: 0x14F4, symBinAddr: 0x100005420, symSize: 0x2C }
  - { offsetInCU: 0x11DDA, offset: 0x11DDA, size: 0x8, addend: 0x0, symName: __ZN5Eigen6MatrixIdLin1ELin1ELi0ELin1ELin1EED2Ev, symObjAddr: 0x1520, symBinAddr: 0x10000544C, symSize: 0x2C }
  - { offsetInCU: 0x11E06, offset: 0x11E06, size: 0x8, addend: 0x0, symName: __ZN5Eigen15PlainObjectBaseINS_6MatrixIdLin1ELin1ELi0ELin1ELin1EEEED2Ev, symObjAddr: 0x154C, symBinAddr: 0x100005478, symSize: 0x2C }
  - { offsetInCU: 0x11E32, offset: 0x11E32, size: 0x8, addend: 0x0, symName: __ZN5Eigen12DenseStorageIdLin1ELin1ELin1ELi0EED1Ev, symObjAddr: 0x1578, symBinAddr: 0x1000054A4, symSize: 0x2C }
  - { offsetInCU: 0x11E5C, offset: 0x11E5C, size: 0x8, addend: 0x0, symName: __ZN5Eigen12DenseStorageIdLin1ELin1ELin1ELi0EED2Ev, symObjAddr: 0x15A4, symBinAddr: 0x1000054D0, symSize: 0x44 }
  - { offsetInCU: 0x11E86, offset: 0x11E86, size: 0x8, addend: 0x0, symName: __ZN5Eigen6MatrixIdLin1ELi1ELi0ELin1ELi1EED2Ev, symObjAddr: 0x1658, symBinAddr: 0x100005584, symSize: 0x2C }
  - { offsetInCU: 0x11EB2, offset: 0x11EB2, size: 0x8, addend: 0x0, symName: __ZN5Eigen15PlainObjectBaseINS_6MatrixIdLin1ELi1ELi0ELin1ELi1EEEED2Ev, symObjAddr: 0x1684, symBinAddr: 0x1000055B0, symSize: 0x2C }
  - { offsetInCU: 0x11EDE, offset: 0x11EDE, size: 0x8, addend: 0x0, symName: __ZN5Eigen12DenseStorageIdLin1ELin1ELi1ELi0EED1Ev, symObjAddr: 0x16B0, symBinAddr: 0x1000055DC, symSize: 0x2C }
  - { offsetInCU: 0x11F08, offset: 0x11F08, size: 0x8, addend: 0x0, symName: __ZN5Eigen12DenseStorageIdLin1ELin1ELi1ELi0EED2Ev, symObjAddr: 0x16DC, symBinAddr: 0x100005608, symSize: 0x44 }
  - { offsetInCU: 0x11F32, offset: 0x11F32, size: 0x8, addend: 0x0, symName: __ZNSt3__112basic_stringIcNS_11char_traitsIcEENS_9allocatorIcEEEC2B7v160006IDnEEPKc, symObjAddr: 0x1720, symBinAddr: 0x10000564C, symSize: 0x60 }
  - { offsetInCU: 0x11F75, offset: 0x11F75, size: 0x8, addend: 0x0, symName: __ZNSt3__117__compressed_pairINS_12basic_stringIcNS_11char_traitsIcEENS_9allocatorIcEEE5__repES5_EC1B7v160006INS_18__default_init_tagESA_EEOT_OT0_, symObjAddr: 0x1780, symBinAddr: 0x1000056AC, symSize: 0x3C }
  - { offsetInCU: 0x11FCD, offset: 0x11FCD, size: 0x8, addend: 0x0, symName: __ZNSt3__111char_traitsIcE6lengthEPKc, symObjAddr: 0x17BC, symBinAddr: 0x1000056E8, symSize: 0x34 }
  - { offsetInCU: 0x11FF0, offset: 0x11FF0, size: 0x8, addend: 0x0, symName: __ZNSt3__117__compressed_pairINS_12basic_stringIcNS_11char_traitsIcEENS_9allocatorIcEEE5__repES5_EC2B7v160006INS_18__default_init_tagESA_EEOT_OT0_, symObjAddr: 0x1800, symBinAddr: 0x10000572C, symSize: 0x3C }
  - { offsetInCU: 0x12048, offset: 0x12048, size: 0x8, addend: 0x0, symName: __ZNSt3__122__compressed_pair_elemINS_12basic_stringIcNS_11char_traitsIcEENS_9allocatorIcEEE5__repELi0ELb0EEC2B7v160006ENS_18__default_init_tagE, symObjAddr: 0x183C, symBinAddr: 0x100005768, symSize: 0x14 }
  - { offsetInCU: 0x1207D, offset: 0x1207D, size: 0x8, addend: 0x0, symName: __ZNSt3__122__compressed_pair_elemINS_9allocatorIcEELi1ELb1EEC2B7v160006ENS_18__default_init_tagE, symObjAddr: 0x1850, symBinAddr: 0x10000577C, symSize: 0x2C }
  - { offsetInCU: 0x120B2, offset: 0x120B2, size: 0x8, addend: 0x0, symName: __ZNSt3__19allocatorIcEC2B7v160006Ev, symObjAddr: 0x187C, symBinAddr: 0x1000057A8, symSize: 0x2C }
  - { offsetInCU: 0x120DC, offset: 0x120DC, size: 0x8, addend: 0x0, symName: __ZNSt3__116__non_trivial_ifILb1ENS_9allocatorIcEEEC2B7v160006Ev, symObjAddr: 0x18A8, symBinAddr: 0x1000057D4, symSize: 0x14 }
  - { offsetInCU: 0x12106, offset: 0x12106, size: 0x8, addend: 0x0, symName: __ZN5Eigen8symbolic10SymbolExprINS_8internal17symbolic_last_tagEEC2Ev, symObjAddr: 0x18E0, symBinAddr: 0x10000580C, symSize: 0x14 }
  - { offsetInCU: 0x12130, offset: 0x12130, size: 0x8, addend: 0x0, symName: __ZN5Eigen8internal8FixedIntILi1EEC2Ev, symObjAddr: 0x18F4, symBinAddr: 0x100005820, symSize: 0x14 }
  - { offsetInCU: 0x1215A, offset: 0x1215A, size: 0x8, addend: 0x0, symName: __ZNK5Eigen8symbolic8BaseExprINS0_10SymbolExprINS_8internal17symbolic_last_tagEEEE7derivedEv, symObjAddr: 0x1908, symBinAddr: 0x100005834, symSize: 0x14 }
  - { offsetInCU: 0x12180, offset: 0x12180, size: 0x8, addend: 0x0, symName: __ZN5Eigen8symbolic9ValueExprINS_8internal8FixedIntILi1EEEEC1Ev, symObjAddr: 0x191C, symBinAddr: 0x100005848, symSize: 0x2C }
  - { offsetInCU: 0x121AA, offset: 0x121AA, size: 0x8, addend: 0x0, symName: __ZN5Eigen8symbolic7AddExprINS0_10SymbolExprINS_8internal17symbolic_last_tagEEENS0_9ValueExprINS3_8FixedIntILi1EEEEEEC1ERKS5_RKS9_, symObjAddr: 0x1948, symBinAddr: 0x100005874, symSize: 0x3C }
  - { offsetInCU: 0x121F0, offset: 0x121F0, size: 0x8, addend: 0x0, symName: __ZN5Eigen8symbolic9ValueExprINS_8internal8FixedIntILi1EEEEC2Ev, symObjAddr: 0x1984, symBinAddr: 0x1000058B0, symSize: 0x14 }
  - { offsetInCU: 0x1221A, offset: 0x1221A, size: 0x8, addend: 0x0, symName: __ZN5Eigen8symbolic7AddExprINS0_10SymbolExprINS_8internal17symbolic_last_tagEEENS0_9ValueExprINS3_8FixedIntILi1EEEEEEC2ERKS5_RKS9_, symObjAddr: 0x1998, symBinAddr: 0x1000058C4, symSize: 0x1C }
  - { offsetInCU: 0x1227E, offset: 0x1227E, size: 0x8, addend: 0x0, symName: __ZNKSt3__113basic_ostreamIcNS_11char_traitsIcEEE6sentrycvbB7v160006Ev, symObjAddr: 0x1BA0, symBinAddr: 0x100005ACC, symSize: 0x1C }
  - { offsetInCU: 0x122A4, offset: 0x122A4, size: 0x8, addend: 0x0, symName: __ZNSt3__119ostreambuf_iteratorIcNS_11char_traitsIcEEEC1B7v160006ERNS_13basic_ostreamIcS2_EE, symObjAddr: 0x1DFC, symBinAddr: 0x100005D28, symSize: 0x34 }
  - { offsetInCU: 0x122DC, offset: 0x122DC, size: 0x8, addend: 0x0, symName: __ZNKSt3__18ios_base5flagsB7v160006Ev, symObjAddr: 0x1E30, symBinAddr: 0x100005D5C, symSize: 0x18 }
  - { offsetInCU: 0x12304, offset: 0x12304, size: 0x8, addend: 0x0, symName: __ZNKSt3__19basic_iosIcNS_11char_traitsIcEEE4fillB7v160006Ev, symObjAddr: 0x1E48, symBinAddr: 0x100005D74, symSize: 0x64 }
  - { offsetInCU: 0x1232C, offset: 0x1232C, size: 0x8, addend: 0x0, symName: __ZNKSt3__119ostreambuf_iteratorIcNS_11char_traitsIcEEE6failedB7v160006Ev, symObjAddr: 0x1EAC, symBinAddr: 0x100005DD8, symSize: 0x24 }
  - { offsetInCU: 0x12352, offset: 0x12352, size: 0x8, addend: 0x0, symName: __ZNSt3__19basic_iosIcNS_11char_traitsIcEEE8setstateB7v160006Ej, symObjAddr: 0x1ED0, symBinAddr: 0x100005DFC, symSize: 0x2C }
  - { offsetInCU: 0x12387, offset: 0x12387, size: 0x8, addend: 0x0, symName: __ZNKSt3__18ios_base5widthB7v160006Ev, symObjAddr: 0x1EFC, symBinAddr: 0x100005E28, symSize: 0x18 }
  - { offsetInCU: 0x123AF, offset: 0x123AF, size: 0x8, addend: 0x0, symName: __ZNSt3__115basic_streambufIcNS_11char_traitsIcEEE5sputnB7v160006EPKcl, symObjAddr: 0x1F14, symBinAddr: 0x100005E40, symSize: 0x3C }
  - { offsetInCU: 0x123F1, offset: 0x123F1, size: 0x8, addend: 0x0, symName: __ZNSt3__112basic_stringIcNS_11char_traitsIcEENS_9allocatorIcEEEC1B7v160006Emc, symObjAddr: 0x1F50, symBinAddr: 0x100005E7C, symSize: 0x3C }
  - { offsetInCU: 0x12439, offset: 0x12439, size: 0x8, addend: 0x0, symName: __ZNKSt3__112basic_stringIcNS_11char_traitsIcEENS_9allocatorIcEEE4dataB7v160006Ev, symObjAddr: 0x1F8C, symBinAddr: 0x100005EB8, symSize: 0x28 }
  - { offsetInCU: 0x1245F, offset: 0x1245F, size: 0x8, addend: 0x0, symName: __ZNSt3__18ios_base5widthB7v160006El, symObjAddr: 0x1FB4, symBinAddr: 0x100005EE0, symSize: 0x2C }
  - { offsetInCU: 0x124A5, offset: 0x124A5, size: 0x8, addend: 0x0, symName: __ZNSt3__112basic_stringIcNS_11char_traitsIcEENS_9allocatorIcEEEC2B7v160006Emc, symObjAddr: 0x1FE0, symBinAddr: 0x100005F0C, symSize: 0x54 }
  - { offsetInCU: 0x124ED, offset: 0x124ED, size: 0x8, addend: 0x0, symName: __ZNKSt3__112basic_stringIcNS_11char_traitsIcEENS_9allocatorIcEEE13__get_pointerB7v160006Ev, symObjAddr: 0x2048, symBinAddr: 0x100005F74, symSize: 0x54 }
  - { offsetInCU: 0x12513, offset: 0x12513, size: 0x8, addend: 0x0, symName: __ZNKSt3__112basic_stringIcNS_11char_traitsIcEENS_9allocatorIcEEE9__is_longB7v160006Ev, symObjAddr: 0x209C, symBinAddr: 0x100005FC8, symSize: 0x38 }
  - { offsetInCU: 0x12539, offset: 0x12539, size: 0x8, addend: 0x0, symName: __ZNKSt3__112basic_stringIcNS_11char_traitsIcEENS_9allocatorIcEEE18__get_long_pointerB7v160006Ev, symObjAddr: 0x20D4, symBinAddr: 0x100006000, symSize: 0x28 }
  - { offsetInCU: 0x1255F, offset: 0x1255F, size: 0x8, addend: 0x0, symName: __ZNKSt3__112basic_stringIcNS_11char_traitsIcEENS_9allocatorIcEEE19__get_short_pointerB7v160006Ev, symObjAddr: 0x20FC, symBinAddr: 0x100006028, symSize: 0x28 }
  - { offsetInCU: 0x12585, offset: 0x12585, size: 0x8, addend: 0x0, symName: __ZNKSt3__117__compressed_pairINS_12basic_stringIcNS_11char_traitsIcEENS_9allocatorIcEEE5__repES5_E5firstB7v160006Ev, symObjAddr: 0x2124, symBinAddr: 0x100006050, symSize: 0x24 }
  - { offsetInCU: 0x125AB, offset: 0x125AB, size: 0x8, addend: 0x0, symName: __ZNKSt3__122__compressed_pair_elemINS_12basic_stringIcNS_11char_traitsIcEENS_9allocatorIcEEE5__repELi0ELb0EE5__getB7v160006Ev, symObjAddr: 0x2148, symBinAddr: 0x100006074, symSize: 0x14 }
  - { offsetInCU: 0x125D1, offset: 0x125D1, size: 0x8, addend: 0x0, symName: __ZNSt3__114pointer_traitsIPKcE10pointer_toB7v160006ERS1_, symObjAddr: 0x215C, symBinAddr: 0x100006088, symSize: 0x14 }
  - { offsetInCU: 0x125F4, offset: 0x125F4, size: 0x8, addend: 0x0, symName: __ZNSt3__119ostreambuf_iteratorIcNS_11char_traitsIcEEEC2B7v160006ERNS_13basic_ostreamIcS2_EE, symObjAddr: 0x2170, symBinAddr: 0x10000609C, symSize: 0x54 }
  - { offsetInCU: 0x1262C, offset: 0x1262C, size: 0x8, addend: 0x0, symName: __ZNKSt3__19basic_iosIcNS_11char_traitsIcEEE5rdbufB7v160006Ev, symObjAddr: 0x21C4, symBinAddr: 0x1000060F0, symSize: 0x24 }
  - { offsetInCU: 0x12654, offset: 0x12654, size: 0x8, addend: 0x0, symName: __ZNKSt3__18ios_base5rdbufB7v160006Ev, symObjAddr: 0x21E8, symBinAddr: 0x100006114, symSize: 0x18 }
  - { offsetInCU: 0x1267A, offset: 0x1267A, size: 0x8, addend: 0x0, symName: __ZNSt3__111char_traitsIcE11eq_int_typeEii, symObjAddr: 0x2200, symBinAddr: 0x10000612C, symSize: 0x28 }
  - { offsetInCU: 0x126AB, offset: 0x126AB, size: 0x8, addend: 0x0, symName: __ZNSt3__111char_traitsIcE3eofEv, symObjAddr: 0x2228, symBinAddr: 0x100006154, symSize: 0x8 }
  - { offsetInCU: 0x126BF, offset: 0x126BF, size: 0x8, addend: 0x0, symName: __ZNKSt3__19basic_iosIcNS_11char_traitsIcEEE5widenB7v160006Ec, symObjAddr: 0x2230, symBinAddr: 0x10000615C, symSize: 0x84 }
  - { offsetInCU: 0x1272D, offset: 0x1272D, size: 0x8, addend: 0x0, symName: __ZNKSt3__15ctypeIcE5widenB7v160006Ec, symObjAddr: 0x22E0, symBinAddr: 0x10000620C, symSize: 0x38 }
  - { offsetInCU: 0x12762, offset: 0x12762, size: 0x8, addend: 0x0, symName: __ZNSt3__18ios_base8setstateB7v160006Ej, symObjAddr: 0x2318, symBinAddr: 0x100006244, symSize: 0x34 }
  - { offsetInCU: 0x12799, offset: 0x12799, size: 0x8, addend: 0x0, symName: __ZNK5Eigen9DenseBaseINS_6MatrixIdLin1ELi1ELi0ELin1ELi1EEEE4evalEv, symObjAddr: 0x28CC, symBinAddr: 0x1000067F8, symSize: 0x24 }
  - { offsetInCU: 0x127BF, offset: 0x127BF, size: 0x8, addend: 0x0, symName: __ZN5Eigen8IOFormatC1EiiRKNSt3__112basic_stringIcNS1_11char_traitsIcEENS1_9allocatorIcEEEES9_S9_S9_S9_S9_c, symObjAddr: 0x28F0, symBinAddr: 0x10000681C, symSize: 0x88 }
  - { offsetInCU: 0x12867, offset: 0x12867, size: 0x8, addend: 0x0, symName: __ZN5Eigen8IOFormatD1Ev, symObjAddr: 0x2978, symBinAddr: 0x1000068A4, symSize: 0x2C }
  - { offsetInCU: 0x12893, offset: 0x12893, size: 0x8, addend: 0x0, symName: __ZNK5Eigen9EigenBaseINS_6MatrixIdLin1ELi1ELi0ELin1ELi1EEEE4sizeEv, symObjAddr: 0x29A4, symBinAddr: 0x1000068D0, symSize: 0x44 }
  - { offsetInCU: 0x128B9, offset: 0x128B9, size: 0x8, addend: 0x0, symName: __ZN5Eigen8internal25significant_decimals_implIdE3runEv, symObjAddr: 0x2A34, symBinAddr: 0x100006960, symSize: 0x14 }
  - { offsetInCU: 0x128CD, offset: 0x128CD, size: 0x8, addend: 0x0, symName: __ZNSt3__18ios_base9precisionB7v160006El, symObjAddr: 0x2A48, symBinAddr: 0x100006974, symSize: 0x2C }
  - { offsetInCU: 0x12913, offset: 0x12913, size: 0x8, addend: 0x0, symName: __ZNK5Eigen15PlainObjectBaseINS_6MatrixIdLin1ELi1ELi0ELin1ELi1EEEE4colsEv, symObjAddr: 0x2A74, symBinAddr: 0x1000069A0, symSize: 0x30 }
  - { offsetInCU: 0x12939, offset: 0x12939, size: 0x8, addend: 0x0, symName: __ZNK5Eigen15PlainObjectBaseINS_6MatrixIdLin1ELi1ELi0ELin1ELi1EEEE4rowsEv, symObjAddr: 0x2AA4, symBinAddr: 0x1000069D0, symSize: 0x24 }
  - { offsetInCU: 0x12A28, offset: 0x12A28, size: 0x8, addend: 0x0, symName: __ZNSt3__118basic_stringstreamIcNS_11char_traitsIcEENS_9allocatorIcEEEC1B7v160006Ev, symObjAddr: 0x2AC8, symBinAddr: 0x1000069F4, symSize: 0x104 }
  - { offsetInCU: 0x12A52, offset: 0x12A52, size: 0x8, addend: 0x0, symName: __ZNK5Eigen15PlainObjectBaseINS_6MatrixIdLin1ELi1ELi0ELin1ELi1EEEE5coeffEll, symObjAddr: 0x2BCC, symBinAddr: 0x100006AF8, symSize: 0x6C }
  - { offsetInCU: 0x12A94, offset: 0x12A94, size: 0x8, addend: 0x0, symName: __ZNKSt3__118basic_stringstreamIcNS_11char_traitsIcEENS_9allocatorIcEEE3strB7v160006Ev, symObjAddr: 0x2C64, symBinAddr: 0x100006B90, symSize: 0x30 }
  - { offsetInCU: 0x12ABA, offset: 0x12ABA, size: 0x8, addend: 0x0, symName: __ZNKSt3__112basic_stringIcNS_11char_traitsIcEENS_9allocatorIcEEE6lengthB7v160006Ev, symObjAddr: 0x2C94, symBinAddr: 0x100006BC0, symSize: 0x24 }
  - { offsetInCU: 0x12AE5, offset: 0x12AE5, size: 0x8, addend: 0x0, symName: __ZNSt3__118basic_stringstreamIcNS_11char_traitsIcEENS_9allocatorIcEEED1Ev, symObjAddr: 0x2CB8, symBinAddr: 0x100006BE4, symSize: 0x40 }
  - { offsetInCU: 0x12B12, offset: 0x12B12, size: 0x8, addend: 0x0, symName: __ZNSt3__19basic_iosIcNS_11char_traitsIcEEE4fillB7v160006Ec, symObjAddr: 0x2CF8, symBinAddr: 0x100006C24, symSize: 0x74 }
  - { offsetInCU: 0x12B58, offset: 0x12B58, size: 0x8, addend: 0x0, symName: __ZNK5Eigen9EigenBaseINS_6MatrixIdLin1ELi1ELi0ELin1ELi1EEEE4rowsEv, symObjAddr: 0x2D6C, symBinAddr: 0x100006C98, symSize: 0x38 }
  - { offsetInCU: 0x12B7E, offset: 0x12B7E, size: 0x8, addend: 0x0, symName: __ZNK5Eigen9EigenBaseINS_6MatrixIdLin1ELi1ELi0ELin1ELi1EEEE4colsEv, symObjAddr: 0x2DA4, symBinAddr: 0x100006CD0, symSize: 0x28 }
  - { offsetInCU: 0x12BA4, offset: 0x12BA4, size: 0x8, addend: 0x0, symName: __ZNK5Eigen9EigenBaseINS_6MatrixIdLin1ELi1ELi0ELin1ELi1EEEE7derivedEv, symObjAddr: 0x2DCC, symBinAddr: 0x100006CF8, symSize: 0x14 }
  - { offsetInCU: 0x12BCA, offset: 0x12BCA, size: 0x8, addend: 0x0, symName: __ZNKSt3__112basic_stringIcNS_11char_traitsIcEENS_9allocatorIcEEE4sizeB7v160006Ev, symObjAddr: 0x2DE0, symBinAddr: 0x100006D0C, symSize: 0x54 }
  - { offsetInCU: 0x12BF0, offset: 0x12BF0, size: 0x8, addend: 0x0, symName: __ZNKSt3__112basic_stringIcNS_11char_traitsIcEENS_9allocatorIcEEE15__get_long_sizeB7v160006Ev, symObjAddr: 0x2E34, symBinAddr: 0x100006D60, symSize: 0x28 }
  - { offsetInCU: 0x12C16, offset: 0x12C16, size: 0x8, addend: 0x0, symName: __ZNKSt3__112basic_stringIcNS_11char_traitsIcEENS_9allocatorIcEEE16__get_short_sizeB7v160006Ev, symObjAddr: 0x2E5C, symBinAddr: 0x100006D88, symSize: 0x34 }
  - { offsetInCU: 0x12C3C, offset: 0x12C3C, size: 0x8, addend: 0x0, symName: __ZN5Eigen16GenericNumTraitsIdE8digits10Ev, symObjAddr: 0x2E90, symBinAddr: 0x100006DBC, symSize: 0x14 }
  - { offsetInCU: 0x12C50, offset: 0x12C50, size: 0x8, addend: 0x0, symName: __ZN5Eigen8internal21default_digits10_implIdLb1ELb0EE3runEv, symObjAddr: 0x2EA4, symBinAddr: 0x100006DD0, symSize: 0x8 }
  - { offsetInCU: 0x12C64, offset: 0x12C64, size: 0x8, addend: 0x0, symName: __ZN5Eigen12DenseStorageIdLin1ELin1ELi1ELi0EE4colsEv, symObjAddr: 0x2EAC, symBinAddr: 0x100006DD8, symSize: 0x8 }
  - { offsetInCU: 0x12C78, offset: 0x12C78, size: 0x8, addend: 0x0, symName: __ZNK5Eigen12DenseStorageIdLin1ELin1ELi1ELi0EE4rowsEv, symObjAddr: 0x2EB4, symBinAddr: 0x100006DE0, symSize: 0x18 }
  - { offsetInCU: 0x12C9E, offset: 0x12C9E, size: 0x8, addend: 0x0, symName: __ZNSt3__19basic_iosIcNS_11char_traitsIcEEEC2B7v160006Ev, symObjAddr: 0x2ECC, symBinAddr: 0x100006DF8, symSize: 0x44 }
  - { offsetInCU: 0x12CC8, offset: 0x12CC8, size: 0x8, addend: 0x0, symName: __ZNSt3__114basic_iostreamIcNS_11char_traitsIcEEEC2B7v160006EPNS_15basic_streambufIcS2_EE, symObjAddr: 0x2F10, symBinAddr: 0x100006E3C, symSize: 0xAC }
  - { offsetInCU: 0x12D0E, offset: 0x12D0E, size: 0x8, addend: 0x0, symName: __ZNSt3__115basic_stringbufIcNS_11char_traitsIcEENS_9allocatorIcEEEC1B7v160006Ej, symObjAddr: 0x2FBC, symBinAddr: 0x100006EE8, symSize: 0x34 }
  - { offsetInCU: 0x12D46, offset: 0x12D46, size: 0x8, addend: 0x0, symName: __ZNSt3__18ios_baseC2B7v160006Ev, symObjAddr: 0x2FF0, symBinAddr: 0x100006F1C, symSize: 0x24 }
  - { offsetInCU: 0x12D70, offset: 0x12D70, size: 0x8, addend: 0x0, symName: __ZNSt3__113basic_istreamIcNS_11char_traitsIcEEEC2B7v160006EPNS_15basic_streambufIcS2_EE, symObjAddr: 0x3014, symBinAddr: 0x100006F40, symSize: 0x64 }
  - { offsetInCU: 0x12DB5, offset: 0x12DB5, size: 0x8, addend: 0x0, symName: __ZNSt3__113basic_ostreamIcNS_11char_traitsIcEEEC2B7v160006Ev, symObjAddr: 0x3078, symBinAddr: 0x100006FA4, symSize: 0x34 }
  - { offsetInCU: 0x12DEC, offset: 0x12DEC, size: 0x8, addend: 0x0, symName: __ZNSt3__19basic_iosIcNS_11char_traitsIcEEE4initB7v160006EPNS_15basic_streambufIcS2_EE, symObjAddr: 0x30AC, symBinAddr: 0x100006FD8, symSize: 0x44 }
  - { offsetInCU: 0x12E23, offset: 0x12E23, size: 0x8, addend: 0x0, symName: __ZNSt3__115basic_stringbufIcNS_11char_traitsIcEENS_9allocatorIcEEEC2B7v160006Ej, symObjAddr: 0x30F0, symBinAddr: 0x10000701C, symSize: 0x60 }
  - { offsetInCU: 0x12E5B, offset: 0x12E5B, size: 0x8, addend: 0x0, symName: __ZNSt3__112basic_stringIcNS_11char_traitsIcEENS_9allocatorIcEEEC1B7v160006Ev, symObjAddr: 0x3150, symBinAddr: 0x10000707C, symSize: 0x2C }
  - { offsetInCU: 0x12E85, offset: 0x12E85, size: 0x8, addend: 0x0, symName: __ZNSt3__112basic_stringIcNS_11char_traitsIcEENS_9allocatorIcEEEC2B7v160006Ev, symObjAddr: 0x317C, symBinAddr: 0x1000070A8, symSize: 0x50 }
  - { offsetInCU: 0x12EAF, offset: 0x12EAF, size: 0x8, addend: 0x0, symName: __ZNSt3__112basic_stringIcNS_11char_traitsIcEENS_9allocatorIcEEE14__default_initB7v160006Ev, symObjAddr: 0x31CC, symBinAddr: 0x1000070F8, symSize: 0x40 }
  - { offsetInCU: 0x12ED5, offset: 0x12ED5, size: 0x8, addend: 0x0, symName: __ZNSt3__117__compressed_pairINS_12basic_stringIcNS_11char_traitsIcEENS_9allocatorIcEEE5__repES5_E5firstB7v160006Ev, symObjAddr: 0x320C, symBinAddr: 0x100007138, symSize: 0x24 }
  - { offsetInCU: 0x12EFB, offset: 0x12EFB, size: 0x8, addend: 0x0, symName: __ZNSt3__122__compressed_pair_elemINS_12basic_stringIcNS_11char_traitsIcEENS_9allocatorIcEEE5__repELi0ELb0EE5__getB7v160006Ev, symObjAddr: 0x3230, symBinAddr: 0x10000715C, symSize: 0x14 }
  - { offsetInCU: 0x12F21, offset: 0x12F21, size: 0x8, addend: 0x0, symName: __ZNK5Eigen12DenseStorageIdLin1ELin1ELi1ELi0EE4dataEv, symObjAddr: 0x3244, symBinAddr: 0x100007170, symSize: 0x18 }
  - { offsetInCU: 0x12F5B, offset: 0x12F5B, size: 0x8, addend: 0x0, symName: __ZNKSt3__16__lessIllEclB7v160006ERKlS3_, symObjAddr: 0x32B0, symBinAddr: 0x1000071DC, symSize: 0x34 }
  - { offsetInCU: 0x12F9D, offset: 0x12F9D, size: 0x8, addend: 0x0, symName: __ZNSt3__118basic_stringstreamIcNS_11char_traitsIcEENS_9allocatorIcEEED2Ev, symObjAddr: 0x32E4, symBinAddr: 0x100007210, symSize: 0x6C }
  - { offsetInCU: 0x12FD7, offset: 0x12FD7, size: 0x8, addend: 0x0, symName: __ZThn16_NSt3__118basic_stringstreamIcNS_11char_traitsIcEENS_9allocatorIcEEED1Ev, symObjAddr: 0x3350, symBinAddr: 0x10000727C, symSize: 0x1C }
  - { offsetInCU: 0x12FEE, offset: 0x12FEE, size: 0x8, addend: 0x0, symName: __ZTv0_n24_NSt3__118basic_stringstreamIcNS_11char_traitsIcEENS_9allocatorIcEEED1Ev, symObjAddr: 0x336C, symBinAddr: 0x100007298, symSize: 0x28 }
  - { offsetInCU: 0x1300A, offset: 0x1300A, size: 0x8, addend: 0x0, symName: __ZNSt3__115basic_stringbufIcNS_11char_traitsIcEENS_9allocatorIcEEED1Ev, symObjAddr: 0x3394, symBinAddr: 0x1000072C0, symSize: 0x2C }
  - { offsetInCU: 0x13037, offset: 0x13037, size: 0x8, addend: 0x0, symName: __ZNSt3__115basic_stringbufIcNS_11char_traitsIcEENS_9allocatorIcEEED2Ev, symObjAddr: 0x33C0, symBinAddr: 0x1000072EC, symSize: 0x48 }
  - { offsetInCU: 0x13064, offset: 0x13064, size: 0x8, addend: 0x0, symName: __ZN5Eigen8IOFormatC2EiiRKNSt3__112basic_stringIcNS1_11char_traitsIcEENS1_9allocatorIcEEEES9_S9_S9_S9_S9_c, symObjAddr: 0x3408, symBinAddr: 0x100007334, symSize: 0x284 }
  - { offsetInCU: 0x13123, offset: 0x13123, size: 0x8, addend: 0x0, symName: __ZNSt3__112basic_stringIcNS_11char_traitsIcEENS_9allocatorIcEEEixB7v160006Em, symObjAddr: 0x368C, symBinAddr: 0x1000075B8, symSize: 0x30 }
  - { offsetInCU: 0x13158, offset: 0x13158, size: 0x8, addend: 0x0, symName: __ZNSt3__112basic_stringIcNS_11char_traitsIcEENS_9allocatorIcEEEpLB7v160006Ec, symObjAddr: 0x36BC, symBinAddr: 0x1000075E8, symSize: 0x34 }
  - { offsetInCU: 0x1318D, offset: 0x1318D, size: 0x8, addend: 0x0, symName: __ZNSt3__112basic_stringIcNS_11char_traitsIcEENS_9allocatorIcEEE13__get_pointerB7v160006Ev, symObjAddr: 0x36F0, symBinAddr: 0x10000761C, symSize: 0x54 }
  - { offsetInCU: 0x131B3, offset: 0x131B3, size: 0x8, addend: 0x0, symName: __ZNSt3__112basic_stringIcNS_11char_traitsIcEENS_9allocatorIcEEE18__get_long_pointerB7v160006Ev, symObjAddr: 0x3744, symBinAddr: 0x100007670, symSize: 0x28 }
  - { offsetInCU: 0x131D9, offset: 0x131D9, size: 0x8, addend: 0x0, symName: __ZNSt3__112basic_stringIcNS_11char_traitsIcEENS_9allocatorIcEEE19__get_short_pointerB7v160006Ev, symObjAddr: 0x376C, symBinAddr: 0x100007698, symSize: 0x28 }
  - { offsetInCU: 0x131FF, offset: 0x131FF, size: 0x8, addend: 0x0, symName: __ZNSt3__114pointer_traitsIPcE10pointer_toB7v160006ERc, symObjAddr: 0x3794, symBinAddr: 0x1000076C0, symSize: 0x14 }
  - { offsetInCU: 0x13222, offset: 0x13222, size: 0x8, addend: 0x0, symName: __ZN5Eigen8IOFormatD2Ev, symObjAddr: 0x37A8, symBinAddr: 0x1000076D4, symSize: 0x74 }
  - { offsetInCU: 0x1324E, offset: 0x1324E, size: 0x8, addend: 0x0, symName: __ZNK5Eigen9DenseBaseINS_6MatrixIdLin1ELin1ELi0ELin1ELin1EEEE4evalEv, symObjAddr: 0x3D9C, symBinAddr: 0x100007CC8, symSize: 0x24 }
  - { offsetInCU: 0x13274, offset: 0x13274, size: 0x8, addend: 0x0, symName: __ZNK5Eigen9EigenBaseINS_6MatrixIdLin1ELin1ELi0ELin1ELin1EEEE4sizeEv, symObjAddr: 0x3DC0, symBinAddr: 0x100007CEC, symSize: 0x44 }
  - { offsetInCU: 0x1329A, offset: 0x1329A, size: 0x8, addend: 0x0, symName: __ZNK5Eigen15PlainObjectBaseINS_6MatrixIdLin1ELin1ELi0ELin1ELin1EEEE4colsEv, symObjAddr: 0x3E04, symBinAddr: 0x100007D30, symSize: 0x24 }
  - { offsetInCU: 0x132C0, offset: 0x132C0, size: 0x8, addend: 0x0, symName: __ZNK5Eigen15PlainObjectBaseINS_6MatrixIdLin1ELin1ELi0ELin1ELin1EEEE4rowsEv, symObjAddr: 0x3E28, symBinAddr: 0x100007D54, symSize: 0x24 }
  - { offsetInCU: 0x132E6, offset: 0x132E6, size: 0x8, addend: 0x0, symName: __ZNK5Eigen15PlainObjectBaseINS_6MatrixIdLin1ELin1ELi0ELin1ELin1EEEE5coeffEll, symObjAddr: 0x3E4C, symBinAddr: 0x100007D78, symSize: 0x6C }
  - { offsetInCU: 0x13328, offset: 0x13328, size: 0x8, addend: 0x0, symName: __ZNK5Eigen9EigenBaseINS_6MatrixIdLin1ELin1ELi0ELin1ELin1EEEE4rowsEv, symObjAddr: 0x3EB8, symBinAddr: 0x100007DE4, symSize: 0x38 }
  - { offsetInCU: 0x1334E, offset: 0x1334E, size: 0x8, addend: 0x0, symName: __ZNK5Eigen9EigenBaseINS_6MatrixIdLin1ELin1ELi0ELin1ELin1EEEE4colsEv, symObjAddr: 0x3EF0, symBinAddr: 0x100007E1C, symSize: 0x28 }
  - { offsetInCU: 0x13374, offset: 0x13374, size: 0x8, addend: 0x0, symName: __ZNK5Eigen9EigenBaseINS_6MatrixIdLin1ELin1ELi0ELin1ELin1EEEE7derivedEv, symObjAddr: 0x3F18, symBinAddr: 0x100007E44, symSize: 0x14 }
  - { offsetInCU: 0x1339A, offset: 0x1339A, size: 0x8, addend: 0x0, symName: __ZNK5Eigen12DenseStorageIdLin1ELin1ELin1ELi0EE4colsEv, symObjAddr: 0x3F2C, symBinAddr: 0x100007E58, symSize: 0x18 }
  - { offsetInCU: 0x133C0, offset: 0x133C0, size: 0x8, addend: 0x0, symName: __ZNK5Eigen12DenseStorageIdLin1ELin1ELin1ELi0EE4rowsEv, symObjAddr: 0x3F44, symBinAddr: 0x100007E70, symSize: 0x18 }
  - { offsetInCU: 0x133E6, offset: 0x133E6, size: 0x8, addend: 0x0, symName: __ZNK5Eigen12DenseStorageIdLin1ELin1ELin1ELi0EE4dataEv, symObjAddr: 0x3F5C, symBinAddr: 0x100007E88, symSize: 0x18 }
  - { offsetInCU: 0x1340C, offset: 0x1340C, size: 0x8, addend: 0x0, symName: __ZNSt3__16vectorI15PortfolioResultNS_9allocatorIS1_EEED2B7v160006Ev, symObjAddr: 0x3F74, symBinAddr: 0x100007EA0, symSize: 0x44 }
  - { offsetInCU: 0x13436, offset: 0x13436, size: 0x8, addend: 0x0, symName: __ZNSt3__16vectorI15PortfolioResultNS_9allocatorIS1_EEE16__destroy_vectorC1ERS4_, symObjAddr: 0x3FB8, symBinAddr: 0x100007EE4, symSize: 0x34 }
  - { offsetInCU: 0x1346F, offset: 0x1346F, size: 0x8, addend: 0x0, symName: __ZNSt3__16vectorI15PortfolioResultNS_9allocatorIS1_EEE16__destroy_vectorclB7v160006Ev, symObjAddr: 0x3FEC, symBinAddr: 0x100007F18, symSize: 0x9C }
  - { offsetInCU: 0x13495, offset: 0x13495, size: 0x8, addend: 0x0, symName: __ZNSt3__16vectorI15PortfolioResultNS_9allocatorIS1_EEE16__destroy_vectorC2ERS4_, symObjAddr: 0x4088, symBinAddr: 0x100007FB4, symSize: 0x20 }
  - { offsetInCU: 0x134CE, offset: 0x134CE, size: 0x8, addend: 0x0, symName: __ZNKSt3__16vectorI15PortfolioResultNS_9allocatorIS1_EEE17__annotate_deleteB7v160006Ev, symObjAddr: 0x40A8, symBinAddr: 0x100007FD4, symSize: 0xD4 }
  - { offsetInCU: 0x134F4, offset: 0x134F4, size: 0x8, addend: 0x0, symName: __ZNSt3__16vectorI15PortfolioResultNS_9allocatorIS1_EEE7__clearB7v160006Ev, symObjAddr: 0x418C, symBinAddr: 0x1000080B8, symSize: 0x28 }
  - { offsetInCU: 0x1351A, offset: 0x1351A, size: 0x8, addend: 0x0, symName: __ZNSt3__116allocator_traitsINS_9allocatorI15PortfolioResultEEE10deallocateB7v160006ERS3_PS2_m, symObjAddr: 0x41B4, symBinAddr: 0x1000080E0, symSize: 0x34 }
  - { offsetInCU: 0x1355C, offset: 0x1355C, size: 0x8, addend: 0x0, symName: __ZNSt3__16vectorI15PortfolioResultNS_9allocatorIS1_EEE7__allocB7v160006Ev, symObjAddr: 0x41E8, symBinAddr: 0x100008114, symSize: 0x28 }
  - { offsetInCU: 0x13582, offset: 0x13582, size: 0x8, addend: 0x0, symName: __ZNKSt3__16vectorI15PortfolioResultNS_9allocatorIS1_EEE8capacityB7v160006Ev, symObjAddr: 0x4210, symBinAddr: 0x10000813C, symSize: 0x40 }
  - { offsetInCU: 0x135A8, offset: 0x135A8, size: 0x8, addend: 0x0, symName: __ZNKSt3__16vectorI15PortfolioResultNS_9allocatorIS1_EEE31__annotate_contiguous_containerB7v160006EPKvS6_S6_S6_, symObjAddr: 0x4250, symBinAddr: 0x10000817C, symSize: 0x20 }
  - { offsetInCU: 0x135FE, offset: 0x135FE, size: 0x8, addend: 0x0, symName: __ZNKSt3__16vectorI15PortfolioResultNS_9allocatorIS1_EEE4dataB7v160006Ev, symObjAddr: 0x4270, symBinAddr: 0x10000819C, symSize: 0x28 }
  - { offsetInCU: 0x13624, offset: 0x13624, size: 0x8, addend: 0x0, symName: __ZNKSt3__16vectorI15PortfolioResultNS_9allocatorIS1_EEE4sizeB7v160006Ev, symObjAddr: 0x4298, symBinAddr: 0x1000081C4, symSize: 0x28 }
  - { offsetInCU: 0x1364A, offset: 0x1364A, size: 0x8, addend: 0x0, symName: __ZNSt3__16vectorI15PortfolioResultNS_9allocatorIS1_EEE22__base_destruct_at_endB7v160006EPS1_, symObjAddr: 0x42D4, symBinAddr: 0x100008200, symSize: 0x8C }
  - { offsetInCU: 0x1368E, offset: 0x1368E, size: 0x8, addend: 0x0, symName: __ZNSt3__116allocator_traitsINS_9allocatorI15PortfolioResultEEE7destroyB7v160006IS2_vEEvRS3_PT_, symObjAddr: 0x4360, symBinAddr: 0x10000828C, symSize: 0x2C }
  - { offsetInCU: 0x136CB, offset: 0x136CB, size: 0x8, addend: 0x0, symName: __ZNSt3__19allocatorI15PortfolioResultE7destroyB7v160006EPS1_, symObjAddr: 0x438C, symBinAddr: 0x1000082B8, symSize: 0x28 }
  - { offsetInCU: 0x136FF, offset: 0x136FF, size: 0x8, addend: 0x0, symName: __ZNSt3__19allocatorI15PortfolioResultE10deallocateB7v160006EPS1_m, symObjAddr: 0x43B4, symBinAddr: 0x1000082E0, symSize: 0x44 }
  - { offsetInCU: 0x13741, offset: 0x13741, size: 0x8, addend: 0x0, symName: __ZNSt3__117__compressed_pairIP15PortfolioResultNS_9allocatorIS1_EEE6secondB7v160006Ev, symObjAddr: 0x43F8, symBinAddr: 0x100008324, symSize: 0x24 }
  - { offsetInCU: 0x13767, offset: 0x13767, size: 0x8, addend: 0x0, symName: __ZNSt3__122__compressed_pair_elemINS_9allocatorI15PortfolioResultEELi1ELb1EE5__getB7v160006Ev, symObjAddr: 0x441C, symBinAddr: 0x100008348, symSize: 0x14 }
  - { offsetInCU: 0x1378D, offset: 0x1378D, size: 0x8, addend: 0x0, symName: __ZNKSt3__16vectorI15PortfolioResultNS_9allocatorIS1_EEE9__end_capB7v160006Ev, symObjAddr: 0x4430, symBinAddr: 0x10000835C, symSize: 0x28 }
  - { offsetInCU: 0x137B3, offset: 0x137B3, size: 0x8, addend: 0x0, symName: __ZNKSt3__117__compressed_pairIP15PortfolioResultNS_9allocatorIS1_EEE5firstB7v160006Ev, symObjAddr: 0x4458, symBinAddr: 0x100008384, symSize: 0x24 }
  - { offsetInCU: 0x137D9, offset: 0x137D9, size: 0x8, addend: 0x0, symName: __ZNKSt3__122__compressed_pair_elemIP15PortfolioResultLi0ELb0EE5__getB7v160006Ev, symObjAddr: 0x447C, symBinAddr: 0x1000083A8, symSize: 0x14 }
  - { offsetInCU: 0x137FF, offset: 0x137FF, size: 0x8, addend: 0x0, symName: __ZNSt3__16vectorIdNS_9allocatorIdEEE11__make_iterB7v160006EPd, symObjAddr: 0x4490, symBinAddr: 0x1000083BC, symSize: 0x34 }
  - { offsetInCU: 0x13834, offset: 0x13834, size: 0x8, addend: 0x0, symName: __ZNSt3__111__wrap_iterIPdEC1B7v160006EPKvS1_, symObjAddr: 0x44C4, symBinAddr: 0x1000083F0, symSize: 0x3C }
  - { offsetInCU: 0x1387A, offset: 0x1387A, size: 0x8, addend: 0x0, symName: __ZNSt3__111__wrap_iterIPdEC2B7v160006EPKvS1_, symObjAddr: 0x4500, symBinAddr: 0x10000842C, symSize: 0x24 }
  - { offsetInCU: 0x44, offset: 0x13A34, size: 0x8, addend: 0x0, symName: __ZN5EigenL4lastE, symObjAddr: 0x4401E7, symBinAddr: 0x100048025, symSize: 0x0 }
  - { offsetInCU: 0x285, offset: 0x13C75, size: 0x8, addend: 0x0, symName: __ZN5Eigen8internal20manage_caching_sizesENS_6ActionEPlS2_S2_, symObjAddr: 0x158FC, symBinAddr: 0x10001D80C, symSize: 0x138 }
  - { offsetInCU: 0x2AA, offset: 0x13C9A, size: 0x8, addend: 0x0, symName: __ZZN5Eigen8internal20manage_caching_sizesENS_6ActionEPlS2_S2_E12m_cacheSizes, symObjAddr: 0x29D10, symBinAddr: 0x100048000, symSize: 0x0 }
  - { offsetInCU: 0x76B0, offset: 0x1B0A0, size: 0x8, addend: 0x0, symName: __ZN5Eigen8internal37evaluateProductBlockingSizesHeuristicIddLi1ElEEvRT2_S3_S3_S2_, symObjAddr: 0x1510C, symBinAddr: 0x10001D01C, symSize: 0x7F0 }
  - { offsetInCU: 0xCDC1, offset: 0x207B1, size: 0x8, addend: 0x0, symName: __ZN5Eigen8internal19throw_std_bad_allocEv, symObjAddr: 0x1BA8, symBinAddr: 0x100009C04, symSize: 0x34 }
  - { offsetInCU: 0xCE00, offset: 0x207F0, size: 0x8, addend: 0x0, symName: __ZN5Eigen8internal28conditional_aligned_new_autoIdLb1EEEPT_m, symObjAddr: 0x1BDC, symBinAddr: 0x100009C38, symSize: 0x84 }
  - { offsetInCU: 0xCE70, offset: 0x20860, size: 0x8, addend: 0x0, symName: __ZN5Eigen8internal26conditional_aligned_mallocILb1EEEPvm, symObjAddr: 0x1C60, symBinAddr: 0x100009CBC, symSize: 0x24 }
  - { offsetInCU: 0xCEA6, offset: 0x20896, size: 0x8, addend: 0x0, symName: __ZN5Eigen8internal14aligned_mallocEm, symObjAddr: 0x1C84, symBinAddr: 0x100009CE0, symSize: 0xDC }
  - { offsetInCU: 0xCEE7, offset: 0x208D7, size: 0x8, addend: 0x0, symName: __ZN5Eigen8internal28check_that_malloc_is_allowedEv, symObjAddr: 0x1D60, symBinAddr: 0x100009DBC, symSize: 0x4 }
  - { offsetInCU: 0xCF2B, offset: 0x2091B, size: 0x8, addend: 0x0, symName: __ZN5Eigen8internal15call_assignmentINS_5BlockINS_6MatrixIdLin1ELin1ELi0ELin1ELin1EEELi1ELin1ELb0EEENS_13CwiseBinaryOpINS0_18scalar_quotient_opIddEEKNS6_INS0_20scalar_difference_opIddEEKNS2_IKS4_Li1ELin1ELb0EEESD_EESD_EEEEvRT_RKT0_, symObjAddr: 0x2D70, symBinAddr: 0x10000ADA0, symSize: 0x50 }
  - { offsetInCU: 0xCF76, offset: 0x20966, size: 0x8, addend: 0x0, symName: __ZN5Eigen8internal15call_assignmentINS_5BlockINS_6MatrixIdLin1ELin1ELi0ELin1ELin1EEELi1ELin1ELb0EEENS_13CwiseBinaryOpINS0_18scalar_quotient_opIddEEKNS6_INS0_20scalar_difference_opIddEEKNS2_IKS4_Li1ELin1ELb0EEESD_EESD_EENS0_9assign_opIddEEEEvRT_RKT0_RKT1_NS0_9enable_ifIXntsr25evaluator_assume_aliasingISL_EE5valueEPvE4typeE, symObjAddr: 0x2DD4, symBinAddr: 0x10000AE04, symSize: 0x38 }
  - { offsetInCU: 0xCFE5, offset: 0x209D5, size: 0x8, addend: 0x0, symName: __ZN5Eigen8internal24call_assignment_no_aliasINS_5BlockINS_6MatrixIdLin1ELin1ELi0ELin1ELin1EEELi1ELin1ELb0EEENS_13CwiseBinaryOpINS0_18scalar_quotient_opIddEEKNS6_INS0_20scalar_difference_opIddEEKNS2_IKS4_Li1ELin1ELb0EEESD_EESD_EENS0_9assign_opIddEEEEvRT_RKT0_RKT1_, symObjAddr: 0x2E38, symBinAddr: 0x10000AE68, symSize: 0x3C }
  - { offsetInCU: 0xD0BE, offset: 0x20AAE, size: 0x8, addend: 0x0, symName: __ZN5Eigen8internal18check_for_aliasingINS_5BlockINS_6MatrixIdLin1ELin1ELi0ELin1ELin1EEELi1ELin1ELb0EEENS_13CwiseBinaryOpINS0_18scalar_quotient_opIddEEKNS6_INS0_20scalar_difference_opIddEEKNS2_IKS4_Li1ELin1ELb0EEESD_EESD_EEEEvRKT_RKT0_, symObjAddr: 0x2EB4, symBinAddr: 0x10000AEE4, symSize: 0x14 }
  - { offsetInCU: 0xD10A, offset: 0x20AFA, size: 0x8, addend: 0x0, symName: __ZN5Eigen8internal26call_dense_assignment_loopINS_5BlockINS_6MatrixIdLin1ELin1ELi0ELin1ELin1EEELi1ELin1ELb0EEENS_13CwiseBinaryOpINS0_18scalar_quotient_opIddEEKNS6_INS0_20scalar_difference_opIddEEKNS2_IKS4_Li1ELin1ELb0EEESD_EESD_EENS0_9assign_opIddEEEEvRT_RKT0_RKT1_, symObjAddr: 0x2EC8, symBinAddr: 0x10000AEF8, symSize: 0xE0 }
  - { offsetInCU: 0xD663, offset: 0x21053, size: 0x8, addend: 0x0, symName: __ZN5Eigen8internal17resize_if_allowedINS_5BlockINS_6MatrixIdLin1ELin1ELi0ELin1ELin1EEELi1ELin1ELb0EEENS_13CwiseBinaryOpINS0_18scalar_quotient_opIddEEKNS6_INS0_20scalar_difference_opIddEEKNS2_IKS4_Li1ELin1ELb0EEESD_EESD_EEddEEvRT_RKT0_RKNS0_9assign_opIT1_T2_EE, symObjAddr: 0x2FDC, symBinAddr: 0x10000B00C, symSize: 0xF8 }
  - { offsetInCU: 0xD9F8, offset: 0x213E8, size: 0x8, addend: 0x0, symName: __ZN5Eigen8internal24call_assignment_no_aliasINS_6MatrixIdLin1ELi1ELi0ELin1ELi1EEENS_13CwiseBinaryOpINS0_18scalar_quotient_opIddEEKNS_16PartialReduxExprIKNS2_IdLin1ELin1ELi0ELin1ELin1EEENS0_10member_sumIddEELi0EEEKNS_14CwiseNullaryOpINS0_18scalar_constant_opIdEEKNS2_IdLi1ELin1ELi1ELi1ELin1EEEEEEENS0_9assign_opIddEEEEvRT_RKT0_RKT1_, symObjAddr: 0x51E4, symBinAddr: 0x10000D1EC, symSize: 0x44 }
  - { offsetInCU: 0xDAC7, offset: 0x214B7, size: 0x8, addend: 0x0, symName: __ZN5Eigen8internal18check_for_aliasingINS_9TransposeINS_6MatrixIdLin1ELi1ELi0ELin1ELi1EEEEENS_13CwiseBinaryOpINS0_18scalar_quotient_opIddEEKNS_16PartialReduxExprIKNS3_IdLin1ELin1ELi0ELin1ELin1EEENS0_10member_sumIddEELi0EEEKNS_14CwiseNullaryOpINS0_18scalar_constant_opIdEEKNS3_IdLi1ELin1ELi1ELi1ELin1EEEEEEEEEvRKT_RKT0_, symObjAddr: 0x5354, symBinAddr: 0x10000D35C, symSize: 0x14 }
  - { offsetInCU: 0xDB13, offset: 0x21503, size: 0x8, addend: 0x0, symName: __ZN5Eigen8internal26call_dense_assignment_loopINS_9TransposeINS_6MatrixIdLin1ELi1ELi0ELin1ELi1EEEEENS_13CwiseBinaryOpINS0_18scalar_quotient_opIddEEKNS_16PartialReduxExprIKNS3_IdLin1ELin1ELi0ELin1ELin1EEENS0_10member_sumIddEELi0EEEKNS_14CwiseNullaryOpINS0_18scalar_constant_opIdEEKNS3_IdLi1ELin1ELi1ELi1ELin1EEEEEEENS0_9assign_opIddEEEEvRT_RKT0_RKT1_, symObjAddr: 0x5368, symBinAddr: 0x10000D370, symSize: 0xE0 }
  - { offsetInCU: 0xDFE7, offset: 0x219D7, size: 0x8, addend: 0x0, symName: __ZN5Eigen8internal17resize_if_allowedINS_9TransposeINS_6MatrixIdLin1ELi1ELi0ELin1ELi1EEEEENS_13CwiseBinaryOpINS0_18scalar_quotient_opIddEEKNS_16PartialReduxExprIKNS3_IdLin1ELin1ELi0ELin1ELin1EEENS0_10member_sumIddEELi0EEEKNS_14CwiseNullaryOpINS0_18scalar_constant_opIdEEKNS3_IdLi1ELin1ELi1ELi1ELin1EEEEEEEddEEvRT_RKT0_RKNS0_9assign_opIT1_T2_EE, symObjAddr: 0x547C, symBinAddr: 0x10000D484, symSize: 0xF8 }
  - { offsetInCU: 0xE443, offset: 0x21E33, size: 0x8, addend: 0x0, symName: __ZN5Eigen8internal22ignore_unused_variableIlEEvRKT_, symObjAddr: 0x5F60, symBinAddr: 0x10000DEDC, symSize: 0x10 }
  - { offsetInCU: 0xE646, offset: 0x22036, size: 0x8, addend: 0x0, symName: __ZN5Eigen8internalL21first_default_alignedINS_5BlockIKNS_6MatrixIdLin1ELin1ELi0ELin1ELin1EEELin1ELi1ELb1EEEEElRKNS_9DenseBaseIT_EE, symObjAddr: 0x6BC8, symBinAddr: 0x10000EB44, symSize: 0x24 }
  - { offsetInCU: 0xE6D1, offset: 0x220C1, size: 0x8, addend: 0x0, symName: __ZN5Eigen8internalL13first_alignedILi16ENS_5BlockIKNS_6MatrixIdLin1ELin1ELi0ELin1ELin1EEELin1ELi1ELb1EEEEElRKNS_9DenseBaseIT0_EE, symObjAddr: 0x6D0C, symBinAddr: 0x10000EC88, symSize: 0x28 }
  - { offsetInCU: 0xE751, offset: 0x22141, size: 0x8, addend: 0x0, symName: __ZN5Eigen8internal13first_alignedILi16EdlEET1_PKT0_S2_, symObjAddr: 0x6D70, symBinAddr: 0x10000ECEC, symSize: 0xAC }
  - { offsetInCU: 0xE7F5, offset: 0x221E5, size: 0x8, addend: 0x0, symName: __ZN5Eigen8internal6ploaduI19__simd128_float64_tEET_PKNS0_15unpacket_traitsIS3_E4typeE, symObjAddr: 0x6E1C, symBinAddr: 0x10000ED98, symSize: 0x28 }
  - { offsetInCU: 0xE84A, offset: 0x2223A, size: 0x8, addend: 0x0, symName: __ZN5Eigen8internal4paddI19__simd128_float64_tEET_RKS3_S5_, symObjAddr: 0x6E44, symBinAddr: 0x10000EDC0, symSize: 0x40 }
  - { offsetInCU: 0xE891, offset: 0x22281, size: 0x8, addend: 0x0, symName: __ZN5Eigen8internal6preduxI19__simd128_float64_tEENS0_15unpacket_traitsIT_E4typeERKS4_, symObjAddr: 0x6E84, symBinAddr: 0x10000EE00, symSize: 0x50 }
  - { offsetInCU: 0xE8C9, offset: 0x222B9, size: 0x8, addend: 0x0, symName: __ZN5Eigen8internal24call_assignment_no_aliasINS_6MatrixIdLin1ELin1ELi0ELin1ELin1EEENS_13CwiseBinaryOpINS0_20scalar_difference_opIddEEKS3_KNS_9ReplicateINS4_INS0_18scalar_quotient_opIddEEKNS_16PartialReduxExprIS7_NS0_10member_sumIddEELi0EEEKNS_14CwiseNullaryOpINS0_18scalar_constant_opIdEEKNS2_IdLi1ELin1ELi1ELi1ELin1EEEEEEELin1ELi1EEEEENS0_9assign_opIddEEEEvRT_RKT0_RKT1_, symObjAddr: 0x7D3C, symBinAddr: 0x10000FCB8, symSize: 0x3C }
  - { offsetInCU: 0xE998, offset: 0x22388, size: 0x8, addend: 0x0, symName: __ZN5Eigen8internal18check_for_aliasingINS_6MatrixIdLin1ELin1ELi0ELin1ELin1EEENS_13CwiseBinaryOpINS0_20scalar_difference_opIddEEKS3_KNS_9ReplicateINS4_INS0_18scalar_quotient_opIddEEKNS_16PartialReduxExprIS7_NS0_10member_sumIddEELi0EEEKNS_14CwiseNullaryOpINS0_18scalar_constant_opIdEEKNS2_IdLi1ELin1ELi1ELi1ELin1EEEEEEELin1ELi1EEEEEEEvRKT_RKT0_, symObjAddr: 0x7DB8, symBinAddr: 0x10000FD34, symSize: 0x60 }
  - { offsetInCU: 0xE9E3, offset: 0x223D3, size: 0x8, addend: 0x0, symName: __ZN5Eigen8internal26call_dense_assignment_loopINS_6MatrixIdLin1ELin1ELi0ELin1ELin1EEENS_13CwiseBinaryOpINS0_20scalar_difference_opIddEEKS3_KNS_9ReplicateINS4_INS0_18scalar_quotient_opIddEEKNS_16PartialReduxExprIS7_NS0_10member_sumIddEELi0EEEKNS_14CwiseNullaryOpINS0_18scalar_constant_opIdEEKNS2_IdLi1ELin1ELi1ELi1ELin1EEEEEEELin1ELi1EEEEENS0_9assign_opIddEEEEvRT_RKT0_RKT1_, symObjAddr: 0x7E18, symBinAddr: 0x10000FD94, symSize: 0xE0 }
  - { offsetInCU: 0xEEDC, offset: 0x228CC, size: 0x8, addend: 0x0, symName: __ZN5Eigen8internal17resize_if_allowedINS_6MatrixIdLin1ELin1ELi0ELin1ELin1EEENS_13CwiseBinaryOpINS0_20scalar_difference_opIddEEKS3_KNS_9ReplicateINS4_INS0_18scalar_quotient_opIddEEKNS_16PartialReduxExprIS7_NS0_10member_sumIddEELi0EEEKNS_14CwiseNullaryOpINS0_18scalar_constant_opIdEEKNS2_IdLi1ELin1ELi1ELi1ELin1EEEEEEELin1ELi1EEEEEddEEvRT_RKT0_RKNS0_9assign_opIT1_T2_EE, symObjAddr: 0x7F40, symBinAddr: 0x10000FEBC, symSize: 0xF8 }
  - { offsetInCU: 0xF1B5, offset: 0x22BA5, size: 0x8, addend: 0x0, symName: __ZN5Eigen8internal24call_assignment_no_aliasINS_6MatrixIdLi1ELin1ELi1ELi1ELin1EEENS_13CwiseBinaryOpINS0_18scalar_quotient_opIddEEKNS_16PartialReduxExprIKNS2_IdLin1ELin1ELi0ELin1ELin1EEENS0_10member_sumIddEELi0EEEKNS_14CwiseNullaryOpINS0_18scalar_constant_opIdEEKS3_EEEENS0_9assign_opIddEEEEvRT_RKT0_RKT1_, symObjAddr: 0x8A58, symBinAddr: 0x1000109D4, symSize: 0x3C }
  - { offsetInCU: 0xF284, offset: 0x22C74, size: 0x8, addend: 0x0, symName: __ZN5Eigen8internal18check_for_aliasingINS_6MatrixIdLi1ELin1ELi1ELi1ELin1EEENS_13CwiseBinaryOpINS0_18scalar_quotient_opIddEEKNS_16PartialReduxExprIKNS2_IdLin1ELin1ELi0ELin1ELin1EEENS0_10member_sumIddEELi0EEEKNS_14CwiseNullaryOpINS0_18scalar_constant_opIdEEKS3_EEEEEEvRKT_RKT0_, symObjAddr: 0x8AE8, symBinAddr: 0x100010A64, symSize: 0x14 }
  - { offsetInCU: 0xF2D0, offset: 0x22CC0, size: 0x8, addend: 0x0, symName: __ZN5Eigen8internal26call_dense_assignment_loopINS_6MatrixIdLi1ELin1ELi1ELi1ELin1EEENS_13CwiseBinaryOpINS0_18scalar_quotient_opIddEEKNS_16PartialReduxExprIKNS2_IdLin1ELin1ELi0ELin1ELin1EEENS0_10member_sumIddEELi0EEEKNS_14CwiseNullaryOpINS0_18scalar_constant_opIdEEKS3_EEEENS0_9assign_opIddEEEEvRT_RKT0_RKT1_, symObjAddr: 0x8AFC, symBinAddr: 0x100010A78, symSize: 0xE0 }
  - { offsetInCU: 0xF384, offset: 0x22D74, size: 0x8, addend: 0x0, symName: __ZN5Eigen8internal17resize_if_allowedINS_6MatrixIdLi1ELin1ELi1ELi1ELin1EEENS_13CwiseBinaryOpINS0_18scalar_quotient_opIddEEKNS_16PartialReduxExprIKNS2_IdLin1ELin1ELi0ELin1ELin1EEENS0_10member_sumIddEELi0EEEKNS_14CwiseNullaryOpINS0_18scalar_constant_opIdEEKS3_EEEEddEEvRT_RKT0_RKNS0_9assign_opIT1_T2_EE, symObjAddr: 0x8BDC, symBinAddr: 0x100010B58, symSize: 0xF8 }
  - { offsetInCU: 0xF65D, offset: 0x2304D, size: 0x8, addend: 0x0, symName: __ZN5Eigen8internal24call_assignment_no_aliasINS_6MatrixIdLin1ELin1ELi0ELin1ELin1EEENS_13CwiseBinaryOpINS0_18scalar_quotient_opIddEEKNS_7ProductINS_9TransposeIKS3_EES3_Li0EEEKNS_14CwiseNullaryOpINS0_18scalar_constant_opIdEES9_EEEENS0_9assign_opIddEEEEvRT_RKT0_RKT1_, symObjAddr: 0xA3CC, symBinAddr: 0x100012320, symSize: 0x3C }
  - { offsetInCU: 0xF72C, offset: 0x2311C, size: 0x8, addend: 0x0, symName: __ZN5Eigen8internal18check_for_aliasingINS_6MatrixIdLin1ELin1ELi0ELin1ELin1EEENS_13CwiseBinaryOpINS0_18scalar_quotient_opIddEEKNS_7ProductINS_9TransposeIKS3_EES3_Li0EEEKNS_14CwiseNullaryOpINS0_18scalar_constant_opIdEES9_EEEEEEvRKT_RKT0_, symObjAddr: 0xA448, symBinAddr: 0x10001239C, symSize: 0x60 }
  - { offsetInCU: 0xF777, offset: 0x23167, size: 0x8, addend: 0x0, symName: __ZN5Eigen8internal26call_dense_assignment_loopINS_6MatrixIdLin1ELin1ELi0ELin1ELin1EEENS_13CwiseBinaryOpINS0_18scalar_quotient_opIddEEKNS_7ProductINS_9TransposeIKS3_EES3_Li0EEEKNS_14CwiseNullaryOpINS0_18scalar_constant_opIdEES9_EEEENS0_9assign_opIddEEEEvRT_RKT0_RKT1_, symObjAddr: 0xA4A8, symBinAddr: 0x1000123FC, symSize: 0xD8 }
  - { offsetInCU: 0xF86A, offset: 0x2325A, size: 0x8, addend: 0x0, symName: __ZN5Eigen8internal17resize_if_allowedINS_6MatrixIdLin1ELin1ELi0ELin1ELin1EEENS_13CwiseBinaryOpINS0_18scalar_quotient_opIddEEKNS_7ProductINS_9TransposeIKS3_EES3_Li0EEEKNS_14CwiseNullaryOpINS0_18scalar_constant_opIdEES9_EEEEddEEvRT_RKT0_RKNS0_9assign_opIT1_T2_EE, symObjAddr: 0xA5C8, symBinAddr: 0x10001251C, symSize: 0xF8 }
  - { offsetInCU: 0xFBEB, offset: 0x235DB, size: 0x8, addend: 0x0, symName: __ZN5Eigen8internal22ignore_unused_variableIdEEvRKT_, symObjAddr: 0xB340, symBinAddr: 0x100013294, symSize: 0x10 }
  - { offsetInCU: 0xFC1C, offset: 0x2360C, size: 0x8, addend: 0x0, symName: __ZN5Eigen8internal42call_restricted_packet_assignment_no_aliasINS_6MatrixIdLin1ELin1ELi0ELin1ELin1EEENS_7ProductINS_9TransposeIKS3_EES3_Li1EEENS0_9assign_opIddEEEEvRT_RKT0_RKT1_, symObjAddr: 0xB350, symBinAddr: 0x1000132A4, symSize: 0xD8 }
  - { offsetInCU: 0x10229, offset: 0x23C19, size: 0x8, addend: 0x0, symName: __ZN5Eigen8internal17resize_if_allowedINS_6MatrixIdLin1ELin1ELi0ELin1ELin1EEENS_7ProductINS_9TransposeIKS3_EES3_Li1EEEddEEvRT_RKT0_RKNS0_9assign_opIT1_T2_EE, symObjAddr: 0xB4A8, symBinAddr: 0x1000133FC, symSize: 0xF8 }
  - { offsetInCU: 0x10B45, offset: 0x24535, size: 0x8, addend: 0x0, symName: __ZN5Eigen8internalL21first_default_alignedINS_13CwiseBinaryOpINS0_17scalar_product_opIddEEKNS_9TransposeIKNS_5BlockIKNS5_IKNS_6MatrixIdLin1ELin1ELi0ELin1ELin1EEEEELi1ELin1ELb1EEEEEKNS6_IS9_Lin1ELi1ELb1EEEEEEElRKNS_9DenseBaseIT_EE, symObjAddr: 0xD40C, symBinAddr: 0x100015360, symSize: 0x24 }
  - { offsetInCU: 0x10B7D, offset: 0x2456D, size: 0x8, addend: 0x0, symName: __ZN5Eigen8internalL13first_alignedILi16ENS_13CwiseBinaryOpINS0_17scalar_product_opIddEEKNS_9TransposeIKNS_5BlockIKNS5_IKNS_6MatrixIdLin1ELin1ELi0ELin1ELin1EEEEELi1ELin1ELb1EEEEEKNS6_IS9_Lin1ELi1ELb1EEEEEEElRKNS_9DenseBaseIT0_EE, symObjAddr: 0xD510, symBinAddr: 0x100015464, symSize: 0x28 }
  - { offsetInCU: 0x10BFD, offset: 0x245ED, size: 0x8, addend: 0x0, symName: __ZN5Eigen8internal4pmulI19__simd128_float64_tEET_RKS3_S5_, symObjAddr: 0xD5BC, symBinAddr: 0x100015510, symSize: 0x40 }
  - { offsetInCU: 0x10C44, offset: 0x24634, size: 0x8, addend: 0x0, symName: __ZN5Eigen8internal15call_assignmentINS_6MatrixIdLin1ELin1ELi0ELin1ELin1EEENS_14CwiseNullaryOpINS0_18scalar_constant_opIdEES3_EEEEvRT_RKT0_, symObjAddr: 0xDD28, symBinAddr: 0x100015C7C, symSize: 0x50 }
  - { offsetInCU: 0x10C8F, offset: 0x2467F, size: 0x8, addend: 0x0, symName: __ZN5Eigen8internal15call_assignmentINS_6MatrixIdLin1ELin1ELi0ELin1ELin1EEENS_14CwiseNullaryOpINS0_18scalar_constant_opIdEES3_EENS0_9assign_opIddEEEEvRT_RKT0_RKT1_NS0_9enable_ifIXntsr25evaluator_assume_aliasingISC_EE5valueEPvE4typeE, symObjAddr: 0xDD8C, symBinAddr: 0x100015CE0, symSize: 0x38 }
  - { offsetInCU: 0x10CFE, offset: 0x246EE, size: 0x8, addend: 0x0, symName: __ZN5Eigen8internal24call_assignment_no_aliasINS_6MatrixIdLin1ELin1ELi0ELin1ELin1EEENS_14CwiseNullaryOpINS0_18scalar_constant_opIdEES3_EENS0_9assign_opIddEEEEvRT_RKT0_RKT1_, symObjAddr: 0xDDC4, symBinAddr: 0x100015D18, symSize: 0x3C }
  - { offsetInCU: 0x10DCD, offset: 0x247BD, size: 0x8, addend: 0x0, symName: __ZN5Eigen8internal18check_for_aliasingINS_6MatrixIdLin1ELin1ELi0ELin1ELin1EEENS_14CwiseNullaryOpINS0_18scalar_constant_opIdEES3_EEEEvRKT_RKT0_, symObjAddr: 0xDE40, symBinAddr: 0x100015D94, symSize: 0x60 }
  - { offsetInCU: 0x10E18, offset: 0x24808, size: 0x8, addend: 0x0, symName: __ZN5Eigen8internal26call_dense_assignment_loopINS_6MatrixIdLin1ELin1ELi0ELin1ELin1EEEEEvRT_RKNS_14CwiseNullaryOpINS0_18scalar_constant_opINS4_6ScalarEEES4_EERKNS0_9assign_opIS8_S8_EE, symObjAddr: 0xDEA0, symBinAddr: 0x100015DF4, symSize: 0x6C }
  - { offsetInCU: 0x10EA7, offset: 0x24897, size: 0x8, addend: 0x0, symName: __ZN5Eigen8internal17resize_if_allowedINS_6MatrixIdLin1ELin1ELi0ELin1ELin1EEENS_14CwiseNullaryOpINS0_18scalar_constant_opIdEES3_EEddEEvRT_RKT0_RKNS0_9assign_opIT1_T2_EE, symObjAddr: 0xDF20, symBinAddr: 0x100015E74, symSize: 0xF8 }
  - { offsetInCU: 0x1169F, offset: 0x2508F, size: 0x8, addend: 0x0, symName: __ZN5Eigen8internal16parallelize_gemmILb1ENS0_12gemm_functorIdlNS0_29general_matrix_matrix_productIldLi1ELb0EdLi0ELb0ELi0ELi1EEENS_9TransposeIKNS_6MatrixIdLin1ELin1ELi0ELin1ELin1EEEEES7_S7_NS0_19gemm_blocking_spaceILi0EddLin1ELin1ELin1ELi1ELb0EEEEElEEvRKT0_T1_SG_SG_b, symObjAddr: 0xE444, symBinAddr: 0x100016354, symSize: 0x64 }
  - { offsetInCU: 0x11D93, offset: 0x25783, size: 0x8, addend: 0x0, symName: __ZN5Eigen8internalL21first_default_alignedINS_13CwiseBinaryOpINS0_22scalar_conj_product_opIddEEKNS_9TransposeIKNS_5BlockIKNS5_IKNS_6MatrixIdLin1ELin1ELi0ELin1ELin1EEEEELi1ELin1ELb1EEEEEKNS6_IKNS6_IS9_Lin1ELi1ELb1EEELin1ELi1ELb1EEEEEEElRKNS_9DenseBaseIT_EE, symObjAddr: 0xFE74, symBinAddr: 0x100017D84, symSize: 0x24 }
  - { offsetInCU: 0x11DCB, offset: 0x257BB, size: 0x8, addend: 0x0, symName: __ZN5Eigen8internalL13first_alignedILi16ENS_13CwiseBinaryOpINS0_22scalar_conj_product_opIddEEKNS_9TransposeIKNS_5BlockIKNS5_IKNS_6MatrixIdLin1ELin1ELi0ELin1ELin1EEEEELi1ELin1ELb1EEEEEKNS6_IKNS6_IS9_Lin1ELi1ELb1EEELin1ELi1ELb1EEEEEEElRKNS_9DenseBaseIT0_EE, symObjAddr: 0xFF78, symBinAddr: 0x100017E88, symSize: 0x28 }
  - { offsetInCU: 0x11FAE, offset: 0x2599E, size: 0x8, addend: 0x0, symName: __ZN5Eigen8internal4pmulIdEET_RKS2_S4_, symObjAddr: 0x1017C, symBinAddr: 0x10001808C, symSize: 0x28 }
  - { offsetInCU: 0x120B9, offset: 0x25AA9, size: 0x8, addend: 0x0, symName: __ZN5Eigen8internal5pset1I19__simd128_float64_tEET_RKNS0_15unpacket_traitsIS3_E4typeE, symObjAddr: 0x121D0, symBinAddr: 0x10001A0E0, symSize: 0x44 }
  - { offsetInCU: 0x120F1, offset: 0x25AE1, size: 0x8, addend: 0x0, symName: __ZN5Eigen8internal5pmaddI19__simd128_float64_tEET_RKS3_S5_S5_, symObjAddr: 0x12268, symBinAddr: 0x10001A178, symSize: 0x54 }
  - { offsetInCU: 0x127E0, offset: 0x261D0, size: 0x8, addend: 0x0, symName: __ZN5Eigen8internalL21first_default_alignedINS_13CwiseBinaryOpINS0_22scalar_conj_product_opIddEEKNS_9TransposeIKNS_5BlockIKNS6_IKNS5_IKNS_6MatrixIdLin1ELin1ELi0ELin1ELin1EEEEELi1ELin1ELb1EEELi1ELin1ELb1EEEEEKNS6_IS9_Lin1ELi1ELb1EEEEEEElRKNS_9DenseBaseIT_EE, symObjAddr: 0x13F8C, symBinAddr: 0x10001BE9C, symSize: 0x24 }
  - { offsetInCU: 0x12818, offset: 0x26208, size: 0x8, addend: 0x0, symName: __ZN5Eigen8internalL13first_alignedILi16ENS_13CwiseBinaryOpINS0_22scalar_conj_product_opIddEEKNS_9TransposeIKNS_5BlockIKNS6_IKNS5_IKNS_6MatrixIdLin1ELin1ELi0ELin1ELin1EEEEELi1ELin1ELb1EEELi1ELin1ELb1EEEEEKNS6_IS9_Lin1ELi1ELb1EEEEEEElRKNS_9DenseBaseIT0_EE, symObjAddr: 0x14090, symBinAddr: 0x10001BFA0, symSize: 0x28 }
  - { offsetInCU: 0x1294E, offset: 0x2633E, size: 0x8, addend: 0x0, symName: __ZN5Eigen8internal27computeProductBlockingSizesIddLi1ElEEvRT2_S3_S3_S2_, symObjAddr: 0x15070, symBinAddr: 0x10001CF80, symSize: 0x58 }
  - { offsetInCU: 0x129CA, offset: 0x263BA, size: 0x8, addend: 0x0, symName: __ZN5Eigen8internal24useSpecificBlockingSizesIlEEbRT_S3_S3_, symObjAddr: 0x150C8, symBinAddr: 0x10001CFD8, symSize: 0x44 }
  - { offsetInCU: 0x12A1F, offset: 0x2640F, size: 0x8, addend: 0x0, symName: __ZN5Eigen8internal15queryCacheSizesERiS1_S1_, symObjAddr: 0x15B20, symBinAddr: 0x10001DA30, symSize: 0x34 }
  - { offsetInCU: 0x12A68, offset: 0x26458, size: 0x8, addend: 0x0, symName: __ZN5Eigen8internal27manage_caching_sizes_helperEll, symObjAddr: 0x15B54, symBinAddr: 0x10001DA64, symSize: 0x44 }
  - { offsetInCU: 0x12AA2, offset: 0x26492, size: 0x8, addend: 0x0, symName: __ZN5Eigen8internal22ignore_unused_variableIbEEvRKT_, symObjAddr: 0x15CCC, symBinAddr: 0x10001DB28, symSize: 0x10 }
  - { offsetInCU: 0x12AD3, offset: 0x264C3, size: 0x8, addend: 0x0, symName: __ZN5Eigen8internal22ignore_unused_variableIPNS0_16GemmParallelInfoIlEEEEvRKT_, symObjAddr: 0x16B3C, symBinAddr: 0x10001E998, symSize: 0x10 }
  - { offsetInCU: 0x12B49, offset: 0x26539, size: 0x8, addend: 0x0, symName: __ZN5Eigen8internal10ptransposeERNS0_11PacketBlockI19__simd128_float64_tLi2EEE, symObjAddr: 0x1CF0C, symBinAddr: 0x100024D68, symSize: 0x88 }
  - { offsetInCU: 0x12B92, offset: 0x26582, size: 0x8, addend: 0x0, symName: __ZN5Eigen8internal6pstoreId19__simd128_float64_tEEvPT_RKT0_, symObjAddr: 0x1CF94, symBinAddr: 0x100024DF0, symSize: 0x2C }
  - { offsetInCU: 0x12BFB, offset: 0x265EB, size: 0x8, addend: 0x0, symName: __ZN5Eigen8internal8prefetchIdEEvPKT_, symObjAddr: 0x1CFD8, symBinAddr: 0x100024E34, symSize: 0x18 }
  - { offsetInCU: 0x12FE5, offset: 0x269D5, size: 0x8, addend: 0x0, symName: __ZN5Eigen8internal5ploadI19__simd128_float64_tEET_PKNS0_15unpacket_traitsIS3_E4typeE, symObjAddr: 0x1E470, symBinAddr: 0x1000262CC, symSize: 0x28 }
  - { offsetInCU: 0x1303A, offset: 0x26A2A, size: 0x8, addend: 0x0, symName: __ZN5Eigen8internal7pstoreuId19__simd128_float64_tEEvPT_RKT0_, symObjAddr: 0x1E638, symBinAddr: 0x100026494, symSize: 0x2C }
  - { offsetInCU: 0x130A3, offset: 0x26A93, size: 0x8, addend: 0x0, symName: __ZN5Eigen8internal5pmaddIdEET_RKS2_S4_S4_, symObjAddr: 0x1E7BC, symBinAddr: 0x100026618, symSize: 0x40 }
  - { offsetInCU: 0x130F8, offset: 0x26AE8, size: 0x8, addend: 0x0, symName: __ZN5Eigen8internal4paddIdEET_RKS2_S4_, symObjAddr: 0x1E7FC, symBinAddr: 0x100026658, symSize: 0x28 }
  - { offsetInCU: 0x1313B, offset: 0x26B2B, size: 0x8, addend: 0x0, symName: __ZN5Eigen8internal14aligned_deleteIdEEvPT_m, symObjAddr: 0x1E8C8, symBinAddr: 0x100026724, symSize: 0x34 }
  - { offsetInCU: 0x1317D, offset: 0x26B6D, size: 0x8, addend: 0x0, symName: __ZN5Eigen8internal26destruct_elements_of_arrayIdEEvPT_m, symObjAddr: 0x1E8FC, symBinAddr: 0x100026758, symSize: 0x54 }
  - { offsetInCU: 0x132AC, offset: 0x26C9C, size: 0x8, addend: 0x0, symName: __ZN5Eigen8internal4pdivI19__simd128_float64_tEET_RKS3_S5_, symObjAddr: 0x1EDA4, symBinAddr: 0x100026C00, symSize: 0x40 }
  - { offsetInCU: 0x132F3, offset: 0x26CE3, size: 0x8, addend: 0x0, symName: __ZN5Eigen8internal24call_assignment_no_aliasINS_6MatrixIdLin1ELi1ELi0ELin1ELi1EEENS_12CwiseUnaryOpINS0_14scalar_sqrt_opIdEEKNS_13CwiseBinaryOpINS0_18scalar_quotient_opIddEEKNS_16PartialReduxExprIKNS4_INS0_16scalar_square_opIdEEKNS_12ArrayWrapperINS2_IdLin1ELin1ELi0ELin1ELin1EEEEEEENS0_10member_sumIddEELi0EEEKNS_14CwiseNullaryOpINS0_18scalar_constant_opIdEEKNS_5ArrayIdLi1ELin1ELi1ELi1ELin1EEEEEEEEENS0_9assign_opIddEEEEvRT_RKT0_RKT1_, symObjAddr: 0x1FF90, symBinAddr: 0x100027DEC, symSize: 0x44 }
  - { offsetInCU: 0x133C2, offset: 0x26DB2, size: 0x8, addend: 0x0, symName: __ZN5Eigen8internal18check_for_aliasingINS_9TransposeINS_6MatrixIdLin1ELi1ELi0ELin1ELi1EEEEENS_12CwiseUnaryOpINS0_14scalar_sqrt_opIdEEKNS_13CwiseBinaryOpINS0_18scalar_quotient_opIddEEKNS_16PartialReduxExprIKNS6_INS0_16scalar_square_opIdEEKNS_12ArrayWrapperINS3_IdLin1ELin1ELi0ELin1ELin1EEEEEEENS0_10member_sumIddEELi0EEEKNS_14CwiseNullaryOpINS0_18scalar_constant_opIdEEKNS_5ArrayIdLi1ELin1ELi1ELi1ELin1EEEEEEEEEEEvRKT_RKT0_, symObjAddr: 0x20014, symBinAddr: 0x100027E70, symSize: 0x14 }
  - { offsetInCU: 0x1340E, offset: 0x26DFE, size: 0x8, addend: 0x0, symName: __ZN5Eigen8internal26call_dense_assignment_loopINS_9TransposeINS_6MatrixIdLin1ELi1ELi0ELin1ELi1EEEEENS_12CwiseUnaryOpINS0_14scalar_sqrt_opIdEEKNS_13CwiseBinaryOpINS0_18scalar_quotient_opIddEEKNS_16PartialReduxExprIKNS6_INS0_16scalar_square_opIdEEKNS_12ArrayWrapperINS3_IdLin1ELin1ELi0ELin1ELin1EEEEEEENS0_10member_sumIddEELi0EEEKNS_14CwiseNullaryOpINS0_18scalar_constant_opIdEEKNS_5ArrayIdLi1ELin1ELi1ELi1ELin1EEEEEEEEENS0_9assign_opIddEEEEvRT_RKT0_RKT1_, symObjAddr: 0x20028, symBinAddr: 0x100027E84, symSize: 0xD8 }
  - { offsetInCU: 0x13ACE, offset: 0x274BE, size: 0x8, addend: 0x0, symName: __ZN5Eigen8internal17resize_if_allowedINS_9TransposeINS_6MatrixIdLin1ELi1ELi0ELin1ELi1EEEEENS_12CwiseUnaryOpINS0_14scalar_sqrt_opIdEEKNS_13CwiseBinaryOpINS0_18scalar_quotient_opIddEEKNS_16PartialReduxExprIKNS6_INS0_16scalar_square_opIdEEKNS_12ArrayWrapperINS3_IdLin1ELin1ELi0ELin1ELin1EEEEEEENS0_10member_sumIddEELi0EEEKNS_14CwiseNullaryOpINS0_18scalar_constant_opIdEEKNS_5ArrayIdLi1ELin1ELi1ELi1ELin1EEEEEEEEEddEEvRT_RKT0_RKNS0_9assign_opIT1_T2_EE, symObjAddr: 0x20134, symBinAddr: 0x100027F90, symSize: 0xF8 }
  - { offsetInCU: 0x1461B, offset: 0x2800B, size: 0x8, addend: 0x0, symName: __ZN5Eigen8internalL21first_default_alignedINS_5BlockIKNS_12CwiseUnaryOpINS0_16scalar_square_opIdEEKNS_12ArrayWrapperINS_6MatrixIdLin1ELin1ELi0ELin1ELin1EEEEEEELin1ELi1ELb1EEEEElRKNS_9DenseBaseIT_EE, symObjAddr: 0x21B48, symBinAddr: 0x1000299A4, symSize: 0x24 }
  - { offsetInCU: 0x14653, offset: 0x28043, size: 0x8, addend: 0x0, symName: __ZN5Eigen8internalL13first_alignedILi16ENS_5BlockIKNS_12CwiseUnaryOpINS0_16scalar_square_opIdEEKNS_12ArrayWrapperINS_6MatrixIdLin1ELin1ELi0ELin1ELin1EEEEEEELin1ELi1ELb1EEEEElRKNS_9DenseBaseIT0_EE, symObjAddr: 0x21BDC, symBinAddr: 0x100029A38, symSize: 0x28 }
  - { offsetInCU: 0x14A37, offset: 0x28427, size: 0x8, addend: 0x0, symName: __ZN5Eigen8internalL21first_default_alignedINS_13CwiseBinaryOpINS0_22scalar_conj_product_opIddEEKNS_6MatrixIdLin1ELi1ELi0ELin1ELi1EEES7_EEEElRKNS_9DenseBaseIT_EE, symObjAddr: 0x22FF0, symBinAddr: 0x10002AD94, symSize: 0x24 }
  - { offsetInCU: 0x14A6F, offset: 0x2845F, size: 0x8, addend: 0x0, symName: __ZN5Eigen8internalL13first_alignedILi16ENS_13CwiseBinaryOpINS0_22scalar_conj_product_opIddEEKNS_6MatrixIdLin1ELi1ELi0ELin1ELi1EEES7_EEEElRKNS_9DenseBaseIT0_EE, symObjAddr: 0x230E8, symBinAddr: 0x10002AE8C, symSize: 0x28 }
  - { offsetInCU: 0x14B4B, offset: 0x2853B, size: 0x8, addend: 0x0, symName: __ZN5Eigen8internal28check_static_allocation_sizeIdLi1EEEvv, symObjAddr: 0x23D38, symBinAddr: 0x10002BADC, symSize: 0x4 }
  - { offsetInCU: 0x151C7, offset: 0x28BB7, size: 0x8, addend: 0x0, symName: __ZN5Eigen8internal15call_assignmentINS_6MatrixIdLi1ELin1ELi1ELi1ELin1EEENS_14CwiseNullaryOpINS0_18scalar_constant_opIdEES3_EEEEvRT_RKT0_, symObjAddr: 0x253F0, symBinAddr: 0x10002D194, symSize: 0x50 }
  - { offsetInCU: 0x15212, offset: 0x28C02, size: 0x8, addend: 0x0, symName: __ZN5Eigen8internal15call_assignmentINS_6MatrixIdLi1ELin1ELi1ELi1ELin1EEENS_14CwiseNullaryOpINS0_18scalar_constant_opIdEES3_EENS0_9assign_opIddEEEEvRT_RKT0_RKT1_NS0_9enable_ifIXntsr25evaluator_assume_aliasingISC_EE5valueEPvE4typeE, symObjAddr: 0x25454, symBinAddr: 0x10002D1F8, symSize: 0x38 }
  - { offsetInCU: 0x15281, offset: 0x28C71, size: 0x8, addend: 0x0, symName: __ZN5Eigen8internal24call_assignment_no_aliasINS_6MatrixIdLi1ELin1ELi1ELi1ELin1EEENS_14CwiseNullaryOpINS0_18scalar_constant_opIdEES3_EENS0_9assign_opIddEEEEvRT_RKT0_RKT1_, symObjAddr: 0x2548C, symBinAddr: 0x10002D230, symSize: 0x3C }
  - { offsetInCU: 0x15350, offset: 0x28D40, size: 0x8, addend: 0x0, symName: __ZN5Eigen8internal18check_for_aliasingINS_6MatrixIdLi1ELin1ELi1ELi1ELin1EEENS_14CwiseNullaryOpINS0_18scalar_constant_opIdEES3_EEEEvRKT_RKT0_, symObjAddr: 0x25508, symBinAddr: 0x10002D2AC, symSize: 0x14 }
  - { offsetInCU: 0x1539C, offset: 0x28D8C, size: 0x8, addend: 0x0, symName: __ZN5Eigen8internal26call_dense_assignment_loopINS_6MatrixIdLi1ELin1ELi1ELi1ELin1EEEEEvRT_RKNS_14CwiseNullaryOpINS0_18scalar_constant_opINS4_6ScalarEEES4_EERKNS0_9assign_opIS8_S8_EE, symObjAddr: 0x2551C, symBinAddr: 0x10002D2C0, symSize: 0x6C }
  - { offsetInCU: 0x153ED, offset: 0x28DDD, size: 0x8, addend: 0x0, symName: __ZN5Eigen8internal17resize_if_allowedINS_6MatrixIdLi1ELin1ELi1ELi1ELin1EEENS_14CwiseNullaryOpINS0_18scalar_constant_opIdEES3_EEddEEvRT_RKT0_RKNS0_9assign_opIT1_T2_EE, symObjAddr: 0x25588, symBinAddr: 0x10002D32C, symSize: 0xF8 }
  - { offsetInCU: 0x15A6F, offset: 0x2945F, size: 0x8, addend: 0x0, symName: __ZN5Eigen8internalL21first_default_alignedINS_13CwiseBinaryOpINS0_22scalar_conj_product_opIddEEKNS_9TransposeIKNS_5BlockIKNS5_IKNS_6MatrixIdLin1ELi1ELi0ELin1ELi1EEEEELi1ELin1ELb1EEEEEKNS6_IKNS7_IdLin1ELin1ELi0ELin1ELin1EEELin1ELi1ELb1EEEEEEElRKNS_9DenseBaseIT_EE, symObjAddr: 0x27164, symBinAddr: 0x10002EF08, symSize: 0x24 }
  - { offsetInCU: 0x15AA7, offset: 0x29497, size: 0x8, addend: 0x0, symName: __ZN5Eigen8internalL13first_alignedILi16ENS_13CwiseBinaryOpINS0_22scalar_conj_product_opIddEEKNS_9TransposeIKNS_5BlockIKNS5_IKNS_6MatrixIdLin1ELi1ELi0ELin1ELi1EEEEELi1ELin1ELb1EEEEEKNS6_IKNS7_IdLin1ELin1ELi0ELin1ELin1EEELin1ELi1ELb1EEEEEEElRKNS_9DenseBaseIT0_EE, symObjAddr: 0x27268, symBinAddr: 0x10002F00C, symSize: 0x28 }
  - { offsetInCU: 0x15BDD, offset: 0x295CD, size: 0x8, addend: 0x0, symName: __ZN5Eigen8internalL21first_default_alignedINS_13CwiseBinaryOpINS0_17scalar_product_opIddEEKNS_9TransposeIKNS_7ProductINS5_IKNS_6MatrixIdLin1ELi1ELi0ELin1ELi1EEEEENS7_IdLin1ELin1ELi0ELin1ELin1EEELi0EEEEES9_EEEElRKNS_9DenseBaseIT_EE, symObjAddr: 0x28440, symBinAddr: 0x1000301E4, symSize: 0x24 }
  - { offsetInCU: 0x15C15, offset: 0x29605, size: 0x8, addend: 0x0, symName: __ZN5Eigen8internalL13first_alignedILi16ENS_13CwiseBinaryOpINS0_17scalar_product_opIddEEKNS_9TransposeIKNS_7ProductINS5_IKNS_6MatrixIdLin1ELi1ELi0ELin1ELi1EEEEENS7_IdLin1ELin1ELi0ELin1ELin1EEELi0EEEEES9_EEEElRKNS_9DenseBaseIT0_EE, symObjAddr: 0x28540, symBinAddr: 0x1000302E4, symSize: 0x28 }
  - { offsetInCU: 0x162BA, offset: 0x29CAA, size: 0x8, addend: 0x0, symName: __ZN5EigenL6lastp1E, symObjAddr: 0x4401E8, symBinAddr: 0x100048026, symSize: 0x0 }
  - { offsetInCU: 0x162D3, offset: 0x29CC3, size: 0x8, addend: 0x0, symName: __ZN5EigenL3allE, symObjAddr: 0x4401EB, symBinAddr: 0x100048029, symSize: 0x0 }
  - { offsetInCU: 0x162EC, offset: 0x29CDC, size: 0x8, addend: 0x0, symName: __ZN5EigenL3fixILi1EEE, symObjAddr: 0x4401EA, symBinAddr: 0x100048028, symSize: 0x0 }
  - { offsetInCU: 0x16310, offset: 0x29D00, size: 0x8, addend: 0x0, symName: __ZN5EigenL3fixILi0EEE, symObjAddr: 0x4401EC, symBinAddr: 0x10004802A, symSize: 0x0 }
  - { offsetInCU: 0x16334, offset: 0x29D24, size: 0x8, addend: 0x0, symName: __ZN5EigenL3fixILi2EEE, symObjAddr: 0x4401ED, symBinAddr: 0x10004802B, symSize: 0x0 }
  - { offsetInCU: 0x16358, offset: 0x29D48, size: 0x8, addend: 0x0, symName: __ZN5EigenL3fixILi3EEE, symObjAddr: 0x4401EE, symBinAddr: 0x10004802C, symSize: 0x0 }
  - { offsetInCU: 0x7A890, offset: 0x8E280, size: 0x8, addend: 0x0, symName: __ZN5Eigen6numext8div_ceilIlEET_RKS2_S4_, symObjAddr: 0x15A34, symBinAddr: 0x10001D944, symSize: 0x38 }
  - { offsetInCU: 0x7D3AF, offset: 0x90D9F, size: 0x8, addend: 0x0, symName: __ZNSt3__16fill_nB7v160006IPdldEET_S2_T0_RKT1_, symObjAddr: 0xE018, symBinAddr: 0x100015F6C, symSize: 0x44 }
  - { offsetInCU: 0x7D412, offset: 0x90E02, size: 0x8, addend: 0x0, symName: __ZNSt3__18__fill_nB7v160006IPdldEET_S2_T0_RKT1_, symObjAddr: 0xE104, symBinAddr: 0x100016014, symSize: 0x64 }
  - { offsetInCU: 0x7D475, offset: 0x90E65, size: 0x8, addend: 0x0, symName: __ZNSt3__121__convert_to_integralB7v160006El, symObjAddr: 0xE168, symBinAddr: 0x100016078, symSize: 0x14 }
  - { offsetInCU: 0x7D4A1, offset: 0x90E91, size: 0x8, addend: 0x0, symName: __ZNSt3__13minB7v160006IlEERKT_S3_S3_, symObjAddr: 0x15C4C, symBinAddr: 0x10001DAA8, symSize: 0x2C }
  - { offsetInCU: 0x7D4E4, offset: 0x90ED4, size: 0x8, addend: 0x0, symName: __ZNSt3__13minB7v160006IlNS_6__lessIllEEEERKT_S5_S5_T0_, symObjAddr: 0x15C78, symBinAddr: 0x10001DAD4, symSize: 0x54 }
  - { offsetInCU: 0x82075, offset: 0x95A65, size: 0x8, addend: 0x0, symName: __ZN5Eigen8internal29general_matrix_vector_productIldNS0_22const_blas_data_mapperIdlLi1EEELi1ELb0EdNS2_IdlLi0EEELb0ELi0EE3runEllRKS3_RKS4_Pdld, symObjAddr: 0x108E8, symBinAddr: 0x1000187F8, symSize: 0x17A4 }
  - { offsetInCU: 0x833A6, offset: 0x96D96, size: 0x8, addend: 0x0, symName: __ZN5Eigen8internal13gemm_pack_lhsIdlNS0_22const_blas_data_mapperIdlLi1EEELi6ELi2E19__simd128_float64_tLi1ELb0ELb0EEclEPdRKS3_llll, symObjAddr: 0x16B7C, symBinAddr: 0x10001E9D8, symSize: 0x878 }
  - { offsetInCU: 0x83855, offset: 0x97245, size: 0x8, addend: 0x0, symName: __ZN5Eigen8internal11gebp_kernelIddlNS0_16blas_data_mapperIdlLi0ELi0ELi1EEELi6ELi4ELb0ELb0EEclERKS3_PKdS8_llldllll, symObjAddr: 0x17B04, symBinAddr: 0x10001F960, symSize: 0x5408 }
  - { offsetInCU: 0x8677F, offset: 0x9A16F, size: 0x8, addend: 0x0, symName: __ZN5Eigen8internal21dense_assignment_loopINS0_31generic_dense_assignment_kernelINS0_9evaluatorINS_6MatrixIdLin1ELin1ELi0ELin1ELin1EEEEENS3_INS_13CwiseBinaryOpINS0_18scalar_quotient_opIddEEKNS_7ProductINS_9TransposeIKS5_EES5_Li0EEEKNS_14CwiseNullaryOpINS0_18scalar_constant_opIdEESC_EEEEEENS0_9assign_opIddEELi0EEELi3ELi0EE3runERSP_, symObjAddr: 0xA70C, symBinAddr: 0x100012660, symSize: 0xA8 }
  - { offsetInCU: 0x876C2, offset: 0x9B0B2, size: 0x8, addend: 0x0, symName: __ZN5Eigen8internal19gemv_dense_selectorILi2ELi1ELb1EE3runINS_9TransposeIKNS_6MatrixIdLin1ELin1ELi0ELin1ELin1EEEEENS_5BlockIS7_Lin1ELi1ELb1EEENS9_IS6_Lin1ELi1ELb1EEEEEvRKT_RKT0_RT1_RKNSI_6ScalarE, symObjAddr: 0xEA38, symBinAddr: 0x100016948, symSize: 0x46C }
  - { offsetInCU: 0x87B83, offset: 0x9B573, size: 0x8, addend: 0x0, symName: __ZN5Eigen8internal19gemv_dense_selectorILi2ELi1ELb1EE3runINS_9TransposeIKNS_6MatrixIdLin1ELin1ELi0ELin1ELin1EEEEENS4_IKNS_5BlockIKS8_Li1ELin1ELb1EEEEENS4_INS9_IS6_Li1ELin1ELb0EEEEEEEvRKT_RKT0_RT1_RKNSM_6ScalarE, symObjAddr: 0x14394, symBinAddr: 0x10001C2A4, symSize: 0x478 }
  - { offsetInCU: 0x88965, offset: 0x9C355, size: 0x8, addend: 0x0, symName: __ZN5Eigen8internal19gemv_dense_selectorILi2ELi1ELb1EE3runINS_9TransposeIKNS_6MatrixIdLin1ELin1ELi0ELin1ELin1EEEEENS4_IKNS4_IKNS5_IdLin1ELi1ELi0ELin1ELi1EEEEEEENS4_INS5_IdLi1ELin1ELi1ELi1ELin1EEEEEEEvRKT_RKT0_RT1_RKNSM_6ScalarE, symObjAddr: 0x274D4, symBinAddr: 0x10002F278, symSize: 0x47C }
  - { offsetInCU: 0x8AB05, offset: 0x9E4F5, size: 0x8, addend: 0x0, symName: __ZN10Statistics16calculateReturnsERKN5Eigen6MatrixIdLin1ELin1ELi0ELin1ELin1EEE, symObjAddr: 0xB0, symBinAddr: 0x1000084FC, symSize: 0x1EC }
  - { offsetInCU: 0x8AB5D, offset: 0x9E54D, size: 0x8, addend: 0x0, symName: __ZN5Eigen6MatrixIdLin1ELin1ELi0ELin1ELin1EEC1IllEERKT_RKT0_, symObjAddr: 0x2E4, symBinAddr: 0x1000086E8, symSize: 0x3C }
  - { offsetInCU: 0x8ABB7, offset: 0x9E5A7, size: 0x8, addend: 0x0, symName: __ZNK5Eigen9DenseBaseINS_6MatrixIdLin1ELin1ELi0ELin1ELin1EEEE3rowEl, symObjAddr: 0x320, symBinAddr: 0x100008724, symSize: 0x3C }
  - { offsetInCU: 0x8ABEC, offset: 0x9E5DC, size: 0x8, addend: 0x0, symName: __ZNK5Eigen10MatrixBaseINS_5BlockIKNS_6MatrixIdLin1ELin1ELi0ELin1ELin1EEELi1ELin1ELb0EEEEmiIS5_EEKNS_13CwiseBinaryOpINS_8internal20scalar_difference_opIdNS9_6traitsIT_E6ScalarEEEKS5_KSC_EERKNS0_ISC_EE, symObjAddr: 0x35C, symBinAddr: 0x100008760, symSize: 0x60 }
  - { offsetInCU: 0x8AC29, offset: 0x9E619, size: 0x8, addend: 0x0, symName: __ZNK5Eigen10MatrixBaseINS_13CwiseBinaryOpINS_8internal20scalar_difference_opIddEEKNS_5BlockIKNS_6MatrixIdLin1ELin1ELi0ELin1ELin1EEELi1ELin1ELb0EEESA_EEE13cwiseQuotientIS9_EEKNS1_INS2_18scalar_quotient_opIddEEKSB_KT_EERKNS0_ISH_EE, symObjAddr: 0x3BC, symBinAddr: 0x1000087C0, symSize: 0x60 }
  - { offsetInCU: 0x8AC66, offset: 0x9E656, size: 0x8, addend: 0x0, symName: __ZN5Eigen9DenseBaseINS_6MatrixIdLin1ELin1ELi0ELin1ELin1EEEE3rowEl, symObjAddr: 0x41C, symBinAddr: 0x100008820, symSize: 0x3C }
  - { offsetInCU: 0x8AC9B, offset: 0x9E68B, size: 0x8, addend: 0x0, symName: __ZN5Eigen5BlockINS_6MatrixIdLin1ELin1ELi0ELin1ELin1EEELi1ELin1ELb0EEaSINS_13CwiseBinaryOpINS_8internal18scalar_quotient_opIddEEKNS5_INS6_20scalar_difference_opIddEEKNS0_IKS2_Li1ELin1ELb0EEESD_EESD_EEEERS3_RKNS_9DenseBaseIT_EE, symObjAddr: 0x458, symBinAddr: 0x10000885C, symSize: 0x40 }
  - { offsetInCU: 0x8ACD8, offset: 0x9E6C8, size: 0x8, addend: 0x0, symName: __ZN10Statistics16meanDailyReturnsERKN5Eigen6MatrixIdLin1ELin1ELi0ELin1ELin1EEE, symObjAddr: 0x4C4, symBinAddr: 0x10000889C, symSize: 0x84 }
  - { offsetInCU: 0x8ACFD, offset: 0x9E6ED, size: 0x8, addend: 0x0, symName: __ZNK5Eigen9DenseBaseINS_6MatrixIdLin1ELin1ELi0ELin1ELin1EEEE7colwiseEv, symObjAddr: 0x548, symBinAddr: 0x100008920, symSize: 0x34 }
  - { offsetInCU: 0x8AD23, offset: 0x9E713, size: 0x8, addend: 0x0, symName: __ZNK5Eigen12VectorwiseOpIKNS_6MatrixIdLin1ELin1ELi0ELin1ELin1EEELi0EE4meanEv, symObjAddr: 0x57C, symBinAddr: 0x100008954, symSize: 0x60 }
  - { offsetInCU: 0x8AD4E, offset: 0x9E73E, size: 0x8, addend: 0x0, symName: __ZN5Eigen6MatrixIdLin1ELi1ELi0ELin1ELi1EEC1INS_13CwiseBinaryOpINS_8internal18scalar_quotient_opIddEEKNS_16PartialReduxExprIKNS0_IdLin1ELin1ELi0ELin1ELin1EEENS4_10member_sumIddEELi0EEEKNS_14CwiseNullaryOpINS4_18scalar_constant_opIdEEKNS0_IdLi1ELin1ELi1ELi1ELin1EEEEEEEEERKNS_9EigenBaseIT_EE, symObjAddr: 0x5DC, symBinAddr: 0x1000089B4, symSize: 0x34 }
  - { offsetInCU: 0x8AD90, offset: 0x9E780, size: 0x8, addend: 0x0, symName: __ZN10Statistics16covarianceMatrixERKN5Eigen6MatrixIdLin1ELin1ELi0ELin1ELin1EEE, symObjAddr: 0x610, symBinAddr: 0x1000089E8, symSize: 0x164 }
  - { offsetInCU: 0x8ADD4, offset: 0x9E7C4, size: 0x8, addend: 0x0, symName: __ZNK5Eigen9DenseBaseINS_6MatrixIdLin1ELin1ELi0ELin1ELin1EEEE7rowwiseEv, symObjAddr: 0x774, symBinAddr: 0x100008B4C, symSize: 0x34 }
  - { offsetInCU: 0x8ADFA, offset: 0x9E7EA, size: 0x8, addend: 0x0, symName: __ZNK5Eigen12VectorwiseOpIKNS_6MatrixIdLin1ELin1ELi0ELin1ELin1EEELi1EEmiINS_13CwiseBinaryOpINS_8internal18scalar_quotient_opIddEEKNS_16PartialReduxExprIS3_NS7_10member_sumIddEELi0EEEKNS_14CwiseNullaryOpINS7_18scalar_constant_opIdEEKNS1_IdLi1ELin1ELi1ELi1ELin1EEEEEEEEENS6_INS7_20scalar_difference_opIdNT_6ScalarEEES3_KNS4_12ExtendedTypeISO_E4TypeEEERKNS_9DenseBaseISO_EE, symObjAddr: 0x7A8, symBinAddr: 0x100008B80, symSize: 0x98 }
  - { offsetInCU: 0x8AE3D, offset: 0x9E82D, size: 0x8, addend: 0x0, symName: __ZN5Eigen6MatrixIdLin1ELin1ELi0ELin1ELin1EEC1INS_13CwiseBinaryOpINS_8internal20scalar_difference_opIddEEKS1_KNS_9ReplicateINS3_INS4_18scalar_quotient_opIddEEKNS_16PartialReduxExprIS7_NS4_10member_sumIddEELi0EEEKNS_14CwiseNullaryOpINS4_18scalar_constant_opIdEEKNS0_IdLi1ELin1ELi1ELi1ELin1EEEEEEELin1ELi1EEEEEEERKNS_9EigenBaseIT_EE, symObjAddr: 0x840, symBinAddr: 0x100008C18, symSize: 0x34 }
  - { offsetInCU: 0x8AE7F, offset: 0x9E86F, size: 0x8, addend: 0x0, symName: __ZNK5Eigen10MatrixBaseINS_6MatrixIdLin1ELin1ELi0ELin1ELin1EEEE7adjointEv, symObjAddr: 0x874, symBinAddr: 0x100008C4C, symSize: 0x2C }
  - { offsetInCU: 0x8AEA7, offset: 0x9E897, size: 0x8, addend: 0x0, symName: __ZNK5Eigen10MatrixBaseINS_9TransposeIKNS_6MatrixIdLin1ELin1ELi0ELin1ELin1EEEEEEmlIS3_EEKNS_7ProductIS5_T_Li0EEERKNS0_IS9_EE, symObjAddr: 0x8A0, symBinAddr: 0x100008C78, symSize: 0x4C }
  - { offsetInCU: 0x8AEE7, offset: 0x9E8D7, size: 0x8, addend: 0x0, symName: __ZNK5Eigen10MatrixBaseINS_7ProductINS_9TransposeIKNS_6MatrixIdLin1ELin1ELi0ELin1ELin1EEEEES4_Li0EEEEdvIdEEKNS_13CwiseBinaryOpINS_8internal18scalar_quotient_opIdNSB_18promote_scalar_argIdT_Xsr5Eigen8internal14has_ReturnTypeINS_20ScalarBinaryOpTraitsIdSE_NSC_IdSE_EEEEEE5valueEE4typeEEEKS7_KNSB_19plain_constant_typeIS7_SJ_E4typeEEERKSE_, symObjAddr: 0x8EC, symBinAddr: 0x100008CC4, symSize: 0xA8 }
  - { offsetInCU: 0x8AF29, offset: 0x9E919, size: 0x8, addend: 0x0, symName: __ZN5Eigen6MatrixIdLin1ELin1ELi0ELin1ELin1EEC1INS_13CwiseBinaryOpINS_8internal18scalar_quotient_opIddEEKNS_7ProductINS_9TransposeIKS1_EES1_Li0EEEKNS_14CwiseNullaryOpINS4_18scalar_constant_opIdEES9_EEEEEERKNS_9EigenBaseIT_EE, symObjAddr: 0x994, symBinAddr: 0x100008D6C, symSize: 0x34 }
  - { offsetInCU: 0x8AF6B, offset: 0x9E95B, size: 0x8, addend: 0x0, symName: __ZN10Statistics10volatilityERKN5Eigen6MatrixIdLin1ELin1ELi0ELin1ELin1EEE, symObjAddr: 0x9C8, symBinAddr: 0x100008DA0, symSize: 0x170 }
  - { offsetInCU: 0x8AFA0, offset: 0x9E990, size: 0x8, addend: 0x0, symName: __ZN5Eigen10MatrixBaseINS_6MatrixIdLin1ELin1ELi0ELin1ELin1EEEE5arrayEv, symObjAddr: 0xB38, symBinAddr: 0x100008F10, symSize: 0x34 }
  - { offsetInCU: 0x8AFC6, offset: 0x9E9B6, size: 0x8, addend: 0x0, symName: __ZNK5Eigen9ArrayBaseINS_12ArrayWrapperINS_6MatrixIdLin1ELin1ELi0ELin1ELin1EEEEEE6squareEv, symObjAddr: 0xB6C, symBinAddr: 0x100008F44, symSize: 0x4C }
  - { offsetInCU: 0x8AFEC, offset: 0x9E9DC, size: 0x8, addend: 0x0, symName: __ZNK5Eigen9DenseBaseINS_12CwiseUnaryOpINS_8internal16scalar_square_opIdEEKNS_12ArrayWrapperINS_6MatrixIdLin1ELin1ELi0ELin1ELin1EEEEEEEE7colwiseEv, symObjAddr: 0xBB8, symBinAddr: 0x100008F90, symSize: 0x38 }
  - { offsetInCU: 0x8B012, offset: 0x9EA02, size: 0x8, addend: 0x0, symName: __ZNK5Eigen12VectorwiseOpIKNS_12CwiseUnaryOpINS_8internal16scalar_square_opIdEEKNS_12ArrayWrapperINS_6MatrixIdLin1ELin1ELi0ELin1ELin1EEEEEEELi0EE3sumEv, symObjAddr: 0xBF0, symBinAddr: 0x100008FC8, symSize: 0x4C }
  - { offsetInCU: 0x8B038, offset: 0x9EA28, size: 0x8, addend: 0x0, symName: __ZNK5Eigen9ArrayBaseINS_16PartialReduxExprIKNS_12CwiseUnaryOpINS_8internal16scalar_square_opIdEEKNS_12ArrayWrapperINS_6MatrixIdLin1ELin1ELi0ELin1ELin1EEEEEEENS3_10member_sumIddEELi0EEEEdvIdEEKNS_13CwiseBinaryOpINS3_18scalar_quotient_opIdNS3_18promote_scalar_argIdT_Xsr5Eigen8internal14has_ReturnTypeINS_20ScalarBinaryOpTraitsIdSL_NSJ_IdSL_EEEEEE5valueEE4typeEEEKSF_KNS3_19plain_constant_typeISF_SQ_E4typeEEERKSL_, symObjAddr: 0xC3C, symBinAddr: 0x100009014, symSize: 0xA8 }
  - { offsetInCU: 0x8B075, offset: 0x9EA65, size: 0x8, addend: 0x0, symName: __ZNK5Eigen9ArrayBaseINS_13CwiseBinaryOpINS_8internal18scalar_quotient_opIddEEKNS_16PartialReduxExprIKNS_12CwiseUnaryOpINS2_16scalar_square_opIdEEKNS_12ArrayWrapperINS_6MatrixIdLin1ELin1ELi0ELin1ELin1EEEEEEENS2_10member_sumIddEELi0EEEKNS_14CwiseNullaryOpINS2_18scalar_constant_opIdEEKNS_5ArrayIdLi1ELin1ELi1ELi1ELin1EEEEEEEE4sqrtEv, symObjAddr: 0xCE4, symBinAddr: 0x1000090BC, symSize: 0x4C }
  - { offsetInCU: 0x8B0A0, offset: 0x9EA90, size: 0x8, addend: 0x0, symName: __ZN5Eigen6MatrixIdLin1ELi1ELi0ELin1ELi1EEC1INS_12CwiseUnaryOpINS_8internal14scalar_sqrt_opIdEEKNS_13CwiseBinaryOpINS4_18scalar_quotient_opIddEEKNS_16PartialReduxExprIKNS3_INS4_16scalar_square_opIdEEKNS_12ArrayWrapperINS0_IdLin1ELin1ELi0ELin1ELin1EEEEEEENS4_10member_sumIddEELi0EEEKNS_14CwiseNullaryOpINS4_18scalar_constant_opIdEEKNS_5ArrayIdLi1ELin1ELi1ELi1ELin1EEEEEEEEEEERKNS_9EigenBaseIT_EE, symObjAddr: 0xD30, symBinAddr: 0x100009108, symSize: 0x34 }
  - { offsetInCU: 0x8B0E2, offset: 0x9EAD2, size: 0x8, addend: 0x0, symName: __ZN10Statistics17correlationMatrixERKN5Eigen6MatrixIdLin1ELin1ELi0ELin1ELin1EEE, symObjAddr: 0xD64, symBinAddr: 0x10000913C, symSize: 0x23C }
  - { offsetInCU: 0x8B15C, offset: 0x9EB4C, size: 0x8, addend: 0x0, symName: __ZN5Eigen15DenseCoeffsBaseINS_6MatrixIdLin1ELin1ELi0ELin1ELin1EEELi1EEclEll, symObjAddr: 0xFA0, symBinAddr: 0x100009378, symSize: 0xF4 }
  - { offsetInCU: 0x8B1A0, offset: 0x9EB90, size: 0x8, addend: 0x0, symName: __ZN5Eigen15DenseCoeffsBaseINS_6MatrixIdLin1ELi1ELi0ELin1ELi1EEELi1EEclEl, symObjAddr: 0x1094, symBinAddr: 0x10000946C, symSize: 0xA4 }
  - { offsetInCU: 0x8B1D5, offset: 0x9EBC5, size: 0x8, addend: 0x0, symName: __ZN10Statistics23portfolioExpectedReturnERKN5Eigen6MatrixIdLin1ELi1ELi0ELin1ELi1EEES4_, symObjAddr: 0x1164, symBinAddr: 0x100009510, symSize: 0x2C }
  - { offsetInCU: 0x8B208, offset: 0x9EBF8, size: 0x8, addend: 0x0, symName: __ZNK5Eigen10MatrixBaseINS_6MatrixIdLin1ELi1ELi0ELin1ELi1EEEE3dotIS2_EENS_20ScalarBinaryOpTraitsIdNS_8internal6traitsIT_E6ScalarENS6_17scalar_product_opIdSA_EEE10ReturnTypeERKNS0_IS8_EE, symObjAddr: 0x1190, symBinAddr: 0x10000953C, symSize: 0x80 }
  - { offsetInCU: 0x8B247, offset: 0x9EC37, size: 0x8, addend: 0x0, symName: __ZN10Statistics17portfolioVarianceERKN5Eigen6MatrixIdLin1ELi1ELi0ELin1ELi1EEERKNS1_IdLin1ELin1ELi0ELin1ELin1EEE, symObjAddr: 0x1210, symBinAddr: 0x1000095BC, symSize: 0x64 }
  - { offsetInCU: 0x8B27A, offset: 0x9EC6A, size: 0x8, addend: 0x0, symName: __ZNK5Eigen9DenseBaseINS_6MatrixIdLin1ELi1ELi0ELin1ELi1EEEE9transposeEv, symObjAddr: 0x1274, symBinAddr: 0x100009620, symSize: 0x34 }
  - { offsetInCU: 0x8B2A2, offset: 0x9EC92, size: 0x8, addend: 0x0, symName: __ZNK5Eigen10MatrixBaseINS_9TransposeIKNS_6MatrixIdLin1ELi1ELi0ELin1ELi1EEEEEEmlINS2_IdLin1ELin1ELi0ELin1ELin1EEEEEKNS_7ProductIS5_T_Li0EEERKNS0_ISA_EE, symObjAddr: 0x12A8, symBinAddr: 0x100009654, symSize: 0x4C }
  - { offsetInCU: 0x8B2E2, offset: 0x9ECD2, size: 0x8, addend: 0x0, symName: __ZNK5Eigen10MatrixBaseINS_7ProductINS_9TransposeIKNS_6MatrixIdLin1ELi1ELi0ELin1ELi1EEEEENS3_IdLin1ELin1ELi0ELin1ELin1EEELi0EEEEmlIS4_EEKNS1_IS8_T_Li0EEERKNS0_ISB_EE, symObjAddr: 0x12F4, symBinAddr: 0x1000096A0, symSize: 0x48 }
  - { offsetInCU: 0x8B322, offset: 0x9ED12, size: 0x8, addend: 0x0, symName: __ZNK5Eigen8internal18dense_product_baseINS_7ProductINS_9TransposeIKNS_6MatrixIdLin1ELi1ELi0ELin1ELi1EEEEENS4_IdLin1ELin1ELi0ELin1ELin1EEELi0EEES5_Li0ELi6EEcvKdEv, symObjAddr: 0x133C, symBinAddr: 0x1000096E8, symSize: 0x84 }
  - { offsetInCU: 0x8B348, offset: 0x9ED38, size: 0x8, addend: 0x0, symName: __ZN10Statistics26portfolioStandardDeviationERKN5Eigen6MatrixIdLin1ELi1ELi0ELin1ELi1EEERKNS1_IdLin1ELin1ELi0ELin1ELin1EEE, symObjAddr: 0x13C0, symBinAddr: 0x10000976C, symSize: 0x30 }
  - { offsetInCU: 0x8B37B, offset: 0x9ED6B, size: 0x8, addend: 0x0, symName: __ZN10Statistics20portfolioSharpeRatioERKN5Eigen6MatrixIdLin1ELi1ELi0ELin1ELi1EEES4_RKNS1_IdLin1ELin1ELi0ELin1ELin1EEEd, symObjAddr: 0x13F0, symBinAddr: 0x10000979C, symSize: 0x5C }
  - { offsetInCU: 0x8B3E6, offset: 0x9EDD6, size: 0x8, addend: 0x0, symName: __ZN5Eigen8internal8FixedIntILi0EEC1Ev, symObjAddr: 0x1478, symBinAddr: 0x1000097F8, symSize: 0x2C }
  - { offsetInCU: 0x8B410, offset: 0x9EE00, size: 0x8, addend: 0x0, symName: __ZN5Eigen8internal8FixedIntILi2EEC1Ev, symObjAddr: 0x14A4, symBinAddr: 0x100009824, symSize: 0x2C }
  - { offsetInCU: 0x8B43A, offset: 0x9EE2A, size: 0x8, addend: 0x0, symName: __ZN5Eigen8internal8FixedIntILi3EEC1Ev, symObjAddr: 0x14D0, symBinAddr: 0x100009850, symSize: 0x2C }
  - { offsetInCU: 0x8B464, offset: 0x9EE54, size: 0x8, addend: 0x0, symName: __ZN5Eigen6MatrixIdLin1ELin1ELi0ELin1ELin1EEC2IllEERKT_RKT0_, symObjAddr: 0x1820, symBinAddr: 0x10000987C, symSize: 0x80 }
  - { offsetInCU: 0x8B4BE, offset: 0x9EEAE, size: 0x8, addend: 0x0, symName: __ZN5Eigen15PlainObjectBaseINS_6MatrixIdLin1ELin1ELi0ELin1ELin1EEEEC2Ev, symObjAddr: 0x18A0, symBinAddr: 0x1000098FC, symSize: 0x34 }
  - { offsetInCU: 0x8B4E8, offset: 0x9EED8, size: 0x8, addend: 0x0, symName: __ZN5Eigen15PlainObjectBaseINS_6MatrixIdLin1ELin1ELi0ELin1ELin1EEEE22_check_template_paramsEv, symObjAddr: 0x18D4, symBinAddr: 0x100009930, symSize: 0x4 }
  - { offsetInCU: 0x8B501, offset: 0x9EEF1, size: 0x8, addend: 0x0, symName: __ZN5Eigen15PlainObjectBaseINS_6MatrixIdLin1ELin1ELi0ELin1ELin1EEEE6_init2IllEEvllPNS_8internal9enable_ifILb1ET_E4typeE, symObjAddr: 0x18D8, symBinAddr: 0x100009934, symSize: 0x44 }
  - { offsetInCU: 0x8B581, offset: 0x9EF71, size: 0x8, addend: 0x0, symName: __ZN5Eigen10MatrixBaseINS_6MatrixIdLin1ELin1ELi0ELin1ELin1EEEEC2Ev, symObjAddr: 0x191C, symBinAddr: 0x100009978, symSize: 0x2C }
  - { offsetInCU: 0x8B5AB, offset: 0x9EF9B, size: 0x8, addend: 0x0, symName: __ZN5Eigen12DenseStorageIdLin1ELin1ELin1ELi0EEC1Ev, symObjAddr: 0x1948, symBinAddr: 0x1000099A4, symSize: 0x2C }
  - { offsetInCU: 0x8B5D5, offset: 0x9EFC5, size: 0x8, addend: 0x0, symName: __ZN5Eigen9DenseBaseINS_6MatrixIdLin1ELin1ELi0ELin1ELin1EEEEC2Ev, symObjAddr: 0x1974, symBinAddr: 0x1000099D0, symSize: 0x14 }
  - { offsetInCU: 0x8B5FF, offset: 0x9EFEF, size: 0x8, addend: 0x0, symName: __ZN5Eigen12DenseStorageIdLin1ELin1ELin1ELi0EEC2Ev, symObjAddr: 0x1988, symBinAddr: 0x1000099E4, symSize: 0x20 }
  - { offsetInCU: 0x8B66A, offset: 0x9F05A, size: 0x8, addend: 0x0, symName: __ZN5Eigen15PlainObjectBaseINS_6MatrixIdLin1ELin1ELi0ELin1ELin1EEEE6resizeEll, symObjAddr: 0x19A8, symBinAddr: 0x100009A04, symSize: 0x14C }
  - { offsetInCU: 0x8B6E9, offset: 0x9F0D9, size: 0x8, addend: 0x0, symName: __ZN5Eigen12DenseStorageIdLin1ELin1ELin1ELi0EE6resizeElll, symObjAddr: 0x1AF4, symBinAddr: 0x100009B50, symSize: 0xB4 }
  - { offsetInCU: 0x8B73C, offset: 0x9F12C, size: 0x8, addend: 0x0, symName: __ZN5Eigen9EigenBaseINS_6MatrixIdLin1ELin1ELi0ELin1ELin1EEEE7derivedEv, symObjAddr: 0x1D64, symBinAddr: 0x100009DC0, symSize: 0x14 }
  - { offsetInCU: 0x8B762, offset: 0x9F152, size: 0x8, addend: 0x0, symName: __ZN5Eigen5BlockINS_6MatrixIdLin1ELin1ELi0ELin1ELin1EEELi1ELin1ELb0EEC1ERS2_l, symObjAddr: 0x1D78, symBinAddr: 0x100009DD4, symSize: 0x3C }
  - { offsetInCU: 0x8B7A8, offset: 0x9F198, size: 0x8, addend: 0x0, symName: __ZN5Eigen5BlockINS_6MatrixIdLin1ELin1ELi0ELin1ELin1EEELi1ELin1ELb0EEC2ERS2_l, symObjAddr: 0x1DB4, symBinAddr: 0x100009E10, symSize: 0xCC }
  - { offsetInCU: 0x8B7EE, offset: 0x9F1DE, size: 0x8, addend: 0x0, symName: __ZN5Eigen9BlockImplINS_6MatrixIdLin1ELin1ELi0ELin1ELin1EEELi1ELin1ELb0ENS_5DenseEEC2ERS2_l, symObjAddr: 0x1E80, symBinAddr: 0x100009EDC, symSize: 0x3C }
  - { offsetInCU: 0x8B834, offset: 0x9F224, size: 0x8, addend: 0x0, symName: __ZN5Eigen8internal15BlockImpl_denseINS_6MatrixIdLin1ELin1ELi0ELin1ELin1EEELi1ELin1ELb0ELb1EEC2ERS3_l, symObjAddr: 0x1EBC, symBinAddr: 0x100009F18, symSize: 0xAC }
  - { offsetInCU: 0x8B87C, offset: 0x9F26C, size: 0x8, addend: 0x0, symName: __ZN5Eigen15PlainObjectBaseINS_6MatrixIdLin1ELin1ELi0ELin1ELin1EEEE4dataEv, symObjAddr: 0x1F68, symBinAddr: 0x100009FC4, symSize: 0x24 }
  - { offsetInCU: 0x8B8A2, offset: 0x9F292, size: 0x8, addend: 0x0, symName: __ZNK5Eigen6MatrixIdLin1ELin1ELi0ELin1ELin1EE11innerStrideEv, symObjAddr: 0x1F8C, symBinAddr: 0x100009FE8, symSize: 0x14 }
  - { offsetInCU: 0x8B8C8, offset: 0x9F2B8, size: 0x8, addend: 0x0, symName: __ZN5Eigen7MapBaseINS_5BlockINS_6MatrixIdLin1ELin1ELi0ELin1ELin1EEELi1ELin1ELb0EEELi1EEC2EPdll, symObjAddr: 0x1FA0, symBinAddr: 0x100009FFC, symSize: 0x44 }
  - { offsetInCU: 0x8B91F, offset: 0x9F30F, size: 0x8, addend: 0x0, symName: __ZN5Eigen8internal19variable_if_dynamicIlLin1EEC1El, symObjAddr: 0x1FE4, symBinAddr: 0x10000A040, symSize: 0x34 }
  - { offsetInCU: 0x8B957, offset: 0x9F347, size: 0x8, addend: 0x0, symName: __ZN5Eigen8internal15BlockImpl_denseINS_6MatrixIdLin1ELin1ELi0ELin1ELin1EEELi1ELin1ELb0ELb1EE4initEv, symObjAddr: 0x2018, symBinAddr: 0x10000A074, symSize: 0x34 }
  - { offsetInCU: 0x8B97D, offset: 0x9F36D, size: 0x8, addend: 0x0, symName: __ZN5Eigen12DenseStorageIdLin1ELin1ELin1ELi0EE4dataEv, symObjAddr: 0x204C, symBinAddr: 0x10000A0A8, symSize: 0x18 }
  - { offsetInCU: 0x8B9A3, offset: 0x9F393, size: 0x8, addend: 0x0, symName: __ZN5Eigen7MapBaseINS_5BlockINS_6MatrixIdLin1ELin1ELi0ELin1ELin1EEELi1ELin1ELb0EEELi0EEC2EPdll, symObjAddr: 0x2064, symBinAddr: 0x10000A0C0, symSize: 0x130 }
  - { offsetInCU: 0x8B9F7, offset: 0x9F3E7, size: 0x8, addend: 0x0, symName: __ZN5Eigen10MatrixBaseINS_5BlockINS_6MatrixIdLin1ELin1ELi0ELin1ELin1EEELi1ELin1ELb0EEEEC2Ev, symObjAddr: 0x2194, symBinAddr: 0x10000A1F0, symSize: 0x2C }
  - { offsetInCU: 0x8BA21, offset: 0x9F411, size: 0x8, addend: 0x0, symName: __ZN5Eigen8internal19variable_if_dynamicIlLi1EEC1El, symObjAddr: 0x21C0, symBinAddr: 0x10000A21C, symSize: 0x34 }
  - { offsetInCU: 0x8BA59, offset: 0x9F449, size: 0x8, addend: 0x0, symName: __ZNK5Eigen7MapBaseINS_5BlockINS_6MatrixIdLin1ELin1ELi0ELin1ELin1EEELi1ELin1ELb0EEELi0EE11checkSanityIS4_EEvNS_8internal9enable_ifIXeqsr8internal6traitsIT_EE9AlignmentLi0EEPvE4typeE, symObjAddr: 0x21F4, symBinAddr: 0x10000A250, symSize: 0x14 }
  - { offsetInCU: 0x8BA93, offset: 0x9F483, size: 0x8, addend: 0x0, symName: __ZN5Eigen9DenseBaseINS_5BlockINS_6MatrixIdLin1ELin1ELi0ELin1ELin1EEELi1ELin1ELb0EEEEC2Ev, symObjAddr: 0x2208, symBinAddr: 0x10000A264, symSize: 0x14 }
  - { offsetInCU: 0x8BABD, offset: 0x9F4AD, size: 0x8, addend: 0x0, symName: __ZN5Eigen8internal19variable_if_dynamicIlLi1EEC2El, symObjAddr: 0x221C, symBinAddr: 0x10000A278, symSize: 0x64 }
  - { offsetInCU: 0x8BAF5, offset: 0x9F4E5, size: 0x8, addend: 0x0, symName: __ZN5Eigen8internal19variable_if_dynamicIlLin1EEC2El, symObjAddr: 0x2280, symBinAddr: 0x10000A2DC, symSize: 0x20 }
  - { offsetInCU: 0x8BB2D, offset: 0x9F51D, size: 0x8, addend: 0x0, symName: __ZN5Eigen5BlockIKNS_6MatrixIdLin1ELin1ELi0ELin1ELin1EEELi1ELin1ELb0EEC1ERS3_l, symObjAddr: 0x22B4, symBinAddr: 0x10000A2FC, symSize: 0x3C }
  - { offsetInCU: 0x8BB73, offset: 0x9F563, size: 0x8, addend: 0x0, symName: __ZN5Eigen5BlockIKNS_6MatrixIdLin1ELin1ELi0ELin1ELin1EEELi1ELin1ELb0EEC2ERS3_l, symObjAddr: 0x22F0, symBinAddr: 0x10000A338, symSize: 0xCC }
  - { offsetInCU: 0x8BBB9, offset: 0x9F5A9, size: 0x8, addend: 0x0, symName: __ZN5Eigen9BlockImplIKNS_6MatrixIdLin1ELin1ELi0ELin1ELin1EEELi1ELin1ELb0ENS_5DenseEEC2ERS3_l, symObjAddr: 0x23BC, symBinAddr: 0x10000A404, symSize: 0x3C }
  - { offsetInCU: 0x8BBFF, offset: 0x9F5EF, size: 0x8, addend: 0x0, symName: __ZN5Eigen8internal15BlockImpl_denseIKNS_6MatrixIdLin1ELin1ELi0ELin1ELin1EEELi1ELin1ELb0ELb1EEC2ERS4_l, symObjAddr: 0x23F8, symBinAddr: 0x10000A440, symSize: 0xAC }
  - { offsetInCU: 0x8BC47, offset: 0x9F637, size: 0x8, addend: 0x0, symName: __ZNK5Eigen15PlainObjectBaseINS_6MatrixIdLin1ELin1ELi0ELin1ELin1EEEE4dataEv, symObjAddr: 0x24A4, symBinAddr: 0x10000A4EC, symSize: 0x24 }
  - { offsetInCU: 0x8BC6D, offset: 0x9F65D, size: 0x8, addend: 0x0, symName: __ZN5Eigen7MapBaseINS_5BlockIKNS_6MatrixIdLin1ELin1ELi0ELin1ELin1EEELi1ELin1ELb0EEELi0EEC2EPKdll, symObjAddr: 0x24C8, symBinAddr: 0x10000A510, symSize: 0x130 }
  - { offsetInCU: 0x8BCC1, offset: 0x9F6B1, size: 0x8, addend: 0x0, symName: __ZN5Eigen8internal15BlockImpl_denseIKNS_6MatrixIdLin1ELin1ELi0ELin1ELin1EEELi1ELin1ELb0ELb1EE4initEv, symObjAddr: 0x25F8, symBinAddr: 0x10000A640, symSize: 0x34 }
  - { offsetInCU: 0x8BCE7, offset: 0x9F6D7, size: 0x8, addend: 0x0, symName: __ZN5Eigen10MatrixBaseINS_5BlockIKNS_6MatrixIdLin1ELin1ELi0ELin1ELin1EEELi1ELin1ELb0EEEEC2Ev, symObjAddr: 0x2644, symBinAddr: 0x10000A674, symSize: 0x2C }
  - { offsetInCU: 0x8BD11, offset: 0x9F701, size: 0x8, addend: 0x0, symName: __ZNK5Eigen7MapBaseINS_5BlockIKNS_6MatrixIdLin1ELin1ELi0ELin1ELin1EEELi1ELin1ELb0EEELi0EE11checkSanityIS5_EEvNS_8internal9enable_ifIXeqsr8internal6traitsIT_EE9AlignmentLi0EEPvE4typeE, symObjAddr: 0x2670, symBinAddr: 0x10000A6A0, symSize: 0x14 }
  - { offsetInCU: 0x8BD4B, offset: 0x9F73B, size: 0x8, addend: 0x0, symName: __ZN5Eigen9DenseBaseINS_5BlockIKNS_6MatrixIdLin1ELin1ELi0ELin1ELin1EEELi1ELin1ELb0EEEEC2Ev, symObjAddr: 0x2684, symBinAddr: 0x10000A6B4, symSize: 0x14 }
  - { offsetInCU: 0x8BD75, offset: 0x9F765, size: 0x8, addend: 0x0, symName: __ZNK5Eigen9EigenBaseINS_5BlockIKNS_6MatrixIdLin1ELin1ELi0ELin1ELin1EEELi1ELin1ELb0EEEE7derivedEv, symObjAddr: 0x2698, symBinAddr: 0x10000A6C8, symSize: 0x14 }
  - { offsetInCU: 0x8BD9B, offset: 0x9F78B, size: 0x8, addend: 0x0, symName: __ZN5Eigen8internal20scalar_difference_opIddEC1Ev, symObjAddr: 0x26AC, symBinAddr: 0x10000A6DC, symSize: 0x2C }
  - { offsetInCU: 0x8BDC5, offset: 0x9F7B5, size: 0x8, addend: 0x0, symName: __ZN5Eigen13CwiseBinaryOpINS_8internal20scalar_difference_opIddEEKNS_5BlockIKNS_6MatrixIdLin1ELin1ELi0ELin1ELin1EEELi1ELin1ELb0EEES9_EC1ERS9_SB_RKS3_, symObjAddr: 0x26D8, symBinAddr: 0x10000A708, symSize: 0x44 }
  - { offsetInCU: 0x8BE19, offset: 0x9F809, size: 0x8, addend: 0x0, symName: __ZN5Eigen8internal20scalar_difference_opIddEC2Ev, symObjAddr: 0x271C, symBinAddr: 0x10000A74C, symSize: 0x14 }
  - { offsetInCU: 0x8BE43, offset: 0x9F833, size: 0x8, addend: 0x0, symName: __ZN5Eigen13CwiseBinaryOpINS_8internal20scalar_difference_opIddEEKNS_5BlockIKNS_6MatrixIdLin1ELin1ELi0ELin1ELin1EEELi1ELin1ELb0EEES9_EC2ERS9_SB_RKS3_, symObjAddr: 0x2730, symBinAddr: 0x10000A760, symSize: 0x104 }
  - { offsetInCU: 0x8BE9C, offset: 0x9F88C, size: 0x8, addend: 0x0, symName: __ZN5Eigen17CwiseBinaryOpImplINS_8internal20scalar_difference_opIddEEKNS_5BlockIKNS_6MatrixIdLin1ELin1ELi0ELin1ELin1EEELi1ELin1ELb0EEES9_NS_5DenseEEC2Ev, symObjAddr: 0x2834, symBinAddr: 0x10000A864, symSize: 0x2C }
  - { offsetInCU: 0x8BEC8, offset: 0x9F8B8, size: 0x8, addend: 0x0, symName: __ZN5Eigen8internal20scalar_difference_opIddEC1ERKS2_, symObjAddr: 0x2860, symBinAddr: 0x10000A890, symSize: 0x34 }
  - { offsetInCU: 0x8BEFE, offset: 0x9F8EE, size: 0x8, addend: 0x0, symName: __ZNK5Eigen7MapBaseINS_5BlockIKNS_6MatrixIdLin1ELin1ELi0ELin1ELin1EEELi1ELin1ELb0EEELi0EE4rowsEv, symObjAddr: 0x2894, symBinAddr: 0x10000A8C4, symSize: 0x30 }
  - { offsetInCU: 0x8BF24, offset: 0x9F914, size: 0x8, addend: 0x0, symName: __ZNK5Eigen7MapBaseINS_5BlockIKNS_6MatrixIdLin1ELin1ELi0ELin1ELin1EEELi1ELin1ELb0EEELi0EE4colsEv, symObjAddr: 0x28C4, symBinAddr: 0x10000A8F4, symSize: 0x38 }
  - { offsetInCU: 0x8BF4A, offset: 0x9F93A, size: 0x8, addend: 0x0, symName: __ZN5Eigen10MatrixBaseINS_13CwiseBinaryOpINS_8internal20scalar_difference_opIddEEKNS_5BlockIKNS_6MatrixIdLin1ELin1ELi0ELin1ELin1EEELi1ELin1ELb0EEESA_EEEC2Ev, symObjAddr: 0x28FC, symBinAddr: 0x10000A92C, symSize: 0x2C }
  - { offsetInCU: 0x8BF74, offset: 0x9F964, size: 0x8, addend: 0x0, symName: __ZN5Eigen9DenseBaseINS_13CwiseBinaryOpINS_8internal20scalar_difference_opIddEEKNS_5BlockIKNS_6MatrixIdLin1ELin1ELi0ELin1ELin1EEELi1ELin1ELb0EEESA_EEEC2Ev, symObjAddr: 0x2928, symBinAddr: 0x10000A958, symSize: 0x14 }
  - { offsetInCU: 0x8BF9E, offset: 0x9F98E, size: 0x8, addend: 0x0, symName: __ZN5Eigen8internal20scalar_difference_opIddEC2ERKS2_, symObjAddr: 0x293C, symBinAddr: 0x10000A96C, symSize: 0x18 }
  - { offsetInCU: 0x8BFD4, offset: 0x9F9C4, size: 0x8, addend: 0x0, symName: __ZN5Eigen8internal19variable_if_dynamicIlLi1EE5valueEv, symObjAddr: 0x2954, symBinAddr: 0x10000A984, symSize: 0x8 }
  - { offsetInCU: 0x8BFE8, offset: 0x9F9D8, size: 0x8, addend: 0x0, symName: __ZNK5Eigen8internal19variable_if_dynamicIlLin1EE5valueEv, symObjAddr: 0x295C, symBinAddr: 0x10000A98C, symSize: 0x18 }
  - { offsetInCU: 0x8C00E, offset: 0x9F9FE, size: 0x8, addend: 0x0, symName: __ZNK5Eigen9EigenBaseINS_13CwiseBinaryOpINS_8internal20scalar_difference_opIddEEKNS_5BlockIKNS_6MatrixIdLin1ELin1ELi0ELin1ELin1EEELi1ELin1ELb0EEESA_EEE7derivedEv, symObjAddr: 0x2974, symBinAddr: 0x10000A9A4, symSize: 0x14 }
  - { offsetInCU: 0x8C034, offset: 0x9FA24, size: 0x8, addend: 0x0, symName: __ZN5Eigen8internal18scalar_quotient_opIddEC1Ev, symObjAddr: 0x2988, symBinAddr: 0x10000A9B8, symSize: 0x2C }
  - { offsetInCU: 0x8C05E, offset: 0x9FA4E, size: 0x8, addend: 0x0, symName: __ZN5Eigen13CwiseBinaryOpINS_8internal18scalar_quotient_opIddEEKNS0_INS1_20scalar_difference_opIddEEKNS_5BlockIKNS_6MatrixIdLin1ELin1ELi0ELin1ELin1EEELi1ELin1ELb0EEESB_EESB_EC1ERSD_RSB_RKS3_, symObjAddr: 0x29B4, symBinAddr: 0x10000A9E4, symSize: 0x44 }
  - { offsetInCU: 0x8C0B2, offset: 0x9FAA2, size: 0x8, addend: 0x0, symName: __ZN5Eigen8internal18scalar_quotient_opIddEC2Ev, symObjAddr: 0x29F8, symBinAddr: 0x10000AA28, symSize: 0x14 }
  - { offsetInCU: 0x8C0DC, offset: 0x9FACC, size: 0x8, addend: 0x0, symName: __ZN5Eigen13CwiseBinaryOpINS_8internal18scalar_quotient_opIddEEKNS0_INS1_20scalar_difference_opIddEEKNS_5BlockIKNS_6MatrixIdLin1ELin1ELi0ELin1ELin1EEELi1ELin1ELb0EEESB_EESB_EC2ERSD_RSB_RKS3_, symObjAddr: 0x2A0C, symBinAddr: 0x10000AA3C, symSize: 0x100 }
  - { offsetInCU: 0x8C135, offset: 0x9FB25, size: 0x8, addend: 0x0, symName: __ZN5Eigen17CwiseBinaryOpImplINS_8internal18scalar_quotient_opIddEEKNS_13CwiseBinaryOpINS1_20scalar_difference_opIddEEKNS_5BlockIKNS_6MatrixIdLin1ELin1ELi0ELin1ELin1EEELi1ELin1ELb0EEESC_EESC_NS_5DenseEEC2Ev, symObjAddr: 0x2B0C, symBinAddr: 0x10000AB3C, symSize: 0x2C }
  - { offsetInCU: 0x8C161, offset: 0x9FB51, size: 0x8, addend: 0x0, symName: __ZN5Eigen13CwiseBinaryOpINS_8internal20scalar_difference_opIddEEKNS_5BlockIKNS_6MatrixIdLin1ELin1ELi0ELin1ELin1EEELi1ELin1ELb0EEES9_EC1ERKSA_, symObjAddr: 0x2B38, symBinAddr: 0x10000AB68, symSize: 0x34 }
  - { offsetInCU: 0x8C196, offset: 0x9FB86, size: 0x8, addend: 0x0, symName: __ZN5Eigen8internal18scalar_quotient_opIddEC1ERKS2_, symObjAddr: 0x2B6C, symBinAddr: 0x10000AB9C, symSize: 0x34 }
  - { offsetInCU: 0x8C1CC, offset: 0x9FBBC, size: 0x8, addend: 0x0, symName: __ZNK5Eigen13CwiseBinaryOpINS_8internal20scalar_difference_opIddEEKNS_5BlockIKNS_6MatrixIdLin1ELin1ELi0ELin1ELin1EEELi1ELin1ELb0EEES9_E4rowsEv, symObjAddr: 0x2BA0, symBinAddr: 0x10000ABD0, symSize: 0x24 }
  - { offsetInCU: 0x8C1F2, offset: 0x9FBE2, size: 0x8, addend: 0x0, symName: __ZNK5Eigen13CwiseBinaryOpINS_8internal20scalar_difference_opIddEEKNS_5BlockIKNS_6MatrixIdLin1ELin1ELi0ELin1ELin1EEELi1ELin1ELb0EEES9_E4colsEv, symObjAddr: 0x2BC4, symBinAddr: 0x10000ABF4, symSize: 0x28 }
  - { offsetInCU: 0x8C218, offset: 0x9FC08, size: 0x8, addend: 0x0, symName: __ZN5Eigen10MatrixBaseINS_13CwiseBinaryOpINS_8internal18scalar_quotient_opIddEEKNS1_INS2_20scalar_difference_opIddEEKNS_5BlockIKNS_6MatrixIdLin1ELin1ELi0ELin1ELin1EEELi1ELin1ELb0EEESC_EESC_EEEC2Ev, symObjAddr: 0x2BEC, symBinAddr: 0x10000AC1C, symSize: 0x2C }
  - { offsetInCU: 0x8C242, offset: 0x9FC32, size: 0x8, addend: 0x0, symName: __ZN5Eigen9DenseBaseINS_13CwiseBinaryOpINS_8internal18scalar_quotient_opIddEEKNS1_INS2_20scalar_difference_opIddEEKNS_5BlockIKNS_6MatrixIdLin1ELin1ELi0ELin1ELin1EEELi1ELin1ELb0EEESC_EESC_EEEC2Ev, symObjAddr: 0x2C18, symBinAddr: 0x10000AC48, symSize: 0x14 }
  - { offsetInCU: 0x8C26C, offset: 0x9FC5C, size: 0x8, addend: 0x0, symName: __ZN5Eigen13CwiseBinaryOpINS_8internal20scalar_difference_opIddEEKNS_5BlockIKNS_6MatrixIdLin1ELin1ELi0ELin1ELin1EEELi1ELin1ELb0EEES9_EC2ERKSA_, symObjAddr: 0x2C2C, symBinAddr: 0x10000AC5C, symSize: 0x4C }
  - { offsetInCU: 0x8C2A1, offset: 0x9FC91, size: 0x8, addend: 0x0, symName: __ZN5Eigen8internal18scalar_quotient_opIddEC2ERKS2_, symObjAddr: 0x2C78, symBinAddr: 0x10000ACA8, symSize: 0x18 }
  - { offsetInCU: 0x8C2D7, offset: 0x9FCC7, size: 0x8, addend: 0x0, symName: __ZN5Eigen9BlockImplINS_6MatrixIdLin1ELin1ELi0ELin1ELin1EEELi1ELin1ELb0ENS_5DenseEEaSINS_13CwiseBinaryOpINS_8internal18scalar_quotient_opIddEEKNS6_INS7_20scalar_difference_opIddEEKNS_5BlockIKS2_Li1ELin1ELb0EEESF_EESF_EEEERS4_RKNS_9DenseBaseIT_EE, symObjAddr: 0x2C90, symBinAddr: 0x10000ACC0, symSize: 0x40 }
  - { offsetInCU: 0x8C314, offset: 0x9FD04, size: 0x8, addend: 0x0, symName: __ZNK5Eigen9EigenBaseINS_13CwiseBinaryOpINS_8internal18scalar_quotient_opIddEEKNS1_INS2_20scalar_difference_opIddEEKNS_5BlockIKNS_6MatrixIdLin1ELin1ELi0ELin1ELin1EEELi1ELin1ELb0EEESC_EESC_EEE7derivedEv, symObjAddr: 0x2CD0, symBinAddr: 0x10000AD00, symSize: 0x14 }
  - { offsetInCU: 0x8C33A, offset: 0x9FD2A, size: 0x8, addend: 0x0, symName: __ZN5Eigen8internal15BlockImpl_denseINS_6MatrixIdLin1ELin1ELi0ELin1ELin1EEELi1ELin1ELb0ELb1EEaSINS_13CwiseBinaryOpINS0_18scalar_quotient_opIddEEKNS6_INS0_20scalar_difference_opIddEEKNS_5BlockIKS3_Li1ELin1ELb0EEESE_EESE_EEEERS4_RKNS_9DenseBaseIT_EE, symObjAddr: 0x2CE4, symBinAddr: 0x10000AD14, symSize: 0x40 }
  - { offsetInCU: 0x8C378, offset: 0x9FD68, size: 0x8, addend: 0x0, symName: __ZN5Eigen10MatrixBaseINS_5BlockINS_6MatrixIdLin1ELin1ELi0ELin1ELin1EEELi1ELin1ELb0EEEEaSINS_13CwiseBinaryOpINS_8internal18scalar_quotient_opIddEEKNS7_INS8_20scalar_difference_opIddEEKNS1_IKS3_Li1ELin1ELb0EEESF_EESF_EEEERS4_RKNS_9DenseBaseIT_EE, symObjAddr: 0x2D24, symBinAddr: 0x10000AD54, symSize: 0x4C }
  - { offsetInCU: 0x8C3B7, offset: 0x9FDA7, size: 0x8, addend: 0x0, symName: __ZN5Eigen9EigenBaseINS_5BlockINS_6MatrixIdLin1ELin1ELi0ELin1ELin1EEELi1ELin1ELb0EEEE7derivedEv, symObjAddr: 0x2DC0, symBinAddr: 0x10000ADF0, symSize: 0x14 }
  - { offsetInCU: 0x8C3DD, offset: 0x9FDCD, size: 0x8, addend: 0x0, symName: __ZN5Eigen8internal9assign_opIddEC1Ev, symObjAddr: 0x2E0C, symBinAddr: 0x10000AE3C, symSize: 0x2C }
  - { offsetInCU: 0x8C406, offset: 0x9FDF6, size: 0x8, addend: 0x0, symName: __ZN5Eigen8internal10AssignmentINS_5BlockINS_6MatrixIdLin1ELin1ELi0ELin1ELin1EEELi1ELin1ELb0EEENS_13CwiseBinaryOpINS0_18scalar_quotient_opIddEEKNS6_INS0_20scalar_difference_opIddEEKNS2_IKS4_Li1ELin1ELb0EEESD_EESD_EENS0_9assign_opIddEENS0_11Dense2DenseEvE3runERS5_RKSG_RKSI_, symObjAddr: 0x2E74, symBinAddr: 0x10000AEA4, symSize: 0x40 }
  - { offsetInCU: 0x8C4FD, offset: 0x9FEED, size: 0x8, addend: 0x0, symName: __ZN5Eigen8internal9evaluatorINS_13CwiseBinaryOpINS0_18scalar_quotient_opIddEEKNS2_INS0_20scalar_difference_opIddEEKNS_5BlockIKNS_6MatrixIdLin1ELin1ELi0ELin1ELin1EEELi1ELin1ELb0EEESC_EESC_EEEC1ERKSF_, symObjAddr: 0x2FA8, symBinAddr: 0x10000AFD8, symSize: 0x34 }
  - { offsetInCU: 0x8C554, offset: 0x9FF44, size: 0x8, addend: 0x0, symName: __ZN5Eigen8internal9evaluatorINS_5BlockINS_6MatrixIdLin1ELin1ELi0ELin1ELin1EEELi1ELin1ELb0EEEEC1ERKS5_, symObjAddr: 0x30D4, symBinAddr: 0x10000B104, symSize: 0x34 }
  - { offsetInCU: 0x8C58D, offset: 0x9FF7D, size: 0x8, addend: 0x0, symName: __ZNK5Eigen9EigenBaseINS_5BlockINS_6MatrixIdLin1ELin1ELi0ELin1ELin1EEELi1ELin1ELb0EEEE18const_cast_derivedEv, symObjAddr: 0x3108, symBinAddr: 0x10000B138, symSize: 0x14 }
  - { offsetInCU: 0x8C5E0, offset: 0x9FFD0, size: 0x8, addend: 0x0, symName: __ZN5Eigen8internal31generic_dense_assignment_kernelINS0_9evaluatorINS_5BlockINS_6MatrixIdLin1ELin1ELi0ELin1ELin1EEELi1ELin1ELb0EEEEENS2_INS_13CwiseBinaryOpINS0_18scalar_quotient_opIddEEKNS8_INS0_20scalar_difference_opIddEEKNS3_IKS5_Li1ELin1ELb0EEESF_EESF_EEEENS0_9assign_opIddEELi0EEC1ERS7_RKSJ_RKSL_RS6_, symObjAddr: 0x311C, symBinAddr: 0x10000B14C, symSize: 0x4C }
  - { offsetInCU: 0x8C64A, offset: 0xA003A, size: 0x8, addend: 0x0, symName: __ZN5Eigen8internal21dense_assignment_loopINS0_31generic_dense_assignment_kernelINS0_9evaluatorINS_5BlockINS_6MatrixIdLin1ELin1ELi0ELin1ELin1EEELi1ELin1ELb0EEEEENS3_INS_13CwiseBinaryOpINS0_18scalar_quotient_opIddEEKNS9_INS0_20scalar_difference_opIddEEKNS4_IKS6_Li1ELin1ELb0EEESG_EESG_EEEENS0_9assign_opIddEELi0EEELi1ELi0EE3runERSN_, symObjAddr: 0x3168, symBinAddr: 0x10000B198, symSize: 0x68 }
  - { offsetInCU: 0x8C69B, offset: 0xA008B, size: 0x8, addend: 0x0, symName: __ZN5Eigen8internal9evaluatorINS_5BlockINS_6MatrixIdLin1ELin1ELi0ELin1ELin1EEELi1ELin1ELb0EEEED1Ev, symObjAddr: 0x31D0, symBinAddr: 0x10000B200, symSize: 0x2C }
  - { offsetInCU: 0x8C6C8, offset: 0xA00B8, size: 0x8, addend: 0x0, symName: __ZN5Eigen8internal9evaluatorINS_13CwiseBinaryOpINS0_18scalar_quotient_opIddEEKNS2_INS0_20scalar_difference_opIddEEKNS_5BlockIKNS_6MatrixIdLin1ELin1ELi0ELin1ELin1EEELi1ELin1ELb0EEESC_EESC_EEED1Ev, symObjAddr: 0x31FC, symBinAddr: 0x10000B22C, symSize: 0x2C }
  - { offsetInCU: 0x8C6F5, offset: 0xA00E5, size: 0x8, addend: 0x0, symName: __ZN5Eigen8internal9evaluatorINS_13CwiseBinaryOpINS0_18scalar_quotient_opIddEEKNS2_INS0_20scalar_difference_opIddEEKNS_5BlockIKNS_6MatrixIdLin1ELin1ELi0ELin1ELin1EEELi1ELin1ELb0EEESC_EESC_EEEC2ERKSF_, symObjAddr: 0x3228, symBinAddr: 0x10000B258, symSize: 0x34 }
  - { offsetInCU: 0x8C72E, offset: 0xA011E, size: 0x8, addend: 0x0, symName: __ZN5Eigen8internal16binary_evaluatorINS_13CwiseBinaryOpINS0_18scalar_quotient_opIddEEKNS2_INS0_20scalar_difference_opIddEEKNS_5BlockIKNS_6MatrixIdLin1ELin1ELi0ELin1ELin1EEELi1ELin1ELb0EEESC_EESC_EENS0_10IndexBasedESG_ddEC2ERKSF_, symObjAddr: 0x325C, symBinAddr: 0x10000B28C, symSize: 0x64 }
  - { offsetInCU: 0x8C767, offset: 0xA0157, size: 0x8, addend: 0x0, symName: __ZN5Eigen8internal14evaluator_baseINS_13CwiseBinaryOpINS0_18scalar_quotient_opIddEEKNS2_INS0_20scalar_difference_opIddEEKNS_5BlockIKNS_6MatrixIdLin1ELin1ELi0ELin1ELin1EEELi1ELin1ELb0EEESC_EESC_EEEC2Ev, symObjAddr: 0x32C0, symBinAddr: 0x10000B2F0, symSize: 0x14 }
  - { offsetInCU: 0x8C791, offset: 0xA0181, size: 0x8, addend: 0x0, symName: __ZN5Eigen8internal16binary_evaluatorINS_13CwiseBinaryOpINS0_18scalar_quotient_opIddEEKNS2_INS0_20scalar_difference_opIddEEKNS_5BlockIKNS_6MatrixIdLin1ELin1ELi0ELin1ELin1EEELi1ELin1ELb0EEESC_EESC_EENS0_10IndexBasedESG_ddE4DataC1ERKSF_, symObjAddr: 0x32D4, symBinAddr: 0x10000B304, symSize: 0x34 }
  - { offsetInCU: 0x8C7CA, offset: 0xA01BA, size: 0x8, addend: 0x0, symName: __ZN5Eigen8internal14evaluator_baseINS_13CwiseBinaryOpINS0_18scalar_quotient_opIddEEKNS2_INS0_20scalar_difference_opIddEEKNS_5BlockIKNS_6MatrixIdLin1ELin1ELi0ELin1ELin1EEELi1ELin1ELb0EEESC_EESC_EEED2Ev, symObjAddr: 0x3308, symBinAddr: 0x10000B338, symSize: 0x14 }
  - { offsetInCU: 0x8C7F4, offset: 0xA01E4, size: 0x8, addend: 0x0, symName: __ZN5Eigen8internal16binary_evaluatorINS_13CwiseBinaryOpINS0_18scalar_quotient_opIddEEKNS2_INS0_20scalar_difference_opIddEEKNS_5BlockIKNS_6MatrixIdLin1ELin1ELi0ELin1ELin1EEELi1ELin1ELb0EEESC_EESC_EENS0_10IndexBasedESG_ddE4DataC2ERKSF_, symObjAddr: 0x331C, symBinAddr: 0x10000B34C, symSize: 0xA8 }
  - { offsetInCU: 0x8C82D, offset: 0xA021D, size: 0x8, addend: 0x0, symName: __ZNK5Eigen13CwiseBinaryOpINS_8internal18scalar_quotient_opIddEEKNS0_INS1_20scalar_difference_opIddEEKNS_5BlockIKNS_6MatrixIdLin1ELin1ELi0ELin1ELin1EEELi1ELin1ELb0EEESB_EESB_E7functorEv, symObjAddr: 0x33C4, symBinAddr: 0x10000B3F4, symSize: 0x18 }
  - { offsetInCU: 0x8C853, offset: 0xA0243, size: 0x8, addend: 0x0, symName: __ZNK5Eigen13CwiseBinaryOpINS_8internal18scalar_quotient_opIddEEKNS0_INS1_20scalar_difference_opIddEEKNS_5BlockIKNS_6MatrixIdLin1ELin1ELi0ELin1ELin1EEELi1ELin1ELb0EEESB_EESB_E3lhsEv, symObjAddr: 0x33DC, symBinAddr: 0x10000B40C, symSize: 0x18 }
  - { offsetInCU: 0x8C879, offset: 0xA0269, size: 0x8, addend: 0x0, symName: __ZN5Eigen8internal9evaluatorIKNS_13CwiseBinaryOpINS0_20scalar_difference_opIddEEKNS_5BlockIKNS_6MatrixIdLin1ELin1ELi0ELin1ELin1EEELi1ELin1ELb0EEESA_EEEC1ERSC_, symObjAddr: 0x33F4, symBinAddr: 0x10000B424, symSize: 0x34 }
  - { offsetInCU: 0x8C8B1, offset: 0xA02A1, size: 0x8, addend: 0x0, symName: __ZNK5Eigen13CwiseBinaryOpINS_8internal18scalar_quotient_opIddEEKNS0_INS1_20scalar_difference_opIddEEKNS_5BlockIKNS_6MatrixIdLin1ELin1ELi0ELin1ELin1EEELi1ELin1ELb0EEESB_EESB_E3rhsEv, symObjAddr: 0x3428, symBinAddr: 0x10000B458, symSize: 0x18 }
  - { offsetInCU: 0x8C8D7, offset: 0xA02C7, size: 0x8, addend: 0x0, symName: __ZN5Eigen8internal9evaluatorIKNS_5BlockIKNS_6MatrixIdLin1ELin1ELi0ELin1ELin1EEELi1ELin1ELb0EEEEC1ERS7_, symObjAddr: 0x3440, symBinAddr: 0x10000B470, symSize: 0x34 }
  - { offsetInCU: 0x8C90F, offset: 0xA02FF, size: 0x8, addend: 0x0, symName: __ZN5Eigen8internal9evaluatorIKNS_13CwiseBinaryOpINS0_20scalar_difference_opIddEEKNS_5BlockIKNS_6MatrixIdLin1ELin1ELi0ELin1ELin1EEELi1ELin1ELb0EEESA_EEED1Ev, symObjAddr: 0x3474, symBinAddr: 0x10000B4A4, symSize: 0x2C }
  - { offsetInCU: 0x8C93B, offset: 0xA032B, size: 0x8, addend: 0x0, symName: __ZN5Eigen8internal9evaluatorIKNS_13CwiseBinaryOpINS0_20scalar_difference_opIddEEKNS_5BlockIKNS_6MatrixIdLin1ELin1ELi0ELin1ELin1EEELi1ELin1ELb0EEESA_EEEC2ERSC_, symObjAddr: 0x34A0, symBinAddr: 0x10000B4D0, symSize: 0x34 }
  - { offsetInCU: 0x8C973, offset: 0xA0363, size: 0x8, addend: 0x0, symName: __ZN5Eigen8internal9evaluatorINS_13CwiseBinaryOpINS0_20scalar_difference_opIddEEKNS_5BlockIKNS_6MatrixIdLin1ELin1ELi0ELin1ELin1EEELi1ELin1ELb0EEESA_EEEC2ERKSB_, symObjAddr: 0x34D4, symBinAddr: 0x10000B504, symSize: 0x34 }
  - { offsetInCU: 0x8C9AC, offset: 0xA039C, size: 0x8, addend: 0x0, symName: __ZN5Eigen8internal16binary_evaluatorINS_13CwiseBinaryOpINS0_20scalar_difference_opIddEEKNS_5BlockIKNS_6MatrixIdLin1ELin1ELi0ELin1ELin1EEELi1ELin1ELb0EEESA_EENS0_10IndexBasedESC_ddEC2ERKSB_, symObjAddr: 0x3508, symBinAddr: 0x10000B538, symSize: 0x64 }
  - { offsetInCU: 0x8C9E5, offset: 0xA03D5, size: 0x8, addend: 0x0, symName: __ZN5Eigen8internal14evaluator_baseINS_13CwiseBinaryOpINS0_20scalar_difference_opIddEEKNS_5BlockIKNS_6MatrixIdLin1ELin1ELi0ELin1ELin1EEELi1ELin1ELb0EEESA_EEEC2Ev, symObjAddr: 0x356C, symBinAddr: 0x10000B59C, symSize: 0x14 }
  - { offsetInCU: 0x8CA0F, offset: 0xA03FF, size: 0x8, addend: 0x0, symName: __ZN5Eigen8internal16binary_evaluatorINS_13CwiseBinaryOpINS0_20scalar_difference_opIddEEKNS_5BlockIKNS_6MatrixIdLin1ELin1ELi0ELin1ELin1EEELi1ELin1ELb0EEESA_EENS0_10IndexBasedESC_ddE4DataC1ERKSB_, symObjAddr: 0x3580, symBinAddr: 0x10000B5B0, symSize: 0x34 }
  - { offsetInCU: 0x8CA48, offset: 0xA0438, size: 0x8, addend: 0x0, symName: __ZN5Eigen8internal14evaluator_baseINS_13CwiseBinaryOpINS0_20scalar_difference_opIddEEKNS_5BlockIKNS_6MatrixIdLin1ELin1ELi0ELin1ELin1EEELi1ELin1ELb0EEESA_EEED2Ev, symObjAddr: 0x35B4, symBinAddr: 0x10000B5E4, symSize: 0x14 }
  - { offsetInCU: 0x8CA72, offset: 0xA0462, size: 0x8, addend: 0x0, symName: __ZN5Eigen8internal16binary_evaluatorINS_13CwiseBinaryOpINS0_20scalar_difference_opIddEEKNS_5BlockIKNS_6MatrixIdLin1ELin1ELi0ELin1ELin1EEELi1ELin1ELb0EEESA_EENS0_10IndexBasedESC_ddE4DataC2ERKSB_, symObjAddr: 0x35C8, symBinAddr: 0x10000B5F8, symSize: 0xA8 }
  - { offsetInCU: 0x8CAAB, offset: 0xA049B, size: 0x8, addend: 0x0, symName: __ZNK5Eigen13CwiseBinaryOpINS_8internal20scalar_difference_opIddEEKNS_5BlockIKNS_6MatrixIdLin1ELin1ELi0ELin1ELin1EEELi1ELin1ELb0EEES9_E7functorEv, symObjAddr: 0x3670, symBinAddr: 0x10000B6A0, symSize: 0x18 }
  - { offsetInCU: 0x8CAD1, offset: 0xA04C1, size: 0x8, addend: 0x0, symName: __ZNK5Eigen13CwiseBinaryOpINS_8internal20scalar_difference_opIddEEKNS_5BlockIKNS_6MatrixIdLin1ELin1ELi0ELin1ELin1EEELi1ELin1ELb0EEES9_E3lhsEv, symObjAddr: 0x3688, symBinAddr: 0x10000B6B8, symSize: 0x14 }
  - { offsetInCU: 0x8CAF7, offset: 0xA04E7, size: 0x8, addend: 0x0, symName: __ZNK5Eigen13CwiseBinaryOpINS_8internal20scalar_difference_opIddEEKNS_5BlockIKNS_6MatrixIdLin1ELin1ELi0ELin1ELin1EEELi1ELin1ELb0EEES9_E3rhsEv, symObjAddr: 0x369C, symBinAddr: 0x10000B6CC, symSize: 0x18 }
  - { offsetInCU: 0x8CB1D, offset: 0xA050D, size: 0x8, addend: 0x0, symName: __ZN5Eigen8internal9evaluatorIKNS_5BlockIKNS_6MatrixIdLin1ELin1ELi0ELin1ELin1EEELi1ELin1ELb0EEEED1Ev, symObjAddr: 0x36B4, symBinAddr: 0x10000B6E4, symSize: 0x2C }
  - { offsetInCU: 0x8CB49, offset: 0xA0539, size: 0x8, addend: 0x0, symName: __ZN5Eigen8internal9evaluatorIKNS_5BlockIKNS_6MatrixIdLin1ELin1ELi0ELin1ELin1EEELi1ELin1ELb0EEEED2Ev, symObjAddr: 0x36E0, symBinAddr: 0x10000B710, symSize: 0x2C }
  - { offsetInCU: 0x8CB75, offset: 0xA0565, size: 0x8, addend: 0x0, symName: __ZN5Eigen8internal9evaluatorINS_5BlockIKNS_6MatrixIdLin1ELin1ELi0ELin1ELin1EEELi1ELin1ELb0EEEED2Ev, symObjAddr: 0x370C, symBinAddr: 0x10000B73C, symSize: 0x2C }
  - { offsetInCU: 0x8CBA2, offset: 0xA0592, size: 0x8, addend: 0x0, symName: __ZN5Eigen8internal15block_evaluatorIKNS_6MatrixIdLin1ELin1ELi0ELin1ELin1EEELi1ELin1ELb0ELb1EED2Ev, symObjAddr: 0x3738, symBinAddr: 0x10000B768, symSize: 0x2C }
  - { offsetInCU: 0x8CBCF, offset: 0xA05BF, size: 0x8, addend: 0x0, symName: __ZN5Eigen8internal17mapbase_evaluatorINS_5BlockIKNS_6MatrixIdLin1ELin1ELi0ELin1ELin1EEELi1ELin1ELb0EEENS3_IdLi1ELin1ELi1ELi1ELin1EEEED2Ev, symObjAddr: 0x3764, symBinAddr: 0x10000B794, symSize: 0x2C }
  - { offsetInCU: 0x8CBFC, offset: 0xA05EC, size: 0x8, addend: 0x0, symName: __ZN5Eigen8internal14evaluator_baseINS_5BlockIKNS_6MatrixIdLin1ELin1ELi0ELin1ELin1EEELi1ELin1ELb0EEEED2Ev, symObjAddr: 0x3790, symBinAddr: 0x10000B7C0, symSize: 0x14 }
  - { offsetInCU: 0x8CC26, offset: 0xA0616, size: 0x8, addend: 0x0, symName: __ZN5Eigen8internal9evaluatorIKNS_5BlockIKNS_6MatrixIdLin1ELin1ELi0ELin1ELin1EEELi1ELin1ELb0EEEEC2ERS7_, symObjAddr: 0x37A4, symBinAddr: 0x10000B7D4, symSize: 0x34 }
  - { offsetInCU: 0x8CC5E, offset: 0xA064E, size: 0x8, addend: 0x0, symName: __ZN5Eigen8internal9evaluatorINS_5BlockIKNS_6MatrixIdLin1ELin1ELi0ELin1ELin1EEELi1ELin1ELb0EEEEC2ERKS6_, symObjAddr: 0x37D8, symBinAddr: 0x10000B808, symSize: 0x34 }
  - { offsetInCU: 0x8CC97, offset: 0xA0687, size: 0x8, addend: 0x0, symName: __ZN5Eigen8internal15block_evaluatorIKNS_6MatrixIdLin1ELin1ELi0ELin1ELin1EEELi1ELin1ELb0ELb1EEC2ERKNS_5BlockIS4_Li1ELin1ELb0EEE, symObjAddr: 0x380C, symBinAddr: 0x10000B83C, symSize: 0xDC }
  - { offsetInCU: 0x8CCD0, offset: 0xA06C0, size: 0x8, addend: 0x0, symName: __ZN5Eigen8internal17mapbase_evaluatorINS_5BlockIKNS_6MatrixIdLin1ELin1ELi0ELin1ELin1EEELi1ELin1ELb0EEENS3_IdLi1ELin1ELi1ELi1ELin1EEEEC2ERKS6_, symObjAddr: 0x38E8, symBinAddr: 0x10000B918, symSize: 0xB0 }
  - { offsetInCU: 0x8CD09, offset: 0xA06F9, size: 0x8, addend: 0x0, symName: __ZNK5Eigen7MapBaseINS_5BlockIKNS_6MatrixIdLin1ELin1ELi0ELin1ELin1EEELi1ELin1ELb0EEELi0EE4dataEv, symObjAddr: 0x3998, symBinAddr: 0x10000B9C8, symSize: 0x18 }
  - { offsetInCU: 0x8CD2F, offset: 0xA071F, size: 0x8, addend: 0x0, symName: __ZN5Eigen8internal14evaluator_baseINS_5BlockIKNS_6MatrixIdLin1ELin1ELi0ELin1ELin1EEELi1ELin1ELb0EEEEC2Ev, symObjAddr: 0x39B0, symBinAddr: 0x10000B9E0, symSize: 0x14 }
  - { offsetInCU: 0x8CD59, offset: 0xA0749, size: 0x8, addend: 0x0, symName: __ZNK5Eigen8internal15BlockImpl_denseIKNS_6MatrixIdLin1ELin1ELi0ELin1ELin1EEELi1ELin1ELb0ELb1EE11innerStrideEv, symObjAddr: 0x39C4, symBinAddr: 0x10000B9F4, symSize: 0x28 }
  - { offsetInCU: 0x8CD7F, offset: 0xA076F, size: 0x8, addend: 0x0, symName: __ZNK5Eigen8internal15BlockImpl_denseIKNS_6MatrixIdLin1ELin1ELi0ELin1ELin1EEELi1ELin1ELb0ELb1EE11outerStrideEv, symObjAddr: 0x39EC, symBinAddr: 0x10000BA1C, symSize: 0x28 }
  - { offsetInCU: 0x8CDA5, offset: 0xA0795, size: 0x8, addend: 0x0, symName: __ZNK5Eigen6MatrixIdLin1ELin1ELi0ELin1ELin1EE11outerStrideEv, symObjAddr: 0x3A14, symBinAddr: 0x10000BA44, symSize: 0x34 }
  - { offsetInCU: 0x8CDCB, offset: 0xA07BB, size: 0x8, addend: 0x0, symName: __ZNK5Eigen9DenseBaseINS_6MatrixIdLin1ELin1ELi0ELin1ELin1EEEE9innerSizeEv, symObjAddr: 0x3A48, symBinAddr: 0x10000BA78, symSize: 0x24 }
  - { offsetInCU: 0x8CDF1, offset: 0xA07E1, size: 0x8, addend: 0x0, symName: __ZN5Eigen8internal9evaluatorIKNS_13CwiseBinaryOpINS0_20scalar_difference_opIddEEKNS_5BlockIKNS_6MatrixIdLin1ELin1ELi0ELin1ELin1EEELi1ELin1ELb0EEESA_EEED2Ev, symObjAddr: 0x3A94, symBinAddr: 0x10000BA9C, symSize: 0x2C }
  - { offsetInCU: 0x8CE1D, offset: 0xA080D, size: 0x8, addend: 0x0, symName: __ZN5Eigen8internal9evaluatorINS_13CwiseBinaryOpINS0_20scalar_difference_opIddEEKNS_5BlockIKNS_6MatrixIdLin1ELin1ELi0ELin1ELin1EEELi1ELin1ELb0EEESA_EEED2Ev, symObjAddr: 0x3AC0, symBinAddr: 0x10000BAC8, symSize: 0x2C }
  - { offsetInCU: 0x8CE4A, offset: 0xA083A, size: 0x8, addend: 0x0, symName: __ZN5Eigen8internal16binary_evaluatorINS_13CwiseBinaryOpINS0_20scalar_difference_opIddEEKNS_5BlockIKNS_6MatrixIdLin1ELin1ELi0ELin1ELin1EEELi1ELin1ELb0EEESA_EENS0_10IndexBasedESC_ddED2Ev, symObjAddr: 0x3AEC, symBinAddr: 0x10000BAF4, symSize: 0x34 }
  - { offsetInCU: 0x8CE76, offset: 0xA0866, size: 0x8, addend: 0x0, symName: __ZN5Eigen8internal16binary_evaluatorINS_13CwiseBinaryOpINS0_20scalar_difference_opIddEEKNS_5BlockIKNS_6MatrixIdLin1ELin1ELi0ELin1ELin1EEELi1ELin1ELb0EEESA_EENS0_10IndexBasedESC_ddE4DataD1Ev, symObjAddr: 0x3B20, symBinAddr: 0x10000BB28, symSize: 0x2C }
  - { offsetInCU: 0x8CEA3, offset: 0xA0893, size: 0x8, addend: 0x0, symName: __ZN5Eigen8internal16binary_evaluatorINS_13CwiseBinaryOpINS0_20scalar_difference_opIddEEKNS_5BlockIKNS_6MatrixIdLin1ELin1ELi0ELin1ELin1EEELi1ELin1ELb0EEESA_EENS0_10IndexBasedESC_ddE4DataD2Ev, symObjAddr: 0x3B4C, symBinAddr: 0x10000BB54, symSize: 0x3C }
  - { offsetInCU: 0x8CED0, offset: 0xA08C0, size: 0x8, addend: 0x0, symName: __ZNK5Eigen13CwiseBinaryOpINS_8internal18scalar_quotient_opIddEEKNS0_INS1_20scalar_difference_opIddEEKNS_5BlockIKNS_6MatrixIdLin1ELin1ELi0ELin1ELin1EEELi1ELin1ELb0EEESB_EESB_E4rowsEv, symObjAddr: 0x3B88, symBinAddr: 0x10000BB90, symSize: 0x28 }
  - { offsetInCU: 0x8CEF6, offset: 0xA08E6, size: 0x8, addend: 0x0, symName: __ZNK5Eigen13CwiseBinaryOpINS_8internal18scalar_quotient_opIddEEKNS0_INS1_20scalar_difference_opIddEEKNS_5BlockIKNS_6MatrixIdLin1ELin1ELi0ELin1ELin1EEELi1ELin1ELb0EEESB_EESB_E4colsEv, symObjAddr: 0x3BB0, symBinAddr: 0x10000BBB8, symSize: 0x28 }
  - { offsetInCU: 0x8CF1C, offset: 0xA090C, size: 0x8, addend: 0x0, symName: __ZNK5Eigen7MapBaseINS_5BlockINS_6MatrixIdLin1ELin1ELi0ELin1ELin1EEELi1ELin1ELb0EEELi0EE4rowsEv, symObjAddr: 0x3BD8, symBinAddr: 0x10000BBE0, symSize: 0x20 }
  - { offsetInCU: 0x8CF42, offset: 0xA0932, size: 0x8, addend: 0x0, symName: __ZNK5Eigen7MapBaseINS_5BlockINS_6MatrixIdLin1ELin1ELi0ELin1ELin1EEELi1ELin1ELb0EEELi0EE4colsEv, symObjAddr: 0x3BF8, symBinAddr: 0x10000BC00, symSize: 0x28 }
  - { offsetInCU: 0x8CF68, offset: 0xA0958, size: 0x8, addend: 0x0, symName: __ZN5Eigen9DenseBaseINS_5BlockINS_6MatrixIdLin1ELin1ELi0ELin1ELin1EEELi1ELin1ELb0EEEE6resizeEll, symObjAddr: 0x3C20, symBinAddr: 0x10000BC28, symSize: 0xBC }
  - { offsetInCU: 0x8CFAC, offset: 0xA099C, size: 0x8, addend: 0x0, symName: __ZNK5Eigen9EigenBaseINS_5BlockINS_6MatrixIdLin1ELin1ELi0ELin1ELin1EEELi1ELin1ELb0EEEE4rowsEv, symObjAddr: 0x3CDC, symBinAddr: 0x10000BCE4, symSize: 0x38 }
  - { offsetInCU: 0x8CFD2, offset: 0xA09C2, size: 0x8, addend: 0x0, symName: __ZNK5Eigen9EigenBaseINS_5BlockINS_6MatrixIdLin1ELin1ELi0ELin1ELin1EEELi1ELin1ELb0EEEE4colsEv, symObjAddr: 0x3D14, symBinAddr: 0x10000BD1C, symSize: 0x28 }
  - { offsetInCU: 0x8CFF8, offset: 0xA09E8, size: 0x8, addend: 0x0, symName: __ZNK5Eigen9EigenBaseINS_5BlockINS_6MatrixIdLin1ELin1ELi0ELin1ELin1EEELi1ELin1ELb0EEEE7derivedEv, symObjAddr: 0x3D3C, symBinAddr: 0x10000BD44, symSize: 0x14 }
  - { offsetInCU: 0x8D01E, offset: 0xA0A0E, size: 0x8, addend: 0x0, symName: __ZN5Eigen8internal9evaluatorINS_5BlockINS_6MatrixIdLin1ELin1ELi0ELin1ELin1EEELi1ELin1ELb0EEEEC2ERKS5_, symObjAddr: 0x3D50, symBinAddr: 0x10000BD58, symSize: 0x34 }
  - { offsetInCU: 0x8D057, offset: 0xA0A47, size: 0x8, addend: 0x0, symName: __ZN5Eigen8internal15block_evaluatorINS_6MatrixIdLin1ELin1ELi0ELin1ELin1EEELi1ELin1ELb0ELb1EEC2ERKNS_5BlockIS3_Li1ELin1ELb0EEE, symObjAddr: 0x3D84, symBinAddr: 0x10000BD8C, symSize: 0xDC }
  - { offsetInCU: 0x8D090, offset: 0xA0A80, size: 0x8, addend: 0x0, symName: __ZN5Eigen8internal17mapbase_evaluatorINS_5BlockINS_6MatrixIdLin1ELin1ELi0ELin1ELin1EEELi1ELin1ELb0EEENS3_IdLi1ELin1ELi1ELi1ELin1EEEEC2ERKS5_, symObjAddr: 0x3E60, symBinAddr: 0x10000BE68, symSize: 0xB0 }
  - { offsetInCU: 0x8D0C9, offset: 0xA0AB9, size: 0x8, addend: 0x0, symName: __ZNK5Eigen7MapBaseINS_5BlockINS_6MatrixIdLin1ELin1ELi0ELin1ELin1EEELi1ELin1ELb0EEELi1EE4dataEv, symObjAddr: 0x3F10, symBinAddr: 0x10000BF18, symSize: 0x18 }
  - { offsetInCU: 0x8D0EF, offset: 0xA0ADF, size: 0x8, addend: 0x0, symName: __ZN5Eigen8internal17mapbase_evaluatorINS_5BlockINS_6MatrixIdLin1ELin1ELi0ELin1ELin1EEELi1ELin1ELb0EEENS3_IdLi1ELin1ELi1ELi1ELin1EEEED2Ev, symObjAddr: 0x3F28, symBinAddr: 0x10000BF30, symSize: 0x2C }
  - { offsetInCU: 0x8D11C, offset: 0xA0B0C, size: 0x8, addend: 0x0, symName: __ZN5Eigen8internal14evaluator_baseINS_5BlockINS_6MatrixIdLin1ELin1ELi0ELin1ELin1EEELi1ELin1ELb0EEEEC2Ev, symObjAddr: 0x3F54, symBinAddr: 0x10000BF5C, symSize: 0x14 }
  - { offsetInCU: 0x8D146, offset: 0xA0B36, size: 0x8, addend: 0x0, symName: __ZNK5Eigen8internal15BlockImpl_denseINS_6MatrixIdLin1ELin1ELi0ELin1ELin1EEELi1ELin1ELb0ELb1EE11innerStrideEv, symObjAddr: 0x3F68, symBinAddr: 0x10000BF70, symSize: 0x28 }
  - { offsetInCU: 0x8D16C, offset: 0xA0B5C, size: 0x8, addend: 0x0, symName: __ZNK5Eigen8internal15BlockImpl_denseINS_6MatrixIdLin1ELin1ELi0ELin1ELin1EEELi1ELin1ELb0ELb1EE11outerStrideEv, symObjAddr: 0x3F90, symBinAddr: 0x10000BF98, symSize: 0x28 }
  - { offsetInCU: 0x8D192, offset: 0xA0B82, size: 0x8, addend: 0x0, symName: __ZN5Eigen8internal14evaluator_baseINS_5BlockINS_6MatrixIdLin1ELin1ELi0ELin1ELin1EEELi1ELin1ELb0EEEED2Ev, symObjAddr: 0x3FB8, symBinAddr: 0x10000BFC0, symSize: 0x14 }
  - { offsetInCU: 0x8D1BC, offset: 0xA0BAC, size: 0x8, addend: 0x0, symName: __ZN5Eigen8internal31generic_dense_assignment_kernelINS0_9evaluatorINS_5BlockINS_6MatrixIdLin1ELin1ELi0ELin1ELin1EEELi1ELin1ELb0EEEEENS2_INS_13CwiseBinaryOpINS0_18scalar_quotient_opIddEEKNS8_INS0_20scalar_difference_opIddEEKNS3_IKS5_Li1ELin1ELb0EEESF_EESF_EEEENS0_9assign_opIddEELi0EEC2ERS7_RKSJ_RKSL_RS6_, symObjAddr: 0x3FCC, symBinAddr: 0x10000BFD4, symSize: 0x44 }
  - { offsetInCU: 0x8D222, offset: 0xA0C12, size: 0x8, addend: 0x0, symName: __ZNK5Eigen8internal31generic_dense_assignment_kernelINS0_9evaluatorINS_5BlockINS_6MatrixIdLin1ELin1ELi0ELin1ELin1EEELi1ELin1ELb0EEEEENS2_INS_13CwiseBinaryOpINS0_18scalar_quotient_opIddEEKNS8_INS0_20scalar_difference_opIddEEKNS3_IKS5_Li1ELin1ELb0EEESF_EESF_EEEENS0_9assign_opIddEELi0EE4sizeEv, symObjAddr: 0x4010, symBinAddr: 0x10000C018, symSize: 0x28 }
  - { offsetInCU: 0x8D248, offset: 0xA0C38, size: 0x8, addend: 0x0, symName: __ZN5Eigen8internal31generic_dense_assignment_kernelINS0_9evaluatorINS_5BlockINS_6MatrixIdLin1ELin1ELi0ELin1ELin1EEELi1ELin1ELb0EEEEENS2_INS_13CwiseBinaryOpINS0_18scalar_quotient_opIddEEKNS8_INS0_20scalar_difference_opIddEEKNS3_IKS5_Li1ELin1ELb0EEESF_EESF_EEEENS0_9assign_opIddEELi0EE11assignCoeffEl, symObjAddr: 0x4038, symBinAddr: 0x10000C040, symSize: 0x64 }
  - { offsetInCU: 0x8D27D, offset: 0xA0C6D, size: 0x8, addend: 0x0, symName: __ZNK5Eigen9EigenBaseINS_5BlockINS_6MatrixIdLin1ELin1ELi0ELin1ELin1EEELi1ELin1ELb0EEEE4sizeEv, symObjAddr: 0x409C, symBinAddr: 0x10000C0A4, symSize: 0x44 }
  - { offsetInCU: 0x8D2A3, offset: 0xA0C93, size: 0x8, addend: 0x0, symName: __ZNK5Eigen8internal9assign_opIddE11assignCoeffERdRKd, symObjAddr: 0x40E0, symBinAddr: 0x10000C0E8, symSize: 0x28 }
  - { offsetInCU: 0x8D2E5, offset: 0xA0CD5, size: 0x8, addend: 0x0, symName: __ZN5Eigen8internal17mapbase_evaluatorINS_5BlockINS_6MatrixIdLin1ELin1ELi0ELin1ELin1EEELi1ELin1ELb0EEENS3_IdLi1ELin1ELi1ELi1ELin1EEEE8coeffRefEl, symObjAddr: 0x4108, symBinAddr: 0x10000C110, symSize: 0x4C }
  - { offsetInCU: 0x8D31A, offset: 0xA0D0A, size: 0x8, addend: 0x0, symName: __ZNK5Eigen8internal16binary_evaluatorINS_13CwiseBinaryOpINS0_18scalar_quotient_opIddEEKNS2_INS0_20scalar_difference_opIddEEKNS_5BlockIKNS_6MatrixIdLin1ELin1ELi0ELin1ELin1EEELi1ELin1ELb0EEESC_EESC_EENS0_10IndexBasedESG_ddE5coeffEl, symObjAddr: 0x4154, symBinAddr: 0x10000C15C, symSize: 0x70 }
  - { offsetInCU: 0x8D34F, offset: 0xA0D3F, size: 0x8, addend: 0x0, symName: __ZNK5Eigen8internal16binary_evaluatorINS_13CwiseBinaryOpINS0_18scalar_quotient_opIddEEKNS2_INS0_20scalar_difference_opIddEEKNS_5BlockIKNS_6MatrixIdLin1ELin1ELi0ELin1ELin1EEELi1ELin1ELb0EEESC_EESC_EENS0_10IndexBasedESG_ddE4Data4funcEv, symObjAddr: 0x41C4, symBinAddr: 0x10000C1CC, symSize: 0x14 }
  - { offsetInCU: 0x8D375, offset: 0xA0D65, size: 0x8, addend: 0x0, symName: __ZNK5Eigen8internal18scalar_quotient_opIddEclERKdS4_, symObjAddr: 0x41D8, symBinAddr: 0x10000C1E0, symSize: 0x2C }
  - { offsetInCU: 0x8D3B9, offset: 0xA0DA9, size: 0x8, addend: 0x0, symName: __ZNK5Eigen8internal16binary_evaluatorINS_13CwiseBinaryOpINS0_20scalar_difference_opIddEEKNS_5BlockIKNS_6MatrixIdLin1ELin1ELi0ELin1ELin1EEELi1ELin1ELb0EEESA_EENS0_10IndexBasedESC_ddE5coeffEl, symObjAddr: 0x4204, symBinAddr: 0x10000C20C, symSize: 0x70 }
  - { offsetInCU: 0x8D3EE, offset: 0xA0DDE, size: 0x8, addend: 0x0, symName: __ZNK5Eigen8internal17mapbase_evaluatorINS_5BlockIKNS_6MatrixIdLin1ELin1ELi0ELin1ELin1EEELi1ELin1ELb0EEENS3_IdLi1ELin1ELi1ELi1ELin1EEEE5coeffEl, symObjAddr: 0x4274, symBinAddr: 0x10000C27C, symSize: 0x4C }
  - { offsetInCU: 0x8D423, offset: 0xA0E13, size: 0x8, addend: 0x0, symName: __ZNK5Eigen8internal16binary_evaluatorINS_13CwiseBinaryOpINS0_20scalar_difference_opIddEEKNS_5BlockIKNS_6MatrixIdLin1ELin1ELi0ELin1ELin1EEELi1ELin1ELb0EEESA_EENS0_10IndexBasedESC_ddE4Data4funcEv, symObjAddr: 0x42C0, symBinAddr: 0x10000C2C8, symSize: 0x14 }
  - { offsetInCU: 0x8D449, offset: 0xA0E39, size: 0x8, addend: 0x0, symName: __ZNK5Eigen8internal20scalar_difference_opIddEclERKdS4_, symObjAddr: 0x42D4, symBinAddr: 0x10000C2DC, symSize: 0x2C }
  - { offsetInCU: 0x8D48D, offset: 0xA0E7D, size: 0x8, addend: 0x0, symName: __ZN5Eigen8internal9evaluatorINS_5BlockINS_6MatrixIdLin1ELin1ELi0ELin1ELin1EEELi1ELin1ELb0EEEED2Ev, symObjAddr: 0x4300, symBinAddr: 0x10000C308, symSize: 0x2C }
  - { offsetInCU: 0x8D4BA, offset: 0xA0EAA, size: 0x8, addend: 0x0, symName: __ZN5Eigen8internal15block_evaluatorINS_6MatrixIdLin1ELin1ELi0ELin1ELin1EEELi1ELin1ELb0ELb1EED2Ev, symObjAddr: 0x432C, symBinAddr: 0x10000C334, symSize: 0x2C }
  - { offsetInCU: 0x8D4E7, offset: 0xA0ED7, size: 0x8, addend: 0x0, symName: __ZN5Eigen8internal9evaluatorINS_13CwiseBinaryOpINS0_18scalar_quotient_opIddEEKNS2_INS0_20scalar_difference_opIddEEKNS_5BlockIKNS_6MatrixIdLin1ELin1ELi0ELin1ELin1EEELi1ELin1ELb0EEESC_EESC_EEED2Ev, symObjAddr: 0x4358, symBinAddr: 0x10000C360, symSize: 0x2C }
  - { offsetInCU: 0x8D514, offset: 0xA0F04, size: 0x8, addend: 0x0, symName: __ZN5Eigen8internal16binary_evaluatorINS_13CwiseBinaryOpINS0_18scalar_quotient_opIddEEKNS2_INS0_20scalar_difference_opIddEEKNS_5BlockIKNS_6MatrixIdLin1ELin1ELi0ELin1ELin1EEELi1ELin1ELb0EEESC_EESC_EENS0_10IndexBasedESG_ddED2Ev, symObjAddr: 0x4384, symBinAddr: 0x10000C38C, symSize: 0x34 }
  - { offsetInCU: 0x8D540, offset: 0xA0F30, size: 0x8, addend: 0x0, symName: __ZN5Eigen8internal16binary_evaluatorINS_13CwiseBinaryOpINS0_18scalar_quotient_opIddEEKNS2_INS0_20scalar_difference_opIddEEKNS_5BlockIKNS_6MatrixIdLin1ELin1ELi0ELin1ELin1EEELi1ELin1ELb0EEESC_EESC_EENS0_10IndexBasedESG_ddE4DataD1Ev, symObjAddr: 0x43B8, symBinAddr: 0x10000C3C0, symSize: 0x2C }
  - { offsetInCU: 0x8D56D, offset: 0xA0F5D, size: 0x8, addend: 0x0, symName: __ZN5Eigen8internal16binary_evaluatorINS_13CwiseBinaryOpINS0_18scalar_quotient_opIddEEKNS2_INS0_20scalar_difference_opIddEEKNS_5BlockIKNS_6MatrixIdLin1ELin1ELi0ELin1ELin1EEELi1ELin1ELb0EEESC_EESC_EENS0_10IndexBasedESG_ddE4DataD2Ev, symObjAddr: 0x43E4, symBinAddr: 0x10000C3EC, symSize: 0x3C }
  - { offsetInCU: 0x8D59A, offset: 0xA0F8A, size: 0x8, addend: 0x0, symName: __ZN5Eigen8internal9assign_opIddEC2Ev, symObjAddr: 0x4420, symBinAddr: 0x10000C428, symSize: 0x14 }
  - { offsetInCU: 0x8D5C4, offset: 0xA0FB4, size: 0x8, addend: 0x0, symName: __ZN5Eigen12VectorwiseOpIKNS_6MatrixIdLin1ELin1ELi0ELin1ELin1EEELi0EEC1ERS3_, symObjAddr: 0x4434, symBinAddr: 0x10000C43C, symSize: 0x34 }
  - { offsetInCU: 0x8D5FD, offset: 0xA0FED, size: 0x8, addend: 0x0, symName: __ZN5Eigen12VectorwiseOpIKNS_6MatrixIdLin1ELin1ELi0ELin1ELin1EEELi0EEC2ERS3_, symObjAddr: 0x4468, symBinAddr: 0x10000C470, symSize: 0x20 }
  - { offsetInCU: 0x8D636, offset: 0xA1026, size: 0x8, addend: 0x0, symName: __ZNK5Eigen12VectorwiseOpIKNS_6MatrixIdLin1ELin1ELi0ELin1ELin1EEELi0EE3sumEv, symObjAddr: 0x4488, symBinAddr: 0x10000C490, symSize: 0x4C }
  - { offsetInCU: 0x8D65C, offset: 0xA104C, size: 0x8, addend: 0x0, symName: __ZNK5Eigen10MatrixBaseINS_16PartialReduxExprIKNS_6MatrixIdLin1ELin1ELi0ELin1ELin1EEENS_8internal10member_sumIddEELi0EEEEdvIdEEKNS_13CwiseBinaryOpINS5_18scalar_quotient_opIdNS5_18promote_scalar_argIdT_Xsr5Eigen8internal14has_ReturnTypeINS_20ScalarBinaryOpTraitsIdSE_NSC_IdSE_EEEEEE5valueEE4typeEEEKS8_KNS5_19plain_constant_typeIS8_SJ_E4typeEEERKSE_, symObjAddr: 0x44D4, symBinAddr: 0x10000C4DC, symSize: 0xA8 }
  - { offsetInCU: 0x8D699, offset: 0xA1089, size: 0x8, addend: 0x0, symName: __ZNK5Eigen12VectorwiseOpIKNS_6MatrixIdLin1ELin1ELi0ELin1ELin1EEELi0EE11_expressionEv, symObjAddr: 0x457C, symBinAddr: 0x10000C584, symSize: 0x18 }
  - { offsetInCU: 0x8D6BF, offset: 0xA10AF, size: 0x8, addend: 0x0, symName: __ZN5Eigen8internal10member_sumIddEC1Ev, symObjAddr: 0x4594, symBinAddr: 0x10000C59C, symSize: 0x2C }
  - { offsetInCU: 0x8D6E9, offset: 0xA10D9, size: 0x8, addend: 0x0, symName: __ZN5Eigen16PartialReduxExprIKNS_6MatrixIdLin1ELin1ELi0ELin1ELin1EEENS_8internal10member_sumIddEELi0EEC1ERS3_RKS6_, symObjAddr: 0x45C0, symBinAddr: 0x10000C5C8, symSize: 0x3C }
  - { offsetInCU: 0x8D72F, offset: 0xA111F, size: 0x8, addend: 0x0, symName: __ZN5Eigen8internal10member_sumIddEC2Ev, symObjAddr: 0x45FC, symBinAddr: 0x10000C604, symSize: 0x14 }
  - { offsetInCU: 0x8D759, offset: 0xA1149, size: 0x8, addend: 0x0, symName: __ZN5Eigen16PartialReduxExprIKNS_6MatrixIdLin1ELin1ELi0ELin1ELin1EEENS_8internal10member_sumIddEELi0EEC2ERS3_RKS6_, symObjAddr: 0x4610, symBinAddr: 0x10000C618, symSize: 0x4C }
  - { offsetInCU: 0x8D79F, offset: 0xA118F, size: 0x8, addend: 0x0, symName: __ZN5Eigen10MatrixBaseINS_16PartialReduxExprIKNS_6MatrixIdLin1ELin1ELi0ELin1ELin1EEENS_8internal10member_sumIddEELi0EEEEC2Ev, symObjAddr: 0x465C, symBinAddr: 0x10000C664, symSize: 0x2C }
  - { offsetInCU: 0x8D7C9, offset: 0xA11B9, size: 0x8, addend: 0x0, symName: __ZN5Eigen8internal10member_sumIddEC1ERKS2_, symObjAddr: 0x4688, symBinAddr: 0x10000C690, symSize: 0x34 }
  - { offsetInCU: 0x8D7FE, offset: 0xA11EE, size: 0x8, addend: 0x0, symName: __ZN5Eigen9DenseBaseINS_16PartialReduxExprIKNS_6MatrixIdLin1ELin1ELi0ELin1ELin1EEENS_8internal10member_sumIddEELi0EEEEC2Ev, symObjAddr: 0x46BC, symBinAddr: 0x10000C6C4, symSize: 0x14 }
  - { offsetInCU: 0x8D828, offset: 0xA1218, size: 0x8, addend: 0x0, symName: __ZN5Eigen8internal10member_sumIddEC2ERKS2_, symObjAddr: 0x46D0, symBinAddr: 0x10000C6D8, symSize: 0x18 }
  - { offsetInCU: 0x8D85D, offset: 0xA124D, size: 0x8, addend: 0x0, symName: __ZNK5Eigen9EigenBaseINS_16PartialReduxExprIKNS_6MatrixIdLin1ELin1ELi0ELin1ELin1EEENS_8internal10member_sumIddEELi0EEEE7derivedEv, symObjAddr: 0x46E8, symBinAddr: 0x10000C6F0, symSize: 0x14 }
  - { offsetInCU: 0x8D883, offset: 0xA1273, size: 0x8, addend: 0x0, symName: __ZNK5Eigen16PartialReduxExprIKNS_6MatrixIdLin1ELin1ELi0ELin1ELin1EEENS_8internal10member_sumIddEELi0EE4rowsEv, symObjAddr: 0x46FC, symBinAddr: 0x10000C704, symSize: 0x14 }
  - { offsetInCU: 0x8D8A9, offset: 0xA1299, size: 0x8, addend: 0x0, symName: __ZNK5Eigen16PartialReduxExprIKNS_6MatrixIdLin1ELin1ELi0ELin1ELin1EEENS_8internal10member_sumIddEELi0EE4colsEv, symObjAddr: 0x4710, symBinAddr: 0x10000C718, symSize: 0x28 }
  - { offsetInCU: 0x8D8CF, offset: 0xA12BF, size: 0x8, addend: 0x0, symName: __ZN5Eigen8internal18scalar_constant_opIdEC1ERKd, symObjAddr: 0x4738, symBinAddr: 0x10000C740, symSize: 0x34 }
  - { offsetInCU: 0x8D907, offset: 0xA12F7, size: 0x8, addend: 0x0, symName: __ZN5Eigen14CwiseNullaryOpINS_8internal18scalar_constant_opIdEEKNS_6MatrixIdLi1ELin1ELi1ELi1ELin1EEEEC1EllRKS3_, symObjAddr: 0x476C, symBinAddr: 0x10000C774, symSize: 0x44 }
  - { offsetInCU: 0x8D95B, offset: 0xA134B, size: 0x8, addend: 0x0, symName: __ZN5Eigen13CwiseBinaryOpINS_8internal18scalar_quotient_opIddEEKNS_16PartialReduxExprIKNS_6MatrixIdLin1ELin1ELi0ELin1ELin1EEENS1_10member_sumIddEELi0EEEKNS_14CwiseNullaryOpINS1_18scalar_constant_opIdEEKNS5_IdLi1ELin1ELi1ELi1ELin1EEEEEEC1ERSB_RSI_RKS3_, symObjAddr: 0x47B0, symBinAddr: 0x10000C7B8, symSize: 0x44 }
  - { offsetInCU: 0x8D9AF, offset: 0xA139F, size: 0x8, addend: 0x0, symName: __ZN5Eigen8internal18scalar_constant_opIdEC2ERKd, symObjAddr: 0x47F4, symBinAddr: 0x10000C7FC, symSize: 0x24 }
  - { offsetInCU: 0x8D9E7, offset: 0xA13D7, size: 0x8, addend: 0x0, symName: __ZN5Eigen14CwiseNullaryOpINS_8internal18scalar_constant_opIdEEKNS_6MatrixIdLi1ELin1ELi1ELi1ELin1EEEEC2EllRKS3_, symObjAddr: 0x4818, symBinAddr: 0x10000C820, symSize: 0xFC }
  - { offsetInCU: 0x8DA3B, offset: 0xA142B, size: 0x8, addend: 0x0, symName: __ZN5Eigen10MatrixBaseINS_14CwiseNullaryOpINS_8internal18scalar_constant_opIdEEKNS_6MatrixIdLi1ELin1ELi1ELi1ELin1EEEEEEC2Ev, symObjAddr: 0x4914, symBinAddr: 0x10000C91C, symSize: 0x2C }
  - { offsetInCU: 0x8DA65, offset: 0xA1455, size: 0x8, addend: 0x0, symName: __ZN5Eigen8internal18scalar_constant_opIdEC1ERKS2_, symObjAddr: 0x4940, symBinAddr: 0x10000C948, symSize: 0x34 }
  - { offsetInCU: 0x8DA9D, offset: 0xA148D, size: 0x8, addend: 0x0, symName: __ZN5Eigen9DenseBaseINS_14CwiseNullaryOpINS_8internal18scalar_constant_opIdEEKNS_6MatrixIdLi1ELin1ELi1ELi1ELin1EEEEEEC2Ev, symObjAddr: 0x4974, symBinAddr: 0x10000C97C, symSize: 0x14 }
  - { offsetInCU: 0x8DAC7, offset: 0xA14B7, size: 0x8, addend: 0x0, symName: __ZN5Eigen8internal18scalar_constant_opIdEC2ERKS2_, symObjAddr: 0x4988, symBinAddr: 0x10000C990, symSize: 0x24 }
  - { offsetInCU: 0x8DAFF, offset: 0xA14EF, size: 0x8, addend: 0x0, symName: __ZN5Eigen13CwiseBinaryOpINS_8internal18scalar_quotient_opIddEEKNS_16PartialReduxExprIKNS_6MatrixIdLin1ELin1ELi0ELin1ELin1EEENS1_10member_sumIddEELi0EEEKNS_14CwiseNullaryOpINS1_18scalar_constant_opIdEEKNS5_IdLi1ELin1ELi1ELi1ELin1EEEEEEC2ERSB_RSI_RKS3_, symObjAddr: 0x49AC, symBinAddr: 0x10000C9B4, symSize: 0xFC }
  - { offsetInCU: 0x8DB58, offset: 0xA1548, size: 0x8, addend: 0x0, symName: __ZN5Eigen17CwiseBinaryOpImplINS_8internal18scalar_quotient_opIddEEKNS_16PartialReduxExprIKNS_6MatrixIdLin1ELin1ELi0ELin1ELin1EEENS1_10member_sumIddEELi0EEEKNS_14CwiseNullaryOpINS1_18scalar_constant_opIdEEKNS5_IdLi1ELin1ELi1ELi1ELin1EEEEENS_5DenseEEC2Ev, symObjAddr: 0x4AA8, symBinAddr: 0x10000CAB0, symSize: 0x2C }
  - { offsetInCU: 0x8DB84, offset: 0xA1574, size: 0x8, addend: 0x0, symName: __ZN5Eigen16PartialReduxExprIKNS_6MatrixIdLin1ELin1ELi0ELin1ELin1EEENS_8internal10member_sumIddEELi0EEC1ERKS7_, symObjAddr: 0x4AD4, symBinAddr: 0x10000CADC, symSize: 0x34 }
  - { offsetInCU: 0x8DBB9, offset: 0xA15A9, size: 0x8, addend: 0x0, symName: __ZN5Eigen14CwiseNullaryOpINS_8internal18scalar_constant_opIdEEKNS_6MatrixIdLi1ELin1ELi1ELi1ELin1EEEEC1ERKS7_, symObjAddr: 0x4B08, symBinAddr: 0x10000CB10, symSize: 0x34 }
  - { offsetInCU: 0x8DBEE, offset: 0xA15DE, size: 0x8, addend: 0x0, symName: __ZNK5Eigen14CwiseNullaryOpINS_8internal18scalar_constant_opIdEEKNS_6MatrixIdLi1ELin1ELi1ELi1ELin1EEEE4rowsEv, symObjAddr: 0x4B3C, symBinAddr: 0x10000CB44, symSize: 0x20 }
  - { offsetInCU: 0x8DC14, offset: 0xA1604, size: 0x8, addend: 0x0, symName: __ZNK5Eigen14CwiseNullaryOpINS_8internal18scalar_constant_opIdEEKNS_6MatrixIdLi1ELin1ELi1ELi1ELin1EEEE4colsEv, symObjAddr: 0x4B5C, symBinAddr: 0x10000CB64, symSize: 0x28 }
  - { offsetInCU: 0x8DC3A, offset: 0xA162A, size: 0x8, addend: 0x0, symName: __ZN5Eigen10MatrixBaseINS_13CwiseBinaryOpINS_8internal18scalar_quotient_opIddEEKNS_16PartialReduxExprIKNS_6MatrixIdLin1ELin1ELi0ELin1ELin1EEENS2_10member_sumIddEELi0EEEKNS_14CwiseNullaryOpINS2_18scalar_constant_opIdEEKNS6_IdLi1ELin1ELi1ELi1ELin1EEEEEEEEC2Ev, symObjAddr: 0x4B84, symBinAddr: 0x10000CB8C, symSize: 0x2C }
  - { offsetInCU: 0x8DC64, offset: 0xA1654, size: 0x8, addend: 0x0, symName: __ZN5Eigen9DenseBaseINS_13CwiseBinaryOpINS_8internal18scalar_quotient_opIddEEKNS_16PartialReduxExprIKNS_6MatrixIdLin1ELin1ELi0ELin1ELin1EEENS2_10member_sumIddEELi0EEEKNS_14CwiseNullaryOpINS2_18scalar_constant_opIdEEKNS6_IdLi1ELin1ELi1ELi1ELin1EEEEEEEEC2Ev, symObjAddr: 0x4BB0, symBinAddr: 0x10000CBB8, symSize: 0x14 }
  - { offsetInCU: 0x8DC8E, offset: 0xA167E, size: 0x8, addend: 0x0, symName: __ZN5Eigen16PartialReduxExprIKNS_6MatrixIdLin1ELin1ELi0ELin1ELin1EEENS_8internal10member_sumIddEELi0EEC2ERKS7_, symObjAddr: 0x4BC4, symBinAddr: 0x10000CBCC, symSize: 0x48 }
  - { offsetInCU: 0x8DCC3, offset: 0xA16B3, size: 0x8, addend: 0x0, symName: __ZN5Eigen14CwiseNullaryOpINS_8internal18scalar_constant_opIdEEKNS_6MatrixIdLi1ELin1ELi1ELi1ELin1EEEEC2ERKS7_, symObjAddr: 0x4C0C, symBinAddr: 0x10000CC14, symSize: 0x48 }
  - { offsetInCU: 0x8DCF8, offset: 0xA16E8, size: 0x8, addend: 0x0, symName: __ZN5Eigen6MatrixIdLin1ELi1ELi0ELin1ELi1EEC2INS_13CwiseBinaryOpINS_8internal18scalar_quotient_opIddEEKNS_16PartialReduxExprIKNS0_IdLin1ELin1ELi0ELin1ELin1EEENS4_10member_sumIddEELi0EEEKNS_14CwiseNullaryOpINS4_18scalar_constant_opIdEEKNS0_IdLi1ELin1ELi1ELi1ELin1EEEEEEEEERKNS_9EigenBaseIT_EE, symObjAddr: 0x4C54, symBinAddr: 0x10000CC5C, symSize: 0x40 }
  - { offsetInCU: 0x8DD3A, offset: 0xA172A, size: 0x8, addend: 0x0, symName: __ZNK5Eigen9EigenBaseINS_13CwiseBinaryOpINS_8internal18scalar_quotient_opIddEEKNS_16PartialReduxExprIKNS_6MatrixIdLin1ELin1ELi0ELin1ELin1EEENS2_10member_sumIddEELi0EEEKNS_14CwiseNullaryOpINS2_18scalar_constant_opIdEEKNS6_IdLi1ELin1ELi1ELi1ELin1EEEEEEEE7derivedEv, symObjAddr: 0x4C94, symBinAddr: 0x10000CC9C, symSize: 0x14 }
  - { offsetInCU: 0x8DD60, offset: 0xA1750, size: 0x8, addend: 0x0, symName: __ZN5Eigen15PlainObjectBaseINS_6MatrixIdLin1ELi1ELi0ELin1ELi1EEEEC2INS_13CwiseBinaryOpINS_8internal18scalar_quotient_opIddEEKNS_16PartialReduxExprIKNS1_IdLin1ELin1ELi0ELin1ELin1EEENS6_10member_sumIddEELi0EEEKNS_14CwiseNullaryOpINS6_18scalar_constant_opIdEEKNS1_IdLi1ELin1ELi1ELi1ELin1EEEEEEEEERKNS_9DenseBaseIT_EE, symObjAddr: 0x4CA8, symBinAddr: 0x10000CCB0, symSize: 0x84 }
  - { offsetInCU: 0x8DDA2, offset: 0xA1792, size: 0x8, addend: 0x0, symName: __ZN5Eigen10MatrixBaseINS_6MatrixIdLin1ELi1ELi0ELin1ELi1EEEEC2Ev, symObjAddr: 0x4D2C, symBinAddr: 0x10000CD34, symSize: 0x2C }
  - { offsetInCU: 0x8DDCC, offset: 0xA17BC, size: 0x8, addend: 0x0, symName: __ZN5Eigen12DenseStorageIdLin1ELin1ELi1ELi0EEC1Ev, symObjAddr: 0x4D58, symBinAddr: 0x10000CD60, symSize: 0x2C }
  - { offsetInCU: 0x8DDF6, offset: 0xA17E6, size: 0x8, addend: 0x0, symName: __ZN5Eigen15PlainObjectBaseINS_6MatrixIdLin1ELi1ELi0ELin1ELi1EEEE22_check_template_paramsEv, symObjAddr: 0x4D84, symBinAddr: 0x10000CD8C, symSize: 0x4 }
  - { offsetInCU: 0x8DE0A, offset: 0xA17FA, size: 0x8, addend: 0x0, symName: __ZN5Eigen15PlainObjectBaseINS_6MatrixIdLin1ELi1ELi0ELin1ELi1EEEE10resizeLikeINS_13CwiseBinaryOpINS_8internal18scalar_quotient_opIddEEKNS_16PartialReduxExprIKNS1_IdLin1ELin1ELi0ELin1ELin1EEENS6_10member_sumIddEELi0EEEKNS_14CwiseNullaryOpINS6_18scalar_constant_opIdEEKNS1_IdLi1ELin1ELi1ELi1ELin1EEEEEEEEEvRKNS_9EigenBaseIT_EE, symObjAddr: 0x4D88, symBinAddr: 0x10000CD90, symSize: 0x170 }
  - { offsetInCU: 0x8DEA1, offset: 0xA1891, size: 0x8, addend: 0x0, symName: __ZN5Eigen15PlainObjectBaseINS_6MatrixIdLin1ELi1ELi0ELin1ELi1EEEE12_set_noaliasINS_13CwiseBinaryOpINS_8internal18scalar_quotient_opIddEEKNS_16PartialReduxExprIKNS1_IdLin1ELin1ELi0ELin1ELin1EEENS6_10member_sumIddEELi0EEEKNS_14CwiseNullaryOpINS6_18scalar_constant_opIdEEKNS1_IdLi1ELin1ELi1ELi1ELin1EEEEEEEEERS2_RKNS_9DenseBaseIT_EE, symObjAddr: 0x4EF8, symBinAddr: 0x10000CF00, symSize: 0x60 }
  - { offsetInCU: 0x8DEDF, offset: 0xA18CF, size: 0x8, addend: 0x0, symName: __ZN5Eigen9DenseBaseINS_6MatrixIdLin1ELi1ELi0ELin1ELi1EEEEC2Ev, symObjAddr: 0x4F58, symBinAddr: 0x10000CF60, symSize: 0x14 }
  - { offsetInCU: 0x8DF09, offset: 0xA18F9, size: 0x8, addend: 0x0, symName: __ZN5Eigen12DenseStorageIdLin1ELin1ELi1ELi0EEC2Ev, symObjAddr: 0x4F6C, symBinAddr: 0x10000CF74, symSize: 0x1C }
  - { offsetInCU: 0x8DF33, offset: 0xA1923, size: 0x8, addend: 0x0, symName: __ZNK5Eigen13CwiseBinaryOpINS_8internal18scalar_quotient_opIddEEKNS_16PartialReduxExprIKNS_6MatrixIdLin1ELin1ELi0ELin1ELin1EEENS1_10member_sumIddEELi0EEEKNS_14CwiseNullaryOpINS1_18scalar_constant_opIdEEKNS5_IdLi1ELin1ELi1ELi1ELin1EEEEEE4rowsEv, symObjAddr: 0x4F88, symBinAddr: 0x10000CF90, symSize: 0x28 }
  - { offsetInCU: 0x8DF59, offset: 0xA1949, size: 0x8, addend: 0x0, symName: __ZNK5Eigen13CwiseBinaryOpINS_8internal18scalar_quotient_opIddEEKNS_16PartialReduxExprIKNS_6MatrixIdLin1ELin1ELi0ELin1ELin1EEENS1_10member_sumIddEELi0EEEKNS_14CwiseNullaryOpINS1_18scalar_constant_opIdEEKNS5_IdLi1ELin1ELi1ELi1ELin1EEEEEE4colsEv, symObjAddr: 0x4FB0, symBinAddr: 0x10000CFB8, symSize: 0x28 }
  - { offsetInCU: 0x8DF7F, offset: 0xA196F, size: 0x8, addend: 0x0, symName: __ZN5Eigen15PlainObjectBaseINS_6MatrixIdLin1ELi1ELi0ELin1ELi1EEEE6resizeEll, symObjAddr: 0x4FD8, symBinAddr: 0x10000CFE0, symSize: 0x168 }
  - { offsetInCU: 0x8DFFE, offset: 0xA19EE, size: 0x8, addend: 0x0, symName: __ZN5Eigen12DenseStorageIdLin1ELin1ELi1ELi0EE6resizeElll, symObjAddr: 0x5140, symBinAddr: 0x10000D148, symSize: 0xA4 }
  - { offsetInCU: 0x8E04E, offset: 0xA1A3E, size: 0x8, addend: 0x0, symName: __ZN5Eigen9EigenBaseINS_6MatrixIdLin1ELi1ELi0ELin1ELi1EEEE7derivedEv, symObjAddr: 0x5228, symBinAddr: 0x10000D230, symSize: 0x14 }
  - { offsetInCU: 0x8E074, offset: 0xA1A64, size: 0x8, addend: 0x0, symName: __ZN5Eigen9TransposeINS_6MatrixIdLin1ELi1ELi0ELin1ELi1EEEEC1ERS2_, symObjAddr: 0x523C, symBinAddr: 0x10000D244, symSize: 0x34 }
  - { offsetInCU: 0x8E0AB, offset: 0xA1A9B, size: 0x8, addend: 0x0, symName: __ZN5Eigen8internal10AssignmentINS_9TransposeINS_6MatrixIdLin1ELi1ELi0ELin1ELi1EEEEENS_13CwiseBinaryOpINS0_18scalar_quotient_opIddEEKNS_16PartialReduxExprIKNS3_IdLin1ELin1ELi0ELin1ELin1EEENS0_10member_sumIddEELi0EEEKNS_14CwiseNullaryOpINS0_18scalar_constant_opIdEEKNS3_IdLi1ELin1ELi1ELi1ELin1EEEEEEENS0_9assign_opIddEENS0_11Dense2DenseEvE3runERS5_RKSN_RKSP_, symObjAddr: 0x5270, symBinAddr: 0x10000D278, symSize: 0x40 }
  - { offsetInCU: 0x8E0EE, offset: 0xA1ADE, size: 0x8, addend: 0x0, symName: __ZN5Eigen9TransposeINS_6MatrixIdLin1ELi1ELi0ELin1ELi1EEEEC2ERS2_, symObjAddr: 0x52B0, symBinAddr: 0x10000D2B8, symSize: 0x38 }
  - { offsetInCU: 0x8E126, offset: 0xA1B16, size: 0x8, addend: 0x0, symName: __ZN5Eigen13TransposeImplINS_6MatrixIdLin1ELi1ELi0ELin1ELi1EEENS_5DenseEEC2Ev, symObjAddr: 0x52E8, symBinAddr: 0x10000D2F0, symSize: 0x2C }
  - { offsetInCU: 0x8E150, offset: 0xA1B40, size: 0x8, addend: 0x0, symName: __ZN5Eigen10MatrixBaseINS_9TransposeINS_6MatrixIdLin1ELi1ELi0ELin1ELi1EEEEEEC2Ev, symObjAddr: 0x5314, symBinAddr: 0x10000D31C, symSize: 0x2C }
  - { offsetInCU: 0x8E17A, offset: 0xA1B6A, size: 0x8, addend: 0x0, symName: __ZN5Eigen9DenseBaseINS_9TransposeINS_6MatrixIdLin1ELi1ELi0ELin1ELi1EEEEEEC2Ev, symObjAddr: 0x5340, symBinAddr: 0x10000D348, symSize: 0x14 }
  - { offsetInCU: 0x8E23A, offset: 0xA1C2A, size: 0x8, addend: 0x0, symName: __ZN5Eigen8internal9evaluatorINS_13CwiseBinaryOpINS0_18scalar_quotient_opIddEEKNS_16PartialReduxExprIKNS_6MatrixIdLin1ELin1ELi0ELin1ELin1EEENS0_10member_sumIddEELi0EEEKNS_14CwiseNullaryOpINS0_18scalar_constant_opIdEEKNS6_IdLi1ELin1ELi1ELi1ELin1EEEEEEEEC1ERKSK_, symObjAddr: 0x5448, symBinAddr: 0x10000D450, symSize: 0x34 }
  - { offsetInCU: 0x8E2AA, offset: 0xA1C9A, size: 0x8, addend: 0x0, symName: __ZN5Eigen8internal9evaluatorINS_9TransposeINS_6MatrixIdLin1ELi1ELi0ELin1ELi1EEEEEEC1ERKS5_, symObjAddr: 0x5574, symBinAddr: 0x10000D57C, symSize: 0x34 }
  - { offsetInCU: 0x8E2E2, offset: 0xA1CD2, size: 0x8, addend: 0x0, symName: __ZNK5Eigen9EigenBaseINS_9TransposeINS_6MatrixIdLin1ELi1ELi0ELin1ELi1EEEEEE18const_cast_derivedEv, symObjAddr: 0x55A8, symBinAddr: 0x10000D5B0, symSize: 0x14 }
  - { offsetInCU: 0x8E335, offset: 0xA1D25, size: 0x8, addend: 0x0, symName: __ZN5Eigen8internal31generic_dense_assignment_kernelINS0_9evaluatorINS_9TransposeINS_6MatrixIdLin1ELi1ELi0ELin1ELi1EEEEEEENS2_INS_13CwiseBinaryOpINS0_18scalar_quotient_opIddEEKNS_16PartialReduxExprIKNS4_IdLin1ELin1ELi0ELin1ELin1EEENS0_10member_sumIddEELi0EEEKNS_14CwiseNullaryOpINS0_18scalar_constant_opIdEEKNS4_IdLi1ELin1ELi1ELi1ELin1EEEEEEEEENS0_9assign_opIddEELi0EEC1ERS7_RKSQ_RKSS_RS6_, symObjAddr: 0x55BC, symBinAddr: 0x10000D5C4, symSize: 0x4C }
  - { offsetInCU: 0x8E39F, offset: 0xA1D8F, size: 0x8, addend: 0x0, symName: __ZN5Eigen8internal21dense_assignment_loopINS0_31generic_dense_assignment_kernelINS0_9evaluatorINS_9TransposeINS_6MatrixIdLin1ELi1ELi0ELin1ELi1EEEEEEENS3_INS_13CwiseBinaryOpINS0_18scalar_quotient_opIddEEKNS_16PartialReduxExprIKNS5_IdLin1ELin1ELi0ELin1ELin1EEENS0_10member_sumIddEELi0EEEKNS_14CwiseNullaryOpINS0_18scalar_constant_opIdEEKNS5_IdLi1ELin1ELi1ELi1ELin1EEEEEEEEENS0_9assign_opIddEELi0EEELi1ELi0EE3runERSU_, symObjAddr: 0x5608, symBinAddr: 0x10000D610, symSize: 0x68 }
  - { offsetInCU: 0x8E3F0, offset: 0xA1DE0, size: 0x8, addend: 0x0, symName: __ZN5Eigen8internal9evaluatorINS_9TransposeINS_6MatrixIdLin1ELi1ELi0ELin1ELi1EEEEEED1Ev, symObjAddr: 0x5670, symBinAddr: 0x10000D678, symSize: 0x2C }
  - { offsetInCU: 0x8E41C, offset: 0xA1E0C, size: 0x8, addend: 0x0, symName: __ZN5Eigen8internal9evaluatorINS_13CwiseBinaryOpINS0_18scalar_quotient_opIddEEKNS_16PartialReduxExprIKNS_6MatrixIdLin1ELin1ELi0ELin1ELin1EEENS0_10member_sumIddEELi0EEEKNS_14CwiseNullaryOpINS0_18scalar_constant_opIdEEKNS6_IdLi1ELin1ELi1ELi1ELin1EEEEEEEED1Ev, symObjAddr: 0x569C, symBinAddr: 0x10000D6A4, symSize: 0x2C }
  - { offsetInCU: 0x8E449, offset: 0xA1E39, size: 0x8, addend: 0x0, symName: __ZN5Eigen8internal9evaluatorINS_13CwiseBinaryOpINS0_18scalar_quotient_opIddEEKNS_16PartialReduxExprIKNS_6MatrixIdLin1ELin1ELi0ELin1ELin1EEENS0_10member_sumIddEELi0EEEKNS_14CwiseNullaryOpINS0_18scalar_constant_opIdEEKNS6_IdLi1ELin1ELi1ELi1ELin1EEEEEEEEC2ERKSK_, symObjAddr: 0x56C8, symBinAddr: 0x10000D6D0, symSize: 0x34 }
  - { offsetInCU: 0x8E482, offset: 0xA1E72, size: 0x8, addend: 0x0, symName: __ZN5Eigen8internal16binary_evaluatorINS_13CwiseBinaryOpINS0_18scalar_quotient_opIddEEKNS_16PartialReduxExprIKNS_6MatrixIdLin1ELin1ELi0ELin1ELin1EEENS0_10member_sumIddEELi0EEEKNS_14CwiseNullaryOpINS0_18scalar_constant_opIdEEKNS6_IdLi1ELin1ELi1ELi1ELin1EEEEEEENS0_10IndexBasedESL_ddEC2ERKSK_, symObjAddr: 0x56FC, symBinAddr: 0x10000D704, symSize: 0x64 }
  - { offsetInCU: 0x8E4BB, offset: 0xA1EAB, size: 0x8, addend: 0x0, symName: __ZN5Eigen8internal14evaluator_baseINS_13CwiseBinaryOpINS0_18scalar_quotient_opIddEEKNS_16PartialReduxExprIKNS_6MatrixIdLin1ELin1ELi0ELin1ELin1EEENS0_10member_sumIddEELi0EEEKNS_14CwiseNullaryOpINS0_18scalar_constant_opIdEEKNS6_IdLi1ELin1ELi1ELi1ELin1EEEEEEEEC2Ev, symObjAddr: 0x5760, symBinAddr: 0x10000D768, symSize: 0x14 }
  - { offsetInCU: 0x8E4E5, offset: 0xA1ED5, size: 0x8, addend: 0x0, symName: __ZN5Eigen8internal16binary_evaluatorINS_13CwiseBinaryOpINS0_18scalar_quotient_opIddEEKNS_16PartialReduxExprIKNS_6MatrixIdLin1ELin1ELi0ELin1ELin1EEENS0_10member_sumIddEELi0EEEKNS_14CwiseNullaryOpINS0_18scalar_constant_opIdEEKNS6_IdLi1ELin1ELi1ELi1ELin1EEEEEEENS0_10IndexBasedESL_ddE4DataC1ERKSK_, symObjAddr: 0x5774, symBinAddr: 0x10000D77C, symSize: 0x34 }
  - { offsetInCU: 0x8E51E, offset: 0xA1F0E, size: 0x8, addend: 0x0, symName: __ZN5Eigen8internal14evaluator_baseINS_13CwiseBinaryOpINS0_18scalar_quotient_opIddEEKNS_16PartialReduxExprIKNS_6MatrixIdLin1ELin1ELi0ELin1ELin1EEENS0_10member_sumIddEELi0EEEKNS_14CwiseNullaryOpINS0_18scalar_constant_opIdEEKNS6_IdLi1ELin1ELi1ELi1ELin1EEEEEEEED2Ev, symObjAddr: 0x57A8, symBinAddr: 0x10000D7B0, symSize: 0x14 }
  - { offsetInCU: 0x8E548, offset: 0xA1F38, size: 0x8, addend: 0x0, symName: __ZN5Eigen8internal16binary_evaluatorINS_13CwiseBinaryOpINS0_18scalar_quotient_opIddEEKNS_16PartialReduxExprIKNS_6MatrixIdLin1ELin1ELi0ELin1ELin1EEENS0_10member_sumIddEELi0EEEKNS_14CwiseNullaryOpINS0_18scalar_constant_opIdEEKNS6_IdLi1ELin1ELi1ELi1ELin1EEEEEEENS0_10IndexBasedESL_ddE4DataC2ERKSK_, symObjAddr: 0x57BC, symBinAddr: 0x10000D7C4, symSize: 0xA8 }
  - { offsetInCU: 0x8E581, offset: 0xA1F71, size: 0x8, addend: 0x0, symName: __ZNK5Eigen13CwiseBinaryOpINS_8internal18scalar_quotient_opIddEEKNS_16PartialReduxExprIKNS_6MatrixIdLin1ELin1ELi0ELin1ELin1EEENS1_10member_sumIddEELi0EEEKNS_14CwiseNullaryOpINS1_18scalar_constant_opIdEEKNS5_IdLi1ELin1ELi1ELi1ELin1EEEEEE7functorEv, symObjAddr: 0x5864, symBinAddr: 0x10000D86C, symSize: 0x18 }
  - { offsetInCU: 0x8E5A7, offset: 0xA1F97, size: 0x8, addend: 0x0, symName: __ZNK5Eigen13CwiseBinaryOpINS_8internal18scalar_quotient_opIddEEKNS_16PartialReduxExprIKNS_6MatrixIdLin1ELin1ELi0ELin1ELin1EEENS1_10member_sumIddEELi0EEEKNS_14CwiseNullaryOpINS1_18scalar_constant_opIdEEKNS5_IdLi1ELin1ELi1ELi1ELin1EEEEEE3lhsEv, symObjAddr: 0x587C, symBinAddr: 0x10000D884, symSize: 0x18 }
  - { offsetInCU: 0x8E5CD, offset: 0xA1FBD, size: 0x8, addend: 0x0, symName: __ZN5Eigen8internal9evaluatorIKNS_16PartialReduxExprIKNS_6MatrixIdLin1ELin1ELi0ELin1ELin1EEENS0_10member_sumIddEELi0EEEEC1ERS9_, symObjAddr: 0x5894, symBinAddr: 0x10000D89C, symSize: 0x34 }
  - { offsetInCU: 0x8E605, offset: 0xA1FF5, size: 0x8, addend: 0x0, symName: __ZNK5Eigen13CwiseBinaryOpINS_8internal18scalar_quotient_opIddEEKNS_16PartialReduxExprIKNS_6MatrixIdLin1ELin1ELi0ELin1ELin1EEENS1_10member_sumIddEELi0EEEKNS_14CwiseNullaryOpINS1_18scalar_constant_opIdEEKNS5_IdLi1ELin1ELi1ELi1ELin1EEEEEE3rhsEv, symObjAddr: 0x58C8, symBinAddr: 0x10000D8D0, symSize: 0x18 }
  - { offsetInCU: 0x8E62B, offset: 0xA201B, size: 0x8, addend: 0x0, symName: __ZN5Eigen8internal9evaluatorIKNS_14CwiseNullaryOpINS0_18scalar_constant_opIdEEKNS_6MatrixIdLi1ELin1ELi1ELi1ELin1EEEEEEC1ERS9_, symObjAddr: 0x58E0, symBinAddr: 0x10000D8E8, symSize: 0x34 }
  - { offsetInCU: 0x8E663, offset: 0xA2053, size: 0x8, addend: 0x0, symName: __ZN5Eigen8internal9evaluatorIKNS_16PartialReduxExprIKNS_6MatrixIdLin1ELin1ELi0ELin1ELin1EEENS0_10member_sumIddEELi0EEEED1Ev, symObjAddr: 0x5914, symBinAddr: 0x10000D91C, symSize: 0x2C }
  - { offsetInCU: 0x8E68F, offset: 0xA207F, size: 0x8, addend: 0x0, symName: __ZN5Eigen8internal9evaluatorIKNS_16PartialReduxExprIKNS_6MatrixIdLin1ELin1ELi0ELin1ELin1EEENS0_10member_sumIddEELi0EEEEC2ERS9_, symObjAddr: 0x5940, symBinAddr: 0x10000D948, symSize: 0x48 }
  - { offsetInCU: 0x8E6C7, offset: 0xA20B7, size: 0x8, addend: 0x0, symName: __ZN5Eigen8internal9evaluatorINS_16PartialReduxExprIKNS_6MatrixIdLin1ELin1ELi0ELin1ELin1EEENS0_10member_sumIddEELi0EEEEC2ES8_, symObjAddr: 0x5988, symBinAddr: 0x10000D990, symSize: 0x9C }
  - { offsetInCU: 0x8E700, offset: 0xA20F0, size: 0x8, addend: 0x0, symName: __ZN5Eigen8internal14evaluator_baseINS_16PartialReduxExprIKNS_6MatrixIdLin1ELin1ELi0ELin1ELin1EEENS0_10member_sumIddEELi0EEEEC2Ev, symObjAddr: 0x5A24, symBinAddr: 0x10000DA2C, symSize: 0x14 }
  - { offsetInCU: 0x8E72A, offset: 0xA211A, size: 0x8, addend: 0x0, symName: __ZNK5Eigen16PartialReduxExprIKNS_6MatrixIdLin1ELin1ELi0ELin1ELin1EEENS_8internal10member_sumIddEELi0EE16nestedExpressionEv, symObjAddr: 0x5A38, symBinAddr: 0x10000DA40, symSize: 0x18 }
  - { offsetInCU: 0x8E750, offset: 0xA2140, size: 0x8, addend: 0x0, symName: __ZNK5Eigen16PartialReduxExprIKNS_6MatrixIdLin1ELin1ELi0ELin1ELin1EEENS_8internal10member_sumIddEELi0EE7functorEv, symObjAddr: 0x5A50, symBinAddr: 0x10000DA58, symSize: 0x18 }
  - { offsetInCU: 0x8E776, offset: 0xA2166, size: 0x8, addend: 0x0, symName: __ZN5Eigen8internal14evaluator_baseINS_16PartialReduxExprIKNS_6MatrixIdLin1ELin1ELi0ELin1ELin1EEENS0_10member_sumIddEELi0EEEED2Ev, symObjAddr: 0x5A68, symBinAddr: 0x10000DA70, symSize: 0x14 }
  - { offsetInCU: 0x8E7A0, offset: 0xA2190, size: 0x8, addend: 0x0, symName: __ZN5Eigen8internal9evaluatorIKNS_14CwiseNullaryOpINS0_18scalar_constant_opIdEEKNS_6MatrixIdLi1ELin1ELi1ELi1ELin1EEEEEEC2ERS9_, symObjAddr: 0x5A7C, symBinAddr: 0x10000DA84, symSize: 0x34 }
  - { offsetInCU: 0x8E7D8, offset: 0xA21C8, size: 0x8, addend: 0x0, symName: __ZN5Eigen8internal9evaluatorINS_14CwiseNullaryOpINS0_18scalar_constant_opIdEEKNS_6MatrixIdLi1ELin1ELi1ELi1ELin1EEEEEEC2ERKS8_, symObjAddr: 0x5AB0, symBinAddr: 0x10000DAB8, symSize: 0x74 }
  - { offsetInCU: 0x8E811, offset: 0xA2201, size: 0x8, addend: 0x0, symName: __ZN5Eigen8internal14evaluator_baseINS_14CwiseNullaryOpINS0_18scalar_constant_opIdEEKNS_6MatrixIdLi1ELin1ELi1ELi1ELin1EEEEEEC2Ev, symObjAddr: 0x5B24, symBinAddr: 0x10000DB2C, symSize: 0x14 }
  - { offsetInCU: 0x8E83B, offset: 0xA222B, size: 0x8, addend: 0x0, symName: __ZNK5Eigen14CwiseNullaryOpINS_8internal18scalar_constant_opIdEEKNS_6MatrixIdLi1ELin1ELi1ELi1ELin1EEEE7functorEv, symObjAddr: 0x5B38, symBinAddr: 0x10000DB40, symSize: 0x18 }
  - { offsetInCU: 0x8E861, offset: 0xA2251, size: 0x8, addend: 0x0, symName: __ZN5Eigen8internal14evaluator_baseINS_14CwiseNullaryOpINS0_18scalar_constant_opIdEEKNS_6MatrixIdLi1ELin1ELi1ELi1ELin1EEEEEED2Ev, symObjAddr: 0x5B50, symBinAddr: 0x10000DB58, symSize: 0x14 }
  - { offsetInCU: 0x8E88B, offset: 0xA227B, size: 0x8, addend: 0x0, symName: __ZN5Eigen8internal9evaluatorIKNS_16PartialReduxExprIKNS_6MatrixIdLin1ELin1ELi0ELin1ELin1EEENS0_10member_sumIddEELi0EEEED2Ev, symObjAddr: 0x5B64, symBinAddr: 0x10000DB6C, symSize: 0x2C }
  - { offsetInCU: 0x8E8B7, offset: 0xA22A7, size: 0x8, addend: 0x0, symName: __ZN5Eigen8internal9evaluatorINS_16PartialReduxExprIKNS_6MatrixIdLin1ELin1ELi0ELin1ELin1EEENS0_10member_sumIddEELi0EEEED2Ev, symObjAddr: 0x5B90, symBinAddr: 0x10000DB98, symSize: 0x2C }
  - { offsetInCU: 0x8E8E3, offset: 0xA22D3, size: 0x8, addend: 0x0, symName: __ZNK5Eigen9TransposeINS_6MatrixIdLin1ELi1ELi0ELin1ELi1EEEE4rowsEv, symObjAddr: 0x5BBC, symBinAddr: 0x10000DBC4, symSize: 0x28 }
  - { offsetInCU: 0x8E909, offset: 0xA22F9, size: 0x8, addend: 0x0, symName: __ZNK5Eigen9TransposeINS_6MatrixIdLin1ELi1ELi0ELin1ELi1EEEE4colsEv, symObjAddr: 0x5BE4, symBinAddr: 0x10000DBEC, symSize: 0x28 }
  - { offsetInCU: 0x8E92F, offset: 0xA231F, size: 0x8, addend: 0x0, symName: __ZN5Eigen9TransposeINS_6MatrixIdLin1ELi1ELi0ELin1ELi1EEEE6resizeEll, symObjAddr: 0x5C0C, symBinAddr: 0x10000DC14, symSize: 0x38 }
  - { offsetInCU: 0x8E971, offset: 0xA2361, size: 0x8, addend: 0x0, symName: __ZN5Eigen8internal9evaluatorINS_9TransposeINS_6MatrixIdLin1ELi1ELi0ELin1ELi1EEEEEEC2ERKS5_, symObjAddr: 0x5CB8, symBinAddr: 0x10000DC4C, symSize: 0x34 }
  - { offsetInCU: 0x8E9A9, offset: 0xA2399, size: 0x8, addend: 0x0, symName: __ZN5Eigen8internal15unary_evaluatorINS_9TransposeINS_6MatrixIdLin1ELi1ELi0ELin1ELi1EEEEENS0_10IndexBasedEdEC2ERKS5_, symObjAddr: 0x5CEC, symBinAddr: 0x10000DC80, symSize: 0x74 }
  - { offsetInCU: 0x8E9E2, offset: 0xA23D2, size: 0x8, addend: 0x0, symName: __ZN5Eigen8internal14evaluator_baseINS_9TransposeINS_6MatrixIdLin1ELi1ELi0ELin1ELi1EEEEEEC2Ev, symObjAddr: 0x5D60, symBinAddr: 0x10000DCF4, symSize: 0x14 }
  - { offsetInCU: 0x8EA0C, offset: 0xA23FC, size: 0x8, addend: 0x0, symName: __ZNK5Eigen9TransposeINS_6MatrixIdLin1ELi1ELi0ELin1ELi1EEEE16nestedExpressionEv, symObjAddr: 0x5D74, symBinAddr: 0x10000DD08, symSize: 0x18 }
  - { offsetInCU: 0x8EA32, offset: 0xA2422, size: 0x8, addend: 0x0, symName: __ZN5Eigen8internal9evaluatorINS_6MatrixIdLin1ELi1ELi0ELin1ELi1EEEEC1ERKS3_, symObjAddr: 0x5D8C, symBinAddr: 0x10000DD20, symSize: 0x34 }
  - { offsetInCU: 0x8EA6B, offset: 0xA245B, size: 0x8, addend: 0x0, symName: __ZN5Eigen8internal14evaluator_baseINS_9TransposeINS_6MatrixIdLin1ELi1ELi0ELin1ELi1EEEEEED2Ev, symObjAddr: 0x5DC0, symBinAddr: 0x10000DD54, symSize: 0x14 }
  - { offsetInCU: 0x8EA95, offset: 0xA2485, size: 0x8, addend: 0x0, symName: __ZN5Eigen8internal9evaluatorINS_6MatrixIdLin1ELi1ELi0ELin1ELi1EEEEC2ERKS3_, symObjAddr: 0x5DD4, symBinAddr: 0x10000DD68, symSize: 0x34 }
  - { offsetInCU: 0x8EACE, offset: 0xA24BE, size: 0x8, addend: 0x0, symName: __ZN5Eigen8internal9evaluatorINS_15PlainObjectBaseINS_6MatrixIdLin1ELi1ELi0ELin1ELi1EEEEEEC2ERKS5_, symObjAddr: 0x5E08, symBinAddr: 0x10000DD9C, symSize: 0x78 }
  - { offsetInCU: 0x8EB06, offset: 0xA24F6, size: 0x8, addend: 0x0, symName: __ZN5Eigen8internal14evaluator_baseINS_6MatrixIdLin1ELi1ELi0ELin1ELi1EEEEC2Ev, symObjAddr: 0x5E80, symBinAddr: 0x10000DE14, symSize: 0x14 }
  - { offsetInCU: 0x8EB30, offset: 0xA2520, size: 0x8, addend: 0x0, symName: __ZNK5Eigen15PlainObjectBaseINS_6MatrixIdLin1ELi1ELi0ELin1ELi1EEEE4dataEv, symObjAddr: 0x5E94, symBinAddr: 0x10000DE28, symSize: 0x24 }
  - { offsetInCU: 0x8EB56, offset: 0xA2546, size: 0x8, addend: 0x0, symName: __ZN5Eigen8internal30plainobjectbase_evaluator_dataIdLi0EEC1EPKdl, symObjAddr: 0x5EB8, symBinAddr: 0x10000DE4C, symSize: 0x3C }
  - { offsetInCU: 0x8EB9C, offset: 0xA258C, size: 0x8, addend: 0x0, symName: __ZN5Eigen8internal14evaluator_baseINS_6MatrixIdLin1ELi1ELi0ELin1ELi1EEEED2Ev, symObjAddr: 0x5EF4, symBinAddr: 0x10000DE88, symSize: 0x14 }
  - { offsetInCU: 0x8EBC6, offset: 0xA25B6, size: 0x8, addend: 0x0, symName: __ZN5Eigen8internal30plainobjectbase_evaluator_dataIdLi0EEC2EPKdl, symObjAddr: 0x5F20, symBinAddr: 0x10000DE9C, symSize: 0x40 }
  - { offsetInCU: 0x8EC0C, offset: 0xA25FC, size: 0x8, addend: 0x0, symName: __ZN5Eigen8internal31generic_dense_assignment_kernelINS0_9evaluatorINS_9TransposeINS_6MatrixIdLin1ELi1ELi0ELin1ELi1EEEEEEENS2_INS_13CwiseBinaryOpINS0_18scalar_quotient_opIddEEKNS_16PartialReduxExprIKNS4_IdLin1ELin1ELi0ELin1ELin1EEENS0_10member_sumIddEELi0EEEKNS_14CwiseNullaryOpINS0_18scalar_constant_opIdEEKNS4_IdLi1ELin1ELi1ELi1ELin1EEEEEEEEENS0_9assign_opIddEELi0EEC2ERS7_RKSQ_RKSS_RS6_, symObjAddr: 0x5F70, symBinAddr: 0x10000DEEC, symSize: 0x44 }
  - { offsetInCU: 0x8EC72, offset: 0xA2662, size: 0x8, addend: 0x0, symName: __ZNK5Eigen8internal31generic_dense_assignment_kernelINS0_9evaluatorINS_9TransposeINS_6MatrixIdLin1ELi1ELi0ELin1ELi1EEEEEEENS2_INS_13CwiseBinaryOpINS0_18scalar_quotient_opIddEEKNS_16PartialReduxExprIKNS4_IdLin1ELin1ELi0ELin1ELin1EEENS0_10member_sumIddEELi0EEEKNS_14CwiseNullaryOpINS0_18scalar_constant_opIdEEKNS4_IdLi1ELin1ELi1ELi1ELin1EEEEEEEEENS0_9assign_opIddEELi0EE4sizeEv, symObjAddr: 0x5FB4, symBinAddr: 0x10000DF30, symSize: 0x28 }
  - { offsetInCU: 0x8EC98, offset: 0xA2688, size: 0x8, addend: 0x0, symName: __ZN5Eigen8internal31generic_dense_assignment_kernelINS0_9evaluatorINS_9TransposeINS_6MatrixIdLin1ELi1ELi0ELin1ELi1EEEEEEENS2_INS_13CwiseBinaryOpINS0_18scalar_quotient_opIddEEKNS_16PartialReduxExprIKNS4_IdLin1ELin1ELi0ELin1ELin1EEENS0_10member_sumIddEELi0EEEKNS_14CwiseNullaryOpINS0_18scalar_constant_opIdEEKNS4_IdLi1ELin1ELi1ELi1ELin1EEEEEEEEENS0_9assign_opIddEELi0EE11assignCoeffEl, symObjAddr: 0x5FDC, symBinAddr: 0x10000DF58, symSize: 0x64 }
  - { offsetInCU: 0x8ECCD, offset: 0xA26BD, size: 0x8, addend: 0x0, symName: __ZNK5Eigen9EigenBaseINS_9TransposeINS_6MatrixIdLin1ELi1ELi0ELin1ELi1EEEEEE4sizeEv, symObjAddr: 0x6040, symBinAddr: 0x10000DFBC, symSize: 0x44 }
  - { offsetInCU: 0x8ECF3, offset: 0xA26E3, size: 0x8, addend: 0x0, symName: __ZNK5Eigen9EigenBaseINS_9TransposeINS_6MatrixIdLin1ELi1ELi0ELin1ELi1EEEEEE4rowsEv, symObjAddr: 0x6084, symBinAddr: 0x10000E000, symSize: 0x38 }
  - { offsetInCU: 0x8ED19, offset: 0xA2709, size: 0x8, addend: 0x0, symName: __ZNK5Eigen9EigenBaseINS_9TransposeINS_6MatrixIdLin1ELi1ELi0ELin1ELi1EEEEEE4colsEv, symObjAddr: 0x60BC, symBinAddr: 0x10000E038, symSize: 0x28 }
  - { offsetInCU: 0x8ED3F, offset: 0xA272F, size: 0x8, addend: 0x0, symName: __ZNK5Eigen9EigenBaseINS_9TransposeINS_6MatrixIdLin1ELi1ELi0ELin1ELi1EEEEEE7derivedEv, symObjAddr: 0x60E4, symBinAddr: 0x10000E060, symSize: 0x14 }
  - { offsetInCU: 0x8ED65, offset: 0xA2755, size: 0x8, addend: 0x0, symName: __ZN5Eigen8internal15unary_evaluatorINS_9TransposeINS_6MatrixIdLin1ELi1ELi0ELin1ELi1EEEEENS0_10IndexBasedEdE8coeffRefEl, symObjAddr: 0x60F8, symBinAddr: 0x10000E074, symSize: 0x2C }
  - { offsetInCU: 0x8ED9A, offset: 0xA278A, size: 0x8, addend: 0x0, symName: __ZNK5Eigen8internal16binary_evaluatorINS_13CwiseBinaryOpINS0_18scalar_quotient_opIddEEKNS_16PartialReduxExprIKNS_6MatrixIdLin1ELin1ELi0ELin1ELin1EEENS0_10member_sumIddEELi0EEEKNS_14CwiseNullaryOpINS0_18scalar_constant_opIdEEKNS6_IdLi1ELin1ELi1ELi1ELin1EEEEEEENS0_10IndexBasedESL_ddE5coeffEl, symObjAddr: 0x6124, symBinAddr: 0x10000E0A0, symSize: 0x70 }
  - { offsetInCU: 0x8EDCF, offset: 0xA27BF, size: 0x8, addend: 0x0, symName: __ZN5Eigen8internal9evaluatorINS_15PlainObjectBaseINS_6MatrixIdLin1ELi1ELi0ELin1ELi1EEEEEE8coeffRefEl, symObjAddr: 0x6194, symBinAddr: 0x10000E110, symSize: 0x24 }
  - { offsetInCU: 0x8EE03, offset: 0xA27F3, size: 0x8, addend: 0x0, symName: __ZNK5Eigen8internal16binary_evaluatorINS_13CwiseBinaryOpINS0_18scalar_quotient_opIddEEKNS_16PartialReduxExprIKNS_6MatrixIdLin1ELin1ELi0ELin1ELin1EEENS0_10member_sumIddEELi0EEEKNS_14CwiseNullaryOpINS0_18scalar_constant_opIdEEKNS6_IdLi1ELin1ELi1ELi1ELin1EEEEEEENS0_10IndexBasedESL_ddE4Data4funcEv, symObjAddr: 0x61B8, symBinAddr: 0x10000E134, symSize: 0x14 }
  - { offsetInCU: 0x8EE29, offset: 0xA2819, size: 0x8, addend: 0x0, symName: __ZNK5Eigen8internal9evaluatorINS_16PartialReduxExprIKNS_6MatrixIdLin1ELin1ELi0ELin1ELin1EEENS0_10member_sumIddEELi0EEEE5coeffEl, symObjAddr: 0x61CC, symBinAddr: 0x10000E148, symSize: 0x4C }
  - { offsetInCU: 0x8EE67, offset: 0xA2857, size: 0x8, addend: 0x0, symName: __ZNK5Eigen8internal9evaluatorINS_14CwiseNullaryOpINS0_18scalar_constant_opIdEEKNS_6MatrixIdLi1ELin1ELi1ELi1ELin1EEEEEE5coeffIlEEdT_, symObjAddr: 0x6218, symBinAddr: 0x10000E194, symSize: 0x38 }
  - { offsetInCU: 0x8EEA5, offset: 0xA2895, size: 0x8, addend: 0x0, symName: __ZNK5Eigen8internal10member_sumIddEclINS_5BlockIKNS_6MatrixIdLin1ELin1ELi0ELin1ELin1EEELin1ELi1ELb1EEEEEdRKT_, symObjAddr: 0x6250, symBinAddr: 0x10000E1CC, symSize: 0x28 }
  - { offsetInCU: 0x8EEE2, offset: 0xA28D2, size: 0x8, addend: 0x0, symName: __ZNK5Eigen9DenseBaseINS_6MatrixIdLin1ELin1ELi0ELin1ELin1EEEE9subVectorILNS_13DirectionTypeE0EEENS_8internal11conditionalIXeqT_LS5_0EEKNS_5BlockIKS2_Lin1ELi1ELb1EEEKNS8_IS9_Li1ELin1ELb0EEEE4typeEl, symObjAddr: 0x6278, symBinAddr: 0x10000E1F4, symSize: 0x3C }
  - { offsetInCU: 0x8EF21, offset: 0xA2911, size: 0x8, addend: 0x0, symName: __ZNK5Eigen9DenseBaseINS_5BlockIKNS_6MatrixIdLin1ELin1ELi0ELin1ELin1EEELin1ELi1ELb1EEEE3sumEv, symObjAddr: 0x62B4, symBinAddr: 0x10000E230, symSize: 0x74 }
  - { offsetInCU: 0x8EF4A, offset: 0xA293A, size: 0x8, addend: 0x0, symName: __ZNK5Eigen9EigenBaseINS_5BlockIKNS_6MatrixIdLin1ELin1ELi0ELin1ELin1EEELin1ELi1ELb1EEEE4sizeEv, symObjAddr: 0x6328, symBinAddr: 0x10000E2A4, symSize: 0x44 }
  - { offsetInCU: 0x8EF70, offset: 0xA2960, size: 0x8, addend: 0x0, symName: __ZNK5Eigen9EigenBaseINS_5BlockIKNS_6MatrixIdLin1ELin1ELi0ELin1ELin1EEELin1ELi1ELb1EEEE7derivedEv, symObjAddr: 0x636C, symBinAddr: 0x10000E2E8, symSize: 0x14 }
  - { offsetInCU: 0x8EF96, offset: 0xA2986, size: 0x8, addend: 0x0, symName: __ZNK5Eigen9DenseBaseINS_5BlockIKNS_6MatrixIdLin1ELin1ELi0ELin1ELin1EEELin1ELi1ELb1EEEE5reduxINS_8internal13scalar_sum_opIddEEEEdRKT_, symObjAddr: 0x6380, symBinAddr: 0x10000E2FC, symSize: 0x10C }
  - { offsetInCU: 0x8EFF2, offset: 0xA29E2, size: 0x8, addend: 0x0, symName: __ZN5Eigen8internal13scalar_sum_opIddEC1Ev, symObjAddr: 0x648C, symBinAddr: 0x10000E408, symSize: 0x2C }
  - { offsetInCU: 0x8F01C, offset: 0xA2A0C, size: 0x8, addend: 0x0, symName: __ZNK5Eigen9EigenBaseINS_5BlockIKNS_6MatrixIdLin1ELin1ELi0ELin1ELin1EEELin1ELi1ELb1EEEE4rowsEv, symObjAddr: 0x64B8, symBinAddr: 0x10000E434, symSize: 0x38 }
  - { offsetInCU: 0x8F042, offset: 0xA2A32, size: 0x8, addend: 0x0, symName: __ZNK5Eigen9EigenBaseINS_5BlockIKNS_6MatrixIdLin1ELin1ELi0ELin1ELin1EEELin1ELi1ELb1EEEE4colsEv, symObjAddr: 0x64F0, symBinAddr: 0x10000E46C, symSize: 0x38 }
  - { offsetInCU: 0x8F068, offset: 0xA2A58, size: 0x8, addend: 0x0, symName: __ZNK5Eigen7MapBaseINS_5BlockIKNS_6MatrixIdLin1ELin1ELi0ELin1ELin1EEELin1ELi1ELb1EEELi0EE4rowsEv, symObjAddr: 0x6528, symBinAddr: 0x10000E4A4, symSize: 0x28 }
  - { offsetInCU: 0x8F08E, offset: 0xA2A7E, size: 0x8, addend: 0x0, symName: __ZNK5Eigen7MapBaseINS_5BlockIKNS_6MatrixIdLin1ELin1ELi0ELin1ELin1EEELin1ELi1ELb1EEELi0EE4colsEv, symObjAddr: 0x6550, symBinAddr: 0x10000E4CC, symSize: 0x20 }
  - { offsetInCU: 0x8F0EB, offset: 0xA2ADB, size: 0x8, addend: 0x0, symName: __ZN5Eigen8internal15redux_evaluatorINS_5BlockIKNS_6MatrixIdLin1ELin1ELi0ELin1ELin1EEELin1ELi1ELb1EEEEC1ERKS6_, symObjAddr: 0x6570, symBinAddr: 0x10000E4EC, symSize: 0x34 }
  - { offsetInCU: 0x8F128, offset: 0xA2B18, size: 0x8, addend: 0x0, symName: __ZN5Eigen8internal10redux_implINS0_13scalar_sum_opIddEENS0_15redux_evaluatorINS_5BlockIKNS_6MatrixIdLin1ELin1ELi0ELin1ELin1EEELin1ELi1ELb1EEEEELi3ELi0EE3runIS9_EEdRKSA_RKS3_RKT_, symObjAddr: 0x65A4, symBinAddr: 0x10000E520, symSize: 0x348 }
  - { offsetInCU: 0x8F2A6, offset: 0xA2C96, size: 0x8, addend: 0x0, symName: __ZN5Eigen8internal15redux_evaluatorINS_5BlockIKNS_6MatrixIdLin1ELin1ELi0ELin1ELin1EEELin1ELi1ELb1EEEED1Ev, symObjAddr: 0x68EC, symBinAddr: 0x10000E868, symSize: 0x2C }
  - { offsetInCU: 0x8F2D3, offset: 0xA2CC3, size: 0x8, addend: 0x0, symName: __ZN5Eigen8internal15redux_evaluatorINS_5BlockIKNS_6MatrixIdLin1ELin1ELi0ELin1ELin1EEELin1ELi1ELb1EEEEC2ERKS6_, symObjAddr: 0x6918, symBinAddr: 0x10000E894, symSize: 0x34 }
  - { offsetInCU: 0x8F30C, offset: 0xA2CFC, size: 0x8, addend: 0x0, symName: __ZN5Eigen8internal9evaluatorINS_5BlockIKNS_6MatrixIdLin1ELin1ELi0ELin1ELin1EEELin1ELi1ELb1EEEEC2ERKS6_, symObjAddr: 0x694C, symBinAddr: 0x10000E8C8, symSize: 0x34 }
  - { offsetInCU: 0x8F345, offset: 0xA2D35, size: 0x8, addend: 0x0, symName: __ZN5Eigen8internal15block_evaluatorIKNS_6MatrixIdLin1ELin1ELi0ELin1ELin1EEELin1ELi1ELb1ELb1EEC2ERKNS_5BlockIS4_Lin1ELi1ELb1EEE, symObjAddr: 0x6980, symBinAddr: 0x10000E8FC, symSize: 0xDC }
  - { offsetInCU: 0x8F37E, offset: 0xA2D6E, size: 0x8, addend: 0x0, symName: __ZN5Eigen8internal17mapbase_evaluatorINS_5BlockIKNS_6MatrixIdLin1ELin1ELi0ELin1ELin1EEELin1ELi1ELb1EEENS3_IdLin1ELi1ELi0ELin1ELi1EEEEC2ERKS6_, symObjAddr: 0x6A5C, symBinAddr: 0x10000E9D8, symSize: 0xB0 }
  - { offsetInCU: 0x8F3B7, offset: 0xA2DA7, size: 0x8, addend: 0x0, symName: __ZNK5Eigen7MapBaseINS_5BlockIKNS_6MatrixIdLin1ELin1ELi0ELin1ELin1EEELin1ELi1ELb1EEELi0EE4dataEv, symObjAddr: 0x6B0C, symBinAddr: 0x10000EA88, symSize: 0x18 }
  - { offsetInCU: 0x8F3DD, offset: 0xA2DCD, size: 0x8, addend: 0x0, symName: __ZN5Eigen8internal17mapbase_evaluatorINS_5BlockIKNS_6MatrixIdLin1ELin1ELi0ELin1ELin1EEELin1ELi1ELb1EEENS3_IdLin1ELi1ELi0ELin1ELi1EEEED2Ev, symObjAddr: 0x6B24, symBinAddr: 0x10000EAA0, symSize: 0x2C }
  - { offsetInCU: 0x8F40A, offset: 0xA2DFA, size: 0x8, addend: 0x0, symName: __ZN5Eigen8internal14evaluator_baseINS_5BlockIKNS_6MatrixIdLin1ELin1ELi0ELin1ELin1EEELin1ELi1ELb1EEEEC2Ev, symObjAddr: 0x6B50, symBinAddr: 0x10000EACC, symSize: 0x14 }
  - { offsetInCU: 0x8F434, offset: 0xA2E24, size: 0x8, addend: 0x0, symName: __ZNK5Eigen8internal15BlockImpl_denseIKNS_6MatrixIdLin1ELin1ELi0ELin1ELin1EEELin1ELi1ELb1ELb1EE11innerStrideEv, symObjAddr: 0x6B64, symBinAddr: 0x10000EAE0, symSize: 0x28 }
  - { offsetInCU: 0x8F45A, offset: 0xA2E4A, size: 0x8, addend: 0x0, symName: __ZNK5Eigen8internal15BlockImpl_denseIKNS_6MatrixIdLin1ELin1ELi0ELin1ELin1EEELin1ELi1ELb1ELb1EE11outerStrideEv, symObjAddr: 0x6B8C, symBinAddr: 0x10000EB08, symSize: 0x28 }
  - { offsetInCU: 0x8F480, offset: 0xA2E70, size: 0x8, addend: 0x0, symName: __ZN5Eigen8internal14evaluator_baseINS_5BlockIKNS_6MatrixIdLin1ELin1ELi0ELin1ELin1EEELin1ELi1ELb1EEEED2Ev, symObjAddr: 0x6BB4, symBinAddr: 0x10000EB30, symSize: 0x14 }
  - { offsetInCU: 0x8F4B4, offset: 0xA2EA4, size: 0x8, addend: 0x0, symName: __ZNK5Eigen8internal17mapbase_evaluatorINS_5BlockIKNS_6MatrixIdLin1ELin1ELi0ELin1ELin1EEELin1ELi1ELb1EEENS3_IdLin1ELi1ELi0ELin1ELi1EEEE6packetILi0E19__simd128_float64_tEET0_l, symObjAddr: 0x6BEC, symBinAddr: 0x10000EB68, symSize: 0x54 }
  - { offsetInCU: 0x8F51C, offset: 0xA2F0C, size: 0x8, addend: 0x0, symName: __ZNK5Eigen8internal13scalar_sum_opIddE8packetOpI19__simd128_float64_tEET_RKS5_S7_, symObjAddr: 0x6C40, symBinAddr: 0x10000EBBC, symSize: 0x30 }
  - { offsetInCU: 0x8F567, offset: 0xA2F57, size: 0x8, addend: 0x0, symName: __ZNK5Eigen8internal13scalar_sum_opIddE6preduxI19__simd128_float64_tEEdRKT_, symObjAddr: 0x6C70, symBinAddr: 0x10000EBEC, symSize: 0x28 }
  - { offsetInCU: 0x8F5A4, offset: 0xA2F94, size: 0x8, addend: 0x0, symName: __ZNK5Eigen8internal13scalar_sum_opIddEclERKdS4_, symObjAddr: 0x6C98, symBinAddr: 0x10000EC14, symSize: 0x2C }
  - { offsetInCU: 0x8F5E6, offset: 0xA2FD6, size: 0x8, addend: 0x0, symName: __ZNK5Eigen8internal17mapbase_evaluatorINS_5BlockIKNS_6MatrixIdLin1ELin1ELi0ELin1ELin1EEELin1ELi1ELb1EEENS3_IdLin1ELi1ELi0ELin1ELi1EEEE5coeffEl, symObjAddr: 0x6CC4, symBinAddr: 0x10000EC40, symSize: 0x48 }
  - { offsetInCU: 0x8F61A, offset: 0xA300A, size: 0x8, addend: 0x0, symName: __ZN5Eigen8internal18first_aligned_implILi16ENS_5BlockIKNS_6MatrixIdLin1ELin1ELi0ELin1ELin1EEELin1ELi1ELb1EEELb0EE3runERKS6_, symObjAddr: 0x6D34, symBinAddr: 0x10000ECB0, symSize: 0x3C }
  - { offsetInCU: 0x8F63F, offset: 0xA302F, size: 0x8, addend: 0x0, symName: __ZN5Eigen8internal15redux_evaluatorINS_5BlockIKNS_6MatrixIdLin1ELin1ELi0ELin1ELin1EEELin1ELi1ELb1EEEED2Ev, symObjAddr: 0x6ED4, symBinAddr: 0x10000EE50, symSize: 0x2C }
  - { offsetInCU: 0x8F66C, offset: 0xA305C, size: 0x8, addend: 0x0, symName: __ZN5Eigen8internal9evaluatorINS_5BlockIKNS_6MatrixIdLin1ELin1ELi0ELin1ELin1EEELin1ELi1ELb1EEEED2Ev, symObjAddr: 0x6F00, symBinAddr: 0x10000EE7C, symSize: 0x2C }
  - { offsetInCU: 0x8F699, offset: 0xA3089, size: 0x8, addend: 0x0, symName: __ZN5Eigen8internal15block_evaluatorIKNS_6MatrixIdLin1ELin1ELi0ELin1ELin1EEELin1ELi1ELb1ELb1EED2Ev, symObjAddr: 0x6F2C, symBinAddr: 0x10000EEA8, symSize: 0x2C }
  - { offsetInCU: 0x8F6C6, offset: 0xA30B6, size: 0x8, addend: 0x0, symName: __ZN5Eigen8internal13scalar_sum_opIddEC2Ev, symObjAddr: 0x6F58, symBinAddr: 0x10000EED4, symSize: 0x14 }
  - { offsetInCU: 0x8F6F0, offset: 0xA30E0, size: 0x8, addend: 0x0, symName: __ZN5Eigen5BlockIKNS_6MatrixIdLin1ELin1ELi0ELin1ELin1EEELin1ELi1ELb1EEC1ERS3_l, symObjAddr: 0x6F6C, symBinAddr: 0x10000EEE8, symSize: 0x3C }
  - { offsetInCU: 0x8F736, offset: 0xA3126, size: 0x8, addend: 0x0, symName: __ZN5Eigen5BlockIKNS_6MatrixIdLin1ELin1ELi0ELin1ELin1EEELin1ELi1ELb1EEC2ERS3_l, symObjAddr: 0x6FA8, symBinAddr: 0x10000EF24, symSize: 0xAC }
  - { offsetInCU: 0x8F77C, offset: 0xA316C, size: 0x8, addend: 0x0, symName: __ZN5Eigen9BlockImplIKNS_6MatrixIdLin1ELin1ELi0ELin1ELin1EEELin1ELi1ELb1ENS_5DenseEEC2ERS3_l, symObjAddr: 0x7054, symBinAddr: 0x10000EFD0, symSize: 0x3C }
  - { offsetInCU: 0x8F7C2, offset: 0xA31B2, size: 0x8, addend: 0x0, symName: __ZN5Eigen8internal15BlockImpl_denseIKNS_6MatrixIdLin1ELin1ELi0ELin1ELin1EEELin1ELi1ELb1ELb1EEC2ERS4_l, symObjAddr: 0x7090, symBinAddr: 0x10000F00C, symSize: 0xAC }
  - { offsetInCU: 0x8F80A, offset: 0xA31FA, size: 0x8, addend: 0x0, symName: __ZN5Eigen7MapBaseINS_5BlockIKNS_6MatrixIdLin1ELin1ELi0ELin1ELin1EEELin1ELi1ELb1EEELi0EEC2EPKdll, symObjAddr: 0x713C, symBinAddr: 0x10000F0B8, symSize: 0x11C }
  - { offsetInCU: 0x8F85E, offset: 0xA324E, size: 0x8, addend: 0x0, symName: __ZN5Eigen8internal15BlockImpl_denseIKNS_6MatrixIdLin1ELin1ELi0ELin1ELin1EEELin1ELi1ELb1ELb1EE4initEv, symObjAddr: 0x7258, symBinAddr: 0x10000F1D4, symSize: 0x34 }
  - { offsetInCU: 0x8F884, offset: 0xA3274, size: 0x8, addend: 0x0, symName: __ZN5Eigen10MatrixBaseINS_5BlockIKNS_6MatrixIdLin1ELin1ELi0ELin1ELin1EEELin1ELi1ELb1EEEEC2Ev, symObjAddr: 0x728C, symBinAddr: 0x10000F208, symSize: 0x2C }
  - { offsetInCU: 0x8F8AE, offset: 0xA329E, size: 0x8, addend: 0x0, symName: __ZNK5Eigen7MapBaseINS_5BlockIKNS_6MatrixIdLin1ELin1ELi0ELin1ELin1EEELin1ELi1ELb1EEELi0EE11checkSanityIS5_EEvNS_8internal9enable_ifIXeqsr8internal6traitsIT_EE9AlignmentLi0EEPvE4typeE, symObjAddr: 0x72B8, symBinAddr: 0x10000F234, symSize: 0x14 }
  - { offsetInCU: 0x8F8E8, offset: 0xA32D8, size: 0x8, addend: 0x0, symName: __ZN5Eigen9DenseBaseINS_5BlockIKNS_6MatrixIdLin1ELin1ELi0ELin1ELin1EEELin1ELi1ELb1EEEEC2Ev, symObjAddr: 0x72CC, symBinAddr: 0x10000F248, symSize: 0x14 }
  - { offsetInCU: 0x8F917, offset: 0xA3307, size: 0x8, addend: 0x0, symName: __ZNK5Eigen8internal15nullary_wrapperIdNS0_18scalar_constant_opIdEELb1ELb0ELb0EEclIlEEdRKS3_T_S8_, symObjAddr: 0x72E0, symBinAddr: 0x10000F25C, symSize: 0x30 }
  - { offsetInCU: 0x8F96D, offset: 0xA335D, size: 0x8, addend: 0x0, symName: __ZNK5Eigen8internal18scalar_constant_opIdEclEv, symObjAddr: 0x7310, symBinAddr: 0x10000F28C, symSize: 0x18 }
  - { offsetInCU: 0x8F993, offset: 0xA3383, size: 0x8, addend: 0x0, symName: __ZN5Eigen8internal9evaluatorINS_9TransposeINS_6MatrixIdLin1ELi1ELi0ELin1ELi1EEEEEED2Ev, symObjAddr: 0x7328, symBinAddr: 0x10000F2A4, symSize: 0x2C }
  - { offsetInCU: 0x8F9BF, offset: 0xA33AF, size: 0x8, addend: 0x0, symName: __ZN5Eigen8internal15unary_evaluatorINS_9TransposeINS_6MatrixIdLin1ELi1ELi0ELin1ELi1EEEEENS0_10IndexBasedEdED2Ev, symObjAddr: 0x7354, symBinAddr: 0x10000F2D0, symSize: 0x34 }
  - { offsetInCU: 0x8F9EB, offset: 0xA33DB, size: 0x8, addend: 0x0, symName: __ZN5Eigen8internal9evaluatorINS_6MatrixIdLin1ELi1ELi0ELin1ELi1EEEED1Ev, symObjAddr: 0x7388, symBinAddr: 0x10000F304, symSize: 0x2C }
  - { offsetInCU: 0x8FA18, offset: 0xA3408, size: 0x8, addend: 0x0, symName: __ZN5Eigen8internal9evaluatorINS_6MatrixIdLin1ELi1ELi0ELin1ELi1EEEED2Ev, symObjAddr: 0x73B4, symBinAddr: 0x10000F330, symSize: 0x2C }
  - { offsetInCU: 0x8FA45, offset: 0xA3435, size: 0x8, addend: 0x0, symName: __ZN5Eigen8internal9evaluatorINS_15PlainObjectBaseINS_6MatrixIdLin1ELi1ELi0ELin1ELi1EEEEEED2Ev, symObjAddr: 0x73E0, symBinAddr: 0x10000F35C, symSize: 0x2C }
  - { offsetInCU: 0x8FA71, offset: 0xA3461, size: 0x8, addend: 0x0, symName: __ZN5Eigen8internal9evaluatorINS_13CwiseBinaryOpINS0_18scalar_quotient_opIddEEKNS_16PartialReduxExprIKNS_6MatrixIdLin1ELin1ELi0ELin1ELin1EEENS0_10member_sumIddEELi0EEEKNS_14CwiseNullaryOpINS0_18scalar_constant_opIdEEKNS6_IdLi1ELin1ELi1ELi1ELin1EEEEEEEED2Ev, symObjAddr: 0x740C, symBinAddr: 0x10000F388, symSize: 0x2C }
  - { offsetInCU: 0x8FA9E, offset: 0xA348E, size: 0x8, addend: 0x0, symName: __ZN5Eigen8internal16binary_evaluatorINS_13CwiseBinaryOpINS0_18scalar_quotient_opIddEEKNS_16PartialReduxExprIKNS_6MatrixIdLin1ELin1ELi0ELin1ELin1EEENS0_10member_sumIddEELi0EEEKNS_14CwiseNullaryOpINS0_18scalar_constant_opIdEEKNS6_IdLi1ELin1ELi1ELi1ELin1EEEEEEENS0_10IndexBasedESL_ddED2Ev, symObjAddr: 0x7438, symBinAddr: 0x10000F3B4, symSize: 0x34 }
  - { offsetInCU: 0x8FACA, offset: 0xA34BA, size: 0x8, addend: 0x0, symName: __ZN5Eigen8internal16binary_evaluatorINS_13CwiseBinaryOpINS0_18scalar_quotient_opIddEEKNS_16PartialReduxExprIKNS_6MatrixIdLin1ELin1ELi0ELin1ELin1EEENS0_10member_sumIddEELi0EEEKNS_14CwiseNullaryOpINS0_18scalar_constant_opIdEEKNS6_IdLi1ELin1ELi1ELi1ELin1EEEEEEENS0_10IndexBasedESL_ddE4DataD1Ev, symObjAddr: 0x746C, symBinAddr: 0x10000F3E8, symSize: 0x2C }
  - { offsetInCU: 0x8FAF7, offset: 0xA34E7, size: 0x8, addend: 0x0, symName: __ZN5Eigen8internal16binary_evaluatorINS_13CwiseBinaryOpINS0_18scalar_quotient_opIddEEKNS_16PartialReduxExprIKNS_6MatrixIdLin1ELin1ELi0ELin1ELin1EEENS0_10member_sumIddEELi0EEEKNS_14CwiseNullaryOpINS0_18scalar_constant_opIdEEKNS6_IdLi1ELin1ELi1ELi1ELin1EEEEEEENS0_10IndexBasedESL_ddE4DataD2Ev, symObjAddr: 0x7498, symBinAddr: 0x10000F414, symSize: 0x3C }
  - { offsetInCU: 0x8FB24, offset: 0xA3514, size: 0x8, addend: 0x0, symName: __ZN5Eigen8internal9evaluatorIKNS_14CwiseNullaryOpINS0_18scalar_constant_opIdEEKNS_6MatrixIdLi1ELin1ELi1ELi1ELin1EEEEEED1Ev, symObjAddr: 0x74D4, symBinAddr: 0x10000F450, symSize: 0x2C }
  - { offsetInCU: 0x8FB50, offset: 0xA3540, size: 0x8, addend: 0x0, symName: __ZN5Eigen8internal9evaluatorIKNS_14CwiseNullaryOpINS0_18scalar_constant_opIdEEKNS_6MatrixIdLi1ELin1ELi1ELi1ELin1EEEEEED2Ev, symObjAddr: 0x7500, symBinAddr: 0x10000F47C, symSize: 0x2C }
  - { offsetInCU: 0x8FB7C, offset: 0xA356C, size: 0x8, addend: 0x0, symName: __ZN5Eigen8internal9evaluatorINS_14CwiseNullaryOpINS0_18scalar_constant_opIdEEKNS_6MatrixIdLi1ELin1ELi1ELi1ELin1EEEEEED2Ev, symObjAddr: 0x752C, symBinAddr: 0x10000F4A8, symSize: 0x2C }
  - { offsetInCU: 0x8FBA8, offset: 0xA3598, size: 0x8, addend: 0x0, symName: __ZN5Eigen12VectorwiseOpIKNS_6MatrixIdLin1ELin1ELi0ELin1ELin1EEELi1EEC1ERS3_, symObjAddr: 0x7558, symBinAddr: 0x10000F4D4, symSize: 0x34 }
  - { offsetInCU: 0x8FBE1, offset: 0xA35D1, size: 0x8, addend: 0x0, symName: __ZN5Eigen12VectorwiseOpIKNS_6MatrixIdLin1ELin1ELi0ELin1ELin1EEELi1EEC2ERS3_, symObjAddr: 0x758C, symBinAddr: 0x10000F508, symSize: 0x20 }
  - { offsetInCU: 0x8FC1A, offset: 0xA360A, size: 0x8, addend: 0x0, symName: __ZNK5Eigen10MatrixBaseINS_6MatrixIdLin1ELin1ELi0ELin1ELin1EEEEmiINS_9ReplicateINS_13CwiseBinaryOpINS_8internal18scalar_quotient_opIddEEKNS_16PartialReduxExprIKS2_NS7_10member_sumIddEELi0EEEKNS_14CwiseNullaryOpINS7_18scalar_constant_opIdEEKNS1_IdLi1ELin1ELi1ELi1ELin1EEEEEEELin1ELi1EEEEEKNS6_INS7_20scalar_difference_opIdNS7_6traitsIT_E6ScalarEEESB_KSR_EERKNS0_ISR_EE, symObjAddr: 0x75AC, symBinAddr: 0x10000F528, symSize: 0x60 }
  - { offsetInCU: 0x8FC57, offset: 0xA3647, size: 0x8, addend: 0x0, symName: __ZNK5Eigen12VectorwiseOpIKNS_6MatrixIdLin1ELin1ELi0ELin1ELin1EEELi1EE10extendedToINS_13CwiseBinaryOpINS_8internal18scalar_quotient_opIddEEKNS_16PartialReduxExprIS3_NS7_10member_sumIddEELi0EEEKNS_14CwiseNullaryOpINS7_18scalar_constant_opIdEEKNS1_IdLi1ELin1ELi1ELi1ELin1EEEEEEEEENS4_12ExtendedTypeIT_E4TypeERKNS_9DenseBaseISO_EE, symObjAddr: 0x760C, symBinAddr: 0x10000F588, symSize: 0x5C }
  - { offsetInCU: 0x8FC94, offset: 0xA3684, size: 0x8, addend: 0x0, symName: __ZNK5Eigen9EigenBaseINS_9ReplicateINS_13CwiseBinaryOpINS_8internal18scalar_quotient_opIddEEKNS_16PartialReduxExprIKNS_6MatrixIdLin1ELin1ELi0ELin1ELin1EEENS3_10member_sumIddEELi0EEEKNS_14CwiseNullaryOpINS3_18scalar_constant_opIdEEKNS7_IdLi1ELin1ELi1ELi1ELin1EEEEEEELin1ELi1EEEE7derivedEv, symObjAddr: 0x7668, symBinAddr: 0x10000F5E4, symSize: 0x14 }
  - { offsetInCU: 0x8FCBA, offset: 0xA36AA, size: 0x8, addend: 0x0, symName: __ZN5Eigen13CwiseBinaryOpINS_8internal20scalar_difference_opIddEEKNS_6MatrixIdLin1ELin1ELi0ELin1ELin1EEEKNS_9ReplicateINS0_INS1_18scalar_quotient_opIddEEKNS_16PartialReduxExprIS6_NS1_10member_sumIddEELi0EEEKNS_14CwiseNullaryOpINS1_18scalar_constant_opIdEEKNS4_IdLi1ELin1ELi1ELi1ELin1EEEEEEELin1ELi1EEEEC1ERS6_RSO_RKS3_, symObjAddr: 0x767C, symBinAddr: 0x10000F5F8, symSize: 0x44 }
  - { offsetInCU: 0x8FD0E, offset: 0xA36FE, size: 0x8, addend: 0x0, symName: __ZN5Eigen13CwiseBinaryOpINS_8internal20scalar_difference_opIddEEKNS_6MatrixIdLin1ELin1ELi0ELin1ELin1EEEKNS_9ReplicateINS0_INS1_18scalar_quotient_opIddEEKNS_16PartialReduxExprIS6_NS1_10member_sumIddEELi0EEEKNS_14CwiseNullaryOpINS1_18scalar_constant_opIdEEKNS4_IdLi1ELin1ELi1ELi1ELin1EEEEEEELin1ELi1EEEEC2ERS6_RSO_RKS3_, symObjAddr: 0x76C0, symBinAddr: 0x10000F63C, symSize: 0xF8 }
  - { offsetInCU: 0x8FD67, offset: 0xA3757, size: 0x8, addend: 0x0, symName: __ZN5Eigen17CwiseBinaryOpImplINS_8internal20scalar_difference_opIddEEKNS_6MatrixIdLin1ELin1ELi0ELin1ELin1EEEKNS_9ReplicateINS_13CwiseBinaryOpINS1_18scalar_quotient_opIddEEKNS_16PartialReduxExprIS6_NS1_10member_sumIddEELi0EEEKNS_14CwiseNullaryOpINS1_18scalar_constant_opIdEEKNS4_IdLi1ELin1ELi1ELi1ELin1EEEEEEELin1ELi1EEENS_5DenseEEC2Ev, symObjAddr: 0x77B8, symBinAddr: 0x10000F734, symSize: 0x2C }
  - { offsetInCU: 0x8FD98, offset: 0xA3788, size: 0x8, addend: 0x0, symName: __ZN5Eigen9ReplicateINS_13CwiseBinaryOpINS_8internal18scalar_quotient_opIddEEKNS_16PartialReduxExprIKNS_6MatrixIdLin1ELin1ELi0ELin1ELin1EEENS2_10member_sumIddEELi0EEEKNS_14CwiseNullaryOpINS2_18scalar_constant_opIdEEKNS6_IdLi1ELin1ELi1ELi1ELin1EEEEEEELin1ELi1EEC1ERKSL_, symObjAddr: 0x77E4, symBinAddr: 0x10000F760, symSize: 0x34 }
  - { offsetInCU: 0x8FDCE, offset: 0xA37BE, size: 0x8, addend: 0x0, symName: __ZNK5Eigen9ReplicateINS_13CwiseBinaryOpINS_8internal18scalar_quotient_opIddEEKNS_16PartialReduxExprIKNS_6MatrixIdLin1ELin1ELi0ELin1ELin1EEENS2_10member_sumIddEELi0EEEKNS_14CwiseNullaryOpINS2_18scalar_constant_opIdEEKNS6_IdLi1ELin1ELi1ELi1ELin1EEEEEEELin1ELi1EE4rowsEv, symObjAddr: 0x7818, symBinAddr: 0x10000F794, symSize: 0x44 }
  - { offsetInCU: 0x8FDF4, offset: 0xA37E4, size: 0x8, addend: 0x0, symName: __ZNK5Eigen9ReplicateINS_13CwiseBinaryOpINS_8internal18scalar_quotient_opIddEEKNS_16PartialReduxExprIKNS_6MatrixIdLin1ELin1ELi0ELin1ELin1EEENS2_10member_sumIddEELi0EEEKNS_14CwiseNullaryOpINS2_18scalar_constant_opIdEEKNS6_IdLi1ELin1ELi1ELi1ELin1EEEEEEELin1ELi1EE4colsEv, symObjAddr: 0x785C, symBinAddr: 0x10000F7D8, symSize: 0x38 }
  - { offsetInCU: 0x8FE1A, offset: 0xA380A, size: 0x8, addend: 0x0, symName: __ZN5Eigen10MatrixBaseINS_13CwiseBinaryOpINS_8internal20scalar_difference_opIddEEKNS_6MatrixIdLin1ELin1ELi0ELin1ELin1EEEKNS_9ReplicateINS1_INS2_18scalar_quotient_opIddEEKNS_16PartialReduxExprIS7_NS2_10member_sumIddEELi0EEEKNS_14CwiseNullaryOpINS2_18scalar_constant_opIdEEKNS5_IdLi1ELin1ELi1ELi1ELin1EEEEEEELin1ELi1EEEEEEC2Ev, symObjAddr: 0x7894, symBinAddr: 0x10000F810, symSize: 0x2C }
  - { offsetInCU: 0x8FE44, offset: 0xA3834, size: 0x8, addend: 0x0, symName: __ZN5Eigen9DenseBaseINS_13CwiseBinaryOpINS_8internal20scalar_difference_opIddEEKNS_6MatrixIdLin1ELin1ELi0ELin1ELin1EEEKNS_9ReplicateINS1_INS2_18scalar_quotient_opIddEEKNS_16PartialReduxExprIS7_NS2_10member_sumIddEELi0EEEKNS_14CwiseNullaryOpINS2_18scalar_constant_opIdEEKNS5_IdLi1ELin1ELi1ELi1ELin1EEEEEEELin1ELi1EEEEEEC2Ev, symObjAddr: 0x78C0, symBinAddr: 0x10000F83C, symSize: 0x14 }
  - { offsetInCU: 0x8FE6E, offset: 0xA385E, size: 0x8, addend: 0x0, symName: __ZN5Eigen9ReplicateINS_13CwiseBinaryOpINS_8internal18scalar_quotient_opIddEEKNS_16PartialReduxExprIKNS_6MatrixIdLin1ELin1ELi0ELin1ELin1EEENS2_10member_sumIddEELi0EEEKNS_14CwiseNullaryOpINS2_18scalar_constant_opIdEEKNS6_IdLi1ELin1ELi1ELi1ELin1EEEEEEELin1ELi1EEC2ERKSL_, symObjAddr: 0x78D4, symBinAddr: 0x10000F850, symSize: 0x48 }
  - { offsetInCU: 0x8FEA4, offset: 0xA3894, size: 0x8, addend: 0x0, symName: __ZN5Eigen13CwiseBinaryOpINS_8internal18scalar_quotient_opIddEEKNS_16PartialReduxExprIKNS_6MatrixIdLin1ELin1ELi0ELin1ELin1EEENS1_10member_sumIddEELi0EEEKNS_14CwiseNullaryOpINS1_18scalar_constant_opIdEEKNS5_IdLi1ELin1ELi1ELi1ELin1EEEEEEC1ERKSJ_, symObjAddr: 0x791C, symBinAddr: 0x10000F898, symSize: 0x34 }
  - { offsetInCU: 0x8FED9, offset: 0xA38C9, size: 0x8, addend: 0x0, symName: __ZN5Eigen13CwiseBinaryOpINS_8internal18scalar_quotient_opIddEEKNS_16PartialReduxExprIKNS_6MatrixIdLin1ELin1ELi0ELin1ELin1EEENS1_10member_sumIddEELi0EEEKNS_14CwiseNullaryOpINS1_18scalar_constant_opIdEEKNS5_IdLi1ELin1ELi1ELi1ELin1EEEEEEC2ERKSJ_, symObjAddr: 0x7950, symBinAddr: 0x10000F8CC, symSize: 0x64 }
  - { offsetInCU: 0x8FF0E, offset: 0xA38FE, size: 0x8, addend: 0x0, symName: __ZN5Eigen9ReplicateINS_13CwiseBinaryOpINS_8internal18scalar_quotient_opIddEEKNS_16PartialReduxExprIKNS_6MatrixIdLin1ELin1ELi0ELin1ELin1EEENS2_10member_sumIddEELi0EEEKNS_14CwiseNullaryOpINS2_18scalar_constant_opIdEEKNS6_IdLi1ELin1ELi1ELi1ELin1EEEEEEELin1ELi1EEC1ISK_EERKT_ll, symObjAddr: 0x79B4, symBinAddr: 0x10000F930, symSize: 0x44 }
  - { offsetInCU: 0x8FF6B, offset: 0xA395B, size: 0x8, addend: 0x0, symName: __ZN5Eigen9ReplicateINS_13CwiseBinaryOpINS_8internal18scalar_quotient_opIddEEKNS_16PartialReduxExprIKNS_6MatrixIdLin1ELin1ELi0ELin1ELin1EEENS2_10member_sumIddEELi0EEEKNS_14CwiseNullaryOpINS2_18scalar_constant_opIdEEKNS6_IdLi1ELin1ELi1ELi1ELin1EEEEEEELin1ELi1EEC2ISK_EERKT_ll, symObjAddr: 0x79F8, symBinAddr: 0x10000F974, symSize: 0x64 }
  - { offsetInCU: 0x8FFC8, offset: 0xA39B8, size: 0x8, addend: 0x0, symName: __ZN5Eigen10MatrixBaseINS_9ReplicateINS_13CwiseBinaryOpINS_8internal18scalar_quotient_opIddEEKNS_16PartialReduxExprIKNS_6MatrixIdLin1ELin1ELi0ELin1ELin1EEENS3_10member_sumIddEELi0EEEKNS_14CwiseNullaryOpINS3_18scalar_constant_opIdEEKNS7_IdLi1ELin1ELi1ELi1ELin1EEEEEEELin1ELi1EEEEC2Ev, symObjAddr: 0x7A5C, symBinAddr: 0x10000F9D8, symSize: 0x2C }
  - { offsetInCU: 0x8FFF2, offset: 0xA39E2, size: 0x8, addend: 0x0, symName: __ZN5Eigen9DenseBaseINS_9ReplicateINS_13CwiseBinaryOpINS_8internal18scalar_quotient_opIddEEKNS_16PartialReduxExprIKNS_6MatrixIdLin1ELin1ELi0ELin1ELin1EEENS3_10member_sumIddEELi0EEEKNS_14CwiseNullaryOpINS3_18scalar_constant_opIdEEKNS7_IdLi1ELin1ELi1ELi1ELin1EEEEEEELin1ELi1EEEEC2Ev, symObjAddr: 0x7A88, symBinAddr: 0x10000FA04, symSize: 0x14 }
  - { offsetInCU: 0x9001C, offset: 0xA3A0C, size: 0x8, addend: 0x0, symName: __ZN5Eigen6MatrixIdLin1ELin1ELi0ELin1ELin1EEC2INS_13CwiseBinaryOpINS_8internal20scalar_difference_opIddEEKS1_KNS_9ReplicateINS3_INS4_18scalar_quotient_opIddEEKNS_16PartialReduxExprIS7_NS4_10member_sumIddEELi0EEEKNS_14CwiseNullaryOpINS4_18scalar_constant_opIdEEKNS0_IdLi1ELin1ELi1ELi1ELin1EEEEEEELin1ELi1EEEEEEERKNS_9EigenBaseIT_EE, symObjAddr: 0x7A9C, symBinAddr: 0x10000FA18, symSize: 0x40 }
  - { offsetInCU: 0x9005E, offset: 0xA3A4E, size: 0x8, addend: 0x0, symName: __ZNK5Eigen9EigenBaseINS_13CwiseBinaryOpINS_8internal20scalar_difference_opIddEEKNS_6MatrixIdLin1ELin1ELi0ELin1ELin1EEEKNS_9ReplicateINS1_INS2_18scalar_quotient_opIddEEKNS_16PartialReduxExprIS7_NS2_10member_sumIddEELi0EEEKNS_14CwiseNullaryOpINS2_18scalar_constant_opIdEEKNS5_IdLi1ELin1ELi1ELi1ELin1EEEEEEELin1ELi1EEEEEE7derivedEv, symObjAddr: 0x7ADC, symBinAddr: 0x10000FA58, symSize: 0x14 }
  - { offsetInCU: 0x90084, offset: 0xA3A74, size: 0x8, addend: 0x0, symName: __ZN5Eigen15PlainObjectBaseINS_6MatrixIdLin1ELin1ELi0ELin1ELin1EEEEC2INS_13CwiseBinaryOpINS_8internal20scalar_difference_opIddEEKS2_KNS_9ReplicateINS5_INS6_18scalar_quotient_opIddEEKNS_16PartialReduxExprIS9_NS6_10member_sumIddEELi0EEEKNS_14CwiseNullaryOpINS6_18scalar_constant_opIdEEKNS1_IdLi1ELin1ELi1ELi1ELin1EEEEEEELin1ELi1EEEEEEERKNS_9DenseBaseIT_EE, symObjAddr: 0x7AF0, symBinAddr: 0x10000FA6C, symSize: 0x80 }
  - { offsetInCU: 0x900C6, offset: 0xA3AB6, size: 0x8, addend: 0x0, symName: __ZN5Eigen15PlainObjectBaseINS_6MatrixIdLin1ELin1ELi0ELin1ELin1EEEE10resizeLikeINS_13CwiseBinaryOpINS_8internal20scalar_difference_opIddEEKS2_KNS_9ReplicateINS5_INS6_18scalar_quotient_opIddEEKNS_16PartialReduxExprIS9_NS6_10member_sumIddEELi0EEEKNS_14CwiseNullaryOpINS6_18scalar_constant_opIdEEKNS1_IdLi1ELin1ELi1ELi1ELin1EEEEEEELin1ELi1EEEEEEEvRKNS_9EigenBaseIT_EE, symObjAddr: 0x7B70, symBinAddr: 0x10000FAEC, symSize: 0x11C }
  - { offsetInCU: 0x9015D, offset: 0xA3B4D, size: 0x8, addend: 0x0, symName: __ZN5Eigen15PlainObjectBaseINS_6MatrixIdLin1ELin1ELi0ELin1ELin1EEEE12_set_noaliasINS_13CwiseBinaryOpINS_8internal20scalar_difference_opIddEEKS2_KNS_9ReplicateINS5_INS6_18scalar_quotient_opIddEEKNS_16PartialReduxExprIS9_NS6_10member_sumIddEELi0EEEKNS_14CwiseNullaryOpINS6_18scalar_constant_opIdEEKNS1_IdLi1ELin1ELi1ELi1ELin1EEEEEEELin1ELi1EEEEEEERS2_RKNS_9DenseBaseIT_EE, symObjAddr: 0x7C8C, symBinAddr: 0x10000FC08, symSize: 0x60 }
  - { offsetInCU: 0x9019B, offset: 0xA3B8B, size: 0x8, addend: 0x0, symName: __ZNK5Eigen13CwiseBinaryOpINS_8internal20scalar_difference_opIddEEKNS_6MatrixIdLin1ELin1ELi0ELin1ELin1EEEKNS_9ReplicateINS0_INS1_18scalar_quotient_opIddEEKNS_16PartialReduxExprIS6_NS1_10member_sumIddEELi0EEEKNS_14CwiseNullaryOpINS1_18scalar_constant_opIdEEKNS4_IdLi1ELin1ELi1ELi1ELin1EEEEEEELin1ELi1EEEE4rowsEv, symObjAddr: 0x7CEC, symBinAddr: 0x10000FC68, symSize: 0x28 }
  - { offsetInCU: 0x901C1, offset: 0xA3BB1, size: 0x8, addend: 0x0, symName: __ZNK5Eigen13CwiseBinaryOpINS_8internal20scalar_difference_opIddEEKNS_6MatrixIdLin1ELin1ELi0ELin1ELin1EEEKNS_9ReplicateINS0_INS1_18scalar_quotient_opIddEEKNS_16PartialReduxExprIS6_NS1_10member_sumIddEELi0EEEKNS_14CwiseNullaryOpINS1_18scalar_constant_opIdEEKNS4_IdLi1ELin1ELi1ELi1ELin1EEEEEEELin1ELi1EEEE4colsEv, symObjAddr: 0x7D14, symBinAddr: 0x10000FC90, symSize: 0x28 }
  - { offsetInCU: 0x901E6, offset: 0xA3BD6, size: 0x8, addend: 0x0, symName: __ZN5Eigen8internal10AssignmentINS_6MatrixIdLin1ELin1ELi0ELin1ELin1EEENS_13CwiseBinaryOpINS0_20scalar_difference_opIddEEKS3_KNS_9ReplicateINS4_INS0_18scalar_quotient_opIddEEKNS_16PartialReduxExprIS7_NS0_10member_sumIddEELi0EEEKNS_14CwiseNullaryOpINS0_18scalar_constant_opIdEEKNS2_IdLi1ELin1ELi1ELi1ELin1EEEEEEELin1ELi1EEEEENS0_9assign_opIddEENS0_11Dense2DenseEvE3runERS3_RKSQ_RKSS_, symObjAddr: 0x7D78, symBinAddr: 0x10000FCF4, symSize: 0x40 }
  - { offsetInCU: 0x90229, offset: 0xA3C19, size: 0x8, addend: 0x0, symName: __ZN5Eigen8internal27checkTransposeAliasing_implINS_6MatrixIdLin1ELin1ELi0ELin1ELin1EEENS_13CwiseBinaryOpINS0_20scalar_difference_opIddEEKS3_KNS_9ReplicateINS4_INS0_18scalar_quotient_opIddEEKNS_16PartialReduxExprIS7_NS0_10member_sumIddEELi0EEEKNS_14CwiseNullaryOpINS0_18scalar_constant_opIdEEKNS2_IdLi1ELin1ELi1ELi1ELin1EEEEEEELin1ELi1EEEEELb0EE3runERS7_RKSQ_, symObjAddr: 0x7EF8, symBinAddr: 0x10000FE74, symSize: 0x14 }
  - { offsetInCU: 0x902D8, offset: 0xA3CC8, size: 0x8, addend: 0x0, symName: __ZN5Eigen8internal9evaluatorINS_13CwiseBinaryOpINS0_20scalar_difference_opIddEEKNS_6MatrixIdLin1ELin1ELi0ELin1ELin1EEEKNS_9ReplicateINS2_INS0_18scalar_quotient_opIddEEKNS_16PartialReduxExprIS7_NS0_10member_sumIddEELi0EEEKNS_14CwiseNullaryOpINS0_18scalar_constant_opIdEEKNS5_IdLi1ELin1ELi1ELi1ELin1EEEEEEELin1ELi1EEEEEEC1ERKSQ_, symObjAddr: 0x7F0C, symBinAddr: 0x10000FE88, symSize: 0x34 }
  - { offsetInCU: 0x90311, offset: 0xA3D01, size: 0x8, addend: 0x0, symName: __ZN5Eigen8internal9evaluatorINS_6MatrixIdLin1ELin1ELi0ELin1ELin1EEEEC1ERKS3_, symObjAddr: 0x8038, symBinAddr: 0x10000FFB4, symSize: 0x34 }
  - { offsetInCU: 0x9034A, offset: 0xA3D3A, size: 0x8, addend: 0x0, symName: __ZNK5Eigen9EigenBaseINS_6MatrixIdLin1ELin1ELi0ELin1ELin1EEEE18const_cast_derivedEv, symObjAddr: 0x806C, symBinAddr: 0x10000FFE8, symSize: 0x14 }
  - { offsetInCU: 0x9039D, offset: 0xA3D8D, size: 0x8, addend: 0x0, symName: __ZN5Eigen8internal31generic_dense_assignment_kernelINS0_9evaluatorINS_6MatrixIdLin1ELin1ELi0ELin1ELin1EEEEENS2_INS_13CwiseBinaryOpINS0_20scalar_difference_opIddEEKS4_KNS_9ReplicateINS6_INS0_18scalar_quotient_opIddEEKNS_16PartialReduxExprIS9_NS0_10member_sumIddEELi0EEEKNS_14CwiseNullaryOpINS0_18scalar_constant_opIdEEKNS3_IdLi1ELin1ELi1ELi1ELin1EEEEEEELin1ELi1EEEEEEENS0_9assign_opIddEELi0EEC1ERS5_RKST_RKSV_RS4_, symObjAddr: 0x8080, symBinAddr: 0x10000FFFC, symSize: 0x4C }
  - { offsetInCU: 0x90407, offset: 0xA3DF7, size: 0x8, addend: 0x0, symName: __ZN5Eigen8internal21dense_assignment_loopINS0_31generic_dense_assignment_kernelINS0_9evaluatorINS_6MatrixIdLin1ELin1ELi0ELin1ELin1EEEEENS3_INS_13CwiseBinaryOpINS0_20scalar_difference_opIddEEKS5_KNS_9ReplicateINS7_INS0_18scalar_quotient_opIddEEKNS_16PartialReduxExprISA_NS0_10member_sumIddEELi0EEEKNS_14CwiseNullaryOpINS0_18scalar_constant_opIdEEKNS4_IdLi1ELin1ELi1ELi1ELin1EEEEEEELin1ELi1EEEEEEENS0_9assign_opIddEELi0EEELi0ELi0EE3runERSX_, symObjAddr: 0x80CC, symBinAddr: 0x100010048, symSize: 0xAC }
  - { offsetInCU: 0x90466, offset: 0xA3E56, size: 0x8, addend: 0x0, symName: __ZN5Eigen8internal9evaluatorINS_6MatrixIdLin1ELin1ELi0ELin1ELin1EEEED1Ev, symObjAddr: 0x8178, symBinAddr: 0x1000100F4, symSize: 0x2C }
  - { offsetInCU: 0x90493, offset: 0xA3E83, size: 0x8, addend: 0x0, symName: __ZN5Eigen8internal9evaluatorINS_13CwiseBinaryOpINS0_20scalar_difference_opIddEEKNS_6MatrixIdLin1ELin1ELi0ELin1ELin1EEEKNS_9ReplicateINS2_INS0_18scalar_quotient_opIddEEKNS_16PartialReduxExprIS7_NS0_10member_sumIddEELi0EEEKNS_14CwiseNullaryOpINS0_18scalar_constant_opIdEEKNS5_IdLi1ELin1ELi1ELi1ELin1EEEEEEELin1ELi1EEEEEED1Ev, symObjAddr: 0x81A4, symBinAddr: 0x100010120, symSize: 0x2C }
  - { offsetInCU: 0x904C0, offset: 0xA3EB0, size: 0x8, addend: 0x0, symName: __ZN5Eigen8internal9evaluatorINS_13CwiseBinaryOpINS0_20scalar_difference_opIddEEKNS_6MatrixIdLin1ELin1ELi0ELin1ELin1EEEKNS_9ReplicateINS2_INS0_18scalar_quotient_opIddEEKNS_16PartialReduxExprIS7_NS0_10member_sumIddEELi0EEEKNS_14CwiseNullaryOpINS0_18scalar_constant_opIdEEKNS5_IdLi1ELin1ELi1ELi1ELin1EEEEEEELin1ELi1EEEEEEC2ERKSQ_, symObjAddr: 0x81D0, symBinAddr: 0x10001014C, symSize: 0x34 }
  - { offsetInCU: 0x904F9, offset: 0xA3EE9, size: 0x8, addend: 0x0, symName: __ZN5Eigen8internal16binary_evaluatorINS_13CwiseBinaryOpINS0_20scalar_difference_opIddEEKNS_6MatrixIdLin1ELin1ELi0ELin1ELin1EEEKNS_9ReplicateINS2_INS0_18scalar_quotient_opIddEEKNS_16PartialReduxExprIS7_NS0_10member_sumIddEELi0EEEKNS_14CwiseNullaryOpINS0_18scalar_constant_opIdEEKNS5_IdLi1ELin1ELi1ELi1ELin1EEEEEEELin1ELi1EEEEENS0_10IndexBasedESR_ddEC2ERKSQ_, symObjAddr: 0x8204, symBinAddr: 0x100010180, symSize: 0x64 }
  - { offsetInCU: 0x90532, offset: 0xA3F22, size: 0x8, addend: 0x0, symName: __ZN5Eigen8internal14evaluator_baseINS_13CwiseBinaryOpINS0_20scalar_difference_opIddEEKNS_6MatrixIdLin1ELin1ELi0ELin1ELin1EEEKNS_9ReplicateINS2_INS0_18scalar_quotient_opIddEEKNS_16PartialReduxExprIS7_NS0_10member_sumIddEELi0EEEKNS_14CwiseNullaryOpINS0_18scalar_constant_opIdEEKNS5_IdLi1ELin1ELi1ELi1ELin1EEEEEEELin1ELi1EEEEEEC2Ev, symObjAddr: 0x8268, symBinAddr: 0x1000101E4, symSize: 0x14 }
  - { offsetInCU: 0x9055C, offset: 0xA3F4C, size: 0x8, addend: 0x0, symName: __ZN5Eigen8internal16binary_evaluatorINS_13CwiseBinaryOpINS0_20scalar_difference_opIddEEKNS_6MatrixIdLin1ELin1ELi0ELin1ELin1EEEKNS_9ReplicateINS2_INS0_18scalar_quotient_opIddEEKNS_16PartialReduxExprIS7_NS0_10member_sumIddEELi0EEEKNS_14CwiseNullaryOpINS0_18scalar_constant_opIdEEKNS5_IdLi1ELin1ELi1ELi1ELin1EEEEEEELin1ELi1EEEEENS0_10IndexBasedESR_ddE4DataC1ERKSQ_, symObjAddr: 0x827C, symBinAddr: 0x1000101F8, symSize: 0x34 }
  - { offsetInCU: 0x90595, offset: 0xA3F85, size: 0x8, addend: 0x0, symName: __ZN5Eigen8internal14evaluator_baseINS_13CwiseBinaryOpINS0_20scalar_difference_opIddEEKNS_6MatrixIdLin1ELin1ELi0ELin1ELin1EEEKNS_9ReplicateINS2_INS0_18scalar_quotient_opIddEEKNS_16PartialReduxExprIS7_NS0_10member_sumIddEELi0EEEKNS_14CwiseNullaryOpINS0_18scalar_constant_opIdEEKNS5_IdLi1ELin1ELi1ELi1ELin1EEEEEEELin1ELi1EEEEEED2Ev, symObjAddr: 0x82B0, symBinAddr: 0x10001022C, symSize: 0x14 }
  - { offsetInCU: 0x905BF, offset: 0xA3FAF, size: 0x8, addend: 0x0, symName: __ZN5Eigen8internal16binary_evaluatorINS_13CwiseBinaryOpINS0_20scalar_difference_opIddEEKNS_6MatrixIdLin1ELin1ELi0ELin1ELin1EEEKNS_9ReplicateINS2_INS0_18scalar_quotient_opIddEEKNS_16PartialReduxExprIS7_NS0_10member_sumIddEELi0EEEKNS_14CwiseNullaryOpINS0_18scalar_constant_opIdEEKNS5_IdLi1ELin1ELi1ELi1ELin1EEEEEEELin1ELi1EEEEENS0_10IndexBasedESR_ddE4DataC2ERKSQ_, symObjAddr: 0x82C4, symBinAddr: 0x100010240, symSize: 0xA8 }
  - { offsetInCU: 0x905F8, offset: 0xA3FE8, size: 0x8, addend: 0x0, symName: __ZNK5Eigen13CwiseBinaryOpINS_8internal20scalar_difference_opIddEEKNS_6MatrixIdLin1ELin1ELi0ELin1ELin1EEEKNS_9ReplicateINS0_INS1_18scalar_quotient_opIddEEKNS_16PartialReduxExprIS6_NS1_10member_sumIddEELi0EEEKNS_14CwiseNullaryOpINS1_18scalar_constant_opIdEEKNS4_IdLi1ELin1ELi1ELi1ELin1EEEEEEELin1ELi1EEEE7functorEv, symObjAddr: 0x836C, symBinAddr: 0x1000102E8, symSize: 0x18 }
  - { offsetInCU: 0x9061E, offset: 0xA400E, size: 0x8, addend: 0x0, symName: __ZNK5Eigen13CwiseBinaryOpINS_8internal20scalar_difference_opIddEEKNS_6MatrixIdLin1ELin1ELi0ELin1ELin1EEEKNS_9ReplicateINS0_INS1_18scalar_quotient_opIddEEKNS_16PartialReduxExprIS6_NS1_10member_sumIddEELi0EEEKNS_14CwiseNullaryOpINS1_18scalar_constant_opIdEEKNS4_IdLi1ELin1ELi1ELi1ELin1EEEEEEELin1ELi1EEEE3lhsEv, symObjAddr: 0x8384, symBinAddr: 0x100010300, symSize: 0x18 }
  - { offsetInCU: 0x90644, offset: 0xA4034, size: 0x8, addend: 0x0, symName: __ZN5Eigen8internal9evaluatorIKNS_6MatrixIdLin1ELin1ELi0ELin1ELin1EEEEC1ERS4_, symObjAddr: 0x839C, symBinAddr: 0x100010318, symSize: 0x34 }
  - { offsetInCU: 0x9067C, offset: 0xA406C, size: 0x8, addend: 0x0, symName: __ZNK5Eigen13CwiseBinaryOpINS_8internal20scalar_difference_opIddEEKNS_6MatrixIdLin1ELin1ELi0ELin1ELin1EEEKNS_9ReplicateINS0_INS1_18scalar_quotient_opIddEEKNS_16PartialReduxExprIS6_NS1_10member_sumIddEELi0EEEKNS_14CwiseNullaryOpINS1_18scalar_constant_opIdEEKNS4_IdLi1ELin1ELi1ELi1ELin1EEEEEEELin1ELi1EEEE3rhsEv, symObjAddr: 0x83D0, symBinAddr: 0x10001034C, symSize: 0x18 }
  - { offsetInCU: 0x906A2, offset: 0xA4092, size: 0x8, addend: 0x0, symName: __ZN5Eigen8internal9evaluatorIKNS_9ReplicateINS_13CwiseBinaryOpINS0_18scalar_quotient_opIddEEKNS_16PartialReduxExprIKNS_6MatrixIdLin1ELin1ELi0ELin1ELin1EEENS0_10member_sumIddEELi0EEEKNS_14CwiseNullaryOpINS0_18scalar_constant_opIdEEKNS7_IdLi1ELin1ELi1ELi1ELin1EEEEEEELin1ELi1EEEEC1ERSN_, symObjAddr: 0x83E8, symBinAddr: 0x100010364, symSize: 0x34 }
  - { offsetInCU: 0x906DA, offset: 0xA40CA, size: 0x8, addend: 0x0, symName: __ZN5Eigen8internal9evaluatorIKNS_6MatrixIdLin1ELin1ELi0ELin1ELin1EEEED1Ev, symObjAddr: 0x841C, symBinAddr: 0x100010398, symSize: 0x2C }
  - { offsetInCU: 0x90706, offset: 0xA40F6, size: 0x8, addend: 0x0, symName: __ZN5Eigen8internal9evaluatorIKNS_6MatrixIdLin1ELin1ELi0ELin1ELin1EEEEC2ERS4_, symObjAddr: 0x8448, symBinAddr: 0x1000103C4, symSize: 0x34 }
  - { offsetInCU: 0x9073E, offset: 0xA412E, size: 0x8, addend: 0x0, symName: __ZN5Eigen8internal9evaluatorINS_6MatrixIdLin1ELin1ELi0ELin1ELin1EEEEC2ERKS3_, symObjAddr: 0x847C, symBinAddr: 0x1000103F8, symSize: 0x34 }
  - { offsetInCU: 0x90777, offset: 0xA4167, size: 0x8, addend: 0x0, symName: __ZN5Eigen8internal9evaluatorINS_15PlainObjectBaseINS_6MatrixIdLin1ELin1ELi0ELin1ELin1EEEEEEC2ERKS5_, symObjAddr: 0x84B0, symBinAddr: 0x10001042C, symSize: 0x80 }
  - { offsetInCU: 0x907AF, offset: 0xA419F, size: 0x8, addend: 0x0, symName: __ZN5Eigen8internal14evaluator_baseINS_6MatrixIdLin1ELin1ELi0ELin1ELin1EEEEC2Ev, symObjAddr: 0x8530, symBinAddr: 0x1000104AC, symSize: 0x14 }
  - { offsetInCU: 0x907D9, offset: 0xA41C9, size: 0x8, addend: 0x0, symName: __ZNK5Eigen15DenseCoeffsBaseINS_6MatrixIdLin1ELin1ELi0ELin1ELin1EEELi3EE11outerStrideEv, symObjAddr: 0x8544, symBinAddr: 0x1000104C0, symSize: 0x28 }
  - { offsetInCU: 0x907FF, offset: 0xA41EF, size: 0x8, addend: 0x0, symName: __ZN5Eigen8internal30plainobjectbase_evaluator_dataIdLin1EEC1EPKdl, symObjAddr: 0x856C, symBinAddr: 0x1000104E8, symSize: 0x3C }
  - { offsetInCU: 0x90845, offset: 0xA4235, size: 0x8, addend: 0x0, symName: __ZN5Eigen8internal14evaluator_baseINS_6MatrixIdLin1ELin1ELi0ELin1ELin1EEEED2Ev, symObjAddr: 0x85A8, symBinAddr: 0x100010524, symSize: 0x14 }
  - { offsetInCU: 0x9086F, offset: 0xA425F, size: 0x8, addend: 0x0, symName: __ZN5Eigen8internal30plainobjectbase_evaluator_dataIdLin1EEC2EPKdl, symObjAddr: 0x85BC, symBinAddr: 0x100010538, symSize: 0x2C }
  - { offsetInCU: 0x908B5, offset: 0xA42A5, size: 0x8, addend: 0x0, symName: __ZN5Eigen8internal9evaluatorIKNS_9ReplicateINS_13CwiseBinaryOpINS0_18scalar_quotient_opIddEEKNS_16PartialReduxExprIKNS_6MatrixIdLin1ELin1ELi0ELin1ELin1EEENS0_10member_sumIddEELi0EEEKNS_14CwiseNullaryOpINS0_18scalar_constant_opIdEEKNS7_IdLi1ELin1ELi1ELi1ELin1EEEEEEELin1ELi1EEEEC2ERSN_, symObjAddr: 0x85E8, symBinAddr: 0x100010564, symSize: 0x34 }
  - { offsetInCU: 0x908ED, offset: 0xA42DD, size: 0x8, addend: 0x0, symName: __ZN5Eigen8internal9evaluatorINS_9ReplicateINS_13CwiseBinaryOpINS0_18scalar_quotient_opIddEEKNS_16PartialReduxExprIKNS_6MatrixIdLin1ELin1ELi0ELin1ELin1EEENS0_10member_sumIddEELi0EEEKNS_14CwiseNullaryOpINS0_18scalar_constant_opIdEEKNS7_IdLi1ELin1ELi1ELi1ELin1EEEEEEELin1ELi1EEEEC2ERKSM_, symObjAddr: 0x861C, symBinAddr: 0x100010598, symSize: 0x34 }
  - { offsetInCU: 0x90925, offset: 0xA4315, size: 0x8, addend: 0x0, symName: __ZN5Eigen8internal15unary_evaluatorINS_9ReplicateINS_13CwiseBinaryOpINS0_18scalar_quotient_opIddEEKNS_16PartialReduxExprIKNS_6MatrixIdLin1ELin1ELi0ELin1ELin1EEENS0_10member_sumIddEELi0EEEKNS_14CwiseNullaryOpINS0_18scalar_constant_opIdEEKNS7_IdLi1ELin1ELi1ELi1ELin1EEEEEEELin1ELi1EEENS0_10IndexBasedEdEC2ERKSM_, symObjAddr: 0x8650, symBinAddr: 0x1000105CC, symSize: 0x128 }
  - { offsetInCU: 0x9095E, offset: 0xA434E, size: 0x8, addend: 0x0, symName: __ZN5Eigen8internal14evaluator_baseINS_9ReplicateINS_13CwiseBinaryOpINS0_18scalar_quotient_opIddEEKNS_16PartialReduxExprIKNS_6MatrixIdLin1ELin1ELi0ELin1ELin1EEENS0_10member_sumIddEELi0EEEKNS_14CwiseNullaryOpINS0_18scalar_constant_opIdEEKNS7_IdLi1ELin1ELi1ELi1ELin1EEEEEEELin1ELi1EEEEC2Ev, symObjAddr: 0x8778, symBinAddr: 0x1000106F4, symSize: 0x14 }
  - { offsetInCU: 0x90988, offset: 0xA4378, size: 0x8, addend: 0x0, symName: __ZNK5Eigen9ReplicateINS_13CwiseBinaryOpINS_8internal18scalar_quotient_opIddEEKNS_16PartialReduxExprIKNS_6MatrixIdLin1ELin1ELi0ELin1ELin1EEENS2_10member_sumIddEELi0EEEKNS_14CwiseNullaryOpINS2_18scalar_constant_opIdEEKNS6_IdLi1ELin1ELi1ELi1ELin1EEEEEEELin1ELi1EE16nestedExpressionEv, symObjAddr: 0x878C, symBinAddr: 0x100010708, symSize: 0x14 }
  - { offsetInCU: 0x909AE, offset: 0xA439E, size: 0x8, addend: 0x0, symName: __ZN5Eigen6MatrixIdLi1ELin1ELi1ELi1ELin1EEC1INS_13CwiseBinaryOpINS_8internal18scalar_quotient_opIddEEKNS_16PartialReduxExprIKNS0_IdLin1ELin1ELi0ELin1ELin1EEENS4_10member_sumIddEELi0EEEKNS_14CwiseNullaryOpINS4_18scalar_constant_opIdEEKS1_EEEEEERKT_, symObjAddr: 0x87A0, symBinAddr: 0x10001071C, symSize: 0x34 }
  - { offsetInCU: 0x909F0, offset: 0xA43E0, size: 0x8, addend: 0x0, symName: __ZN5Eigen8internal9evaluatorINS_6MatrixIdLi1ELin1ELi1ELi1ELin1EEEEC1ERKS3_, symObjAddr: 0x87D4, symBinAddr: 0x100010750, symSize: 0x34 }
  - { offsetInCU: 0x90A29, offset: 0xA4419, size: 0x8, addend: 0x0, symName: __ZN5Eigen8internal9evaluatorINS_6MatrixIdLi1ELin1ELi1ELi1ELin1EEEED1Ev, symObjAddr: 0x8808, symBinAddr: 0x100010784, symSize: 0x2C }
  - { offsetInCU: 0x90A56, offset: 0xA4446, size: 0x8, addend: 0x0, symName: __ZN5Eigen6MatrixIdLi1ELin1ELi1ELi1ELin1EED1Ev, symObjAddr: 0x8834, symBinAddr: 0x1000107B0, symSize: 0x2C }
  - { offsetInCU: 0x90A82, offset: 0xA4472, size: 0x8, addend: 0x0, symName: __ZN5Eigen8internal14evaluator_baseINS_9ReplicateINS_13CwiseBinaryOpINS0_18scalar_quotient_opIddEEKNS_16PartialReduxExprIKNS_6MatrixIdLin1ELin1ELi0ELin1ELin1EEENS0_10member_sumIddEELi0EEEKNS_14CwiseNullaryOpINS0_18scalar_constant_opIdEEKNS7_IdLi1ELin1ELi1ELi1ELin1EEEEEEELin1ELi1EEEED2Ev, symObjAddr: 0x8860, symBinAddr: 0x1000107DC, symSize: 0x14 }
  - { offsetInCU: 0x90AAC, offset: 0xA449C, size: 0x8, addend: 0x0, symName: __ZN5Eigen6MatrixIdLi1ELin1ELi1ELi1ELin1EEC2INS_13CwiseBinaryOpINS_8internal18scalar_quotient_opIddEEKNS_16PartialReduxExprIKNS0_IdLin1ELin1ELi0ELin1ELin1EEENS4_10member_sumIddEELi0EEEKNS_14CwiseNullaryOpINS4_18scalar_constant_opIdEEKS1_EEEEEERKT_, symObjAddr: 0x8874, symBinAddr: 0x1000107F0, symSize: 0x6C }
  - { offsetInCU: 0x90AEE, offset: 0xA44DE, size: 0x8, addend: 0x0, symName: __ZN5Eigen15PlainObjectBaseINS_6MatrixIdLi1ELin1ELi1ELi1ELin1EEEEC2Ev, symObjAddr: 0x88E0, symBinAddr: 0x10001085C, symSize: 0x34 }
  - { offsetInCU: 0x90B18, offset: 0xA4508, size: 0x8, addend: 0x0, symName: __ZN5Eigen15PlainObjectBaseINS_6MatrixIdLi1ELin1ELi1ELi1ELin1EEEE22_check_template_paramsEv, symObjAddr: 0x8914, symBinAddr: 0x100010890, symSize: 0x4 }
  - { offsetInCU: 0x90B2C, offset: 0xA451C, size: 0x8, addend: 0x0, symName: __ZN5Eigen15PlainObjectBaseINS_6MatrixIdLi1ELin1ELi1ELi1ELin1EEEE6_init1INS_13CwiseBinaryOpINS_8internal18scalar_quotient_opIddEEKNS_16PartialReduxExprIKNS1_IdLin1ELin1ELi0ELin1ELin1EEENS6_10member_sumIddEELi0EEEKNS_14CwiseNullaryOpINS6_18scalar_constant_opIdEEKS2_EEEESM_EEvRKNS_9DenseBaseIT0_EE, symObjAddr: 0x8918, symBinAddr: 0x100010894, symSize: 0x2C }
  - { offsetInCU: 0x90B73, offset: 0xA4563, size: 0x8, addend: 0x0, symName: __ZN5Eigen15PlainObjectBaseINS_6MatrixIdLi1ELin1ELi1ELi1ELin1EEEED2Ev, symObjAddr: 0x8944, symBinAddr: 0x1000108C0, symSize: 0x2C }
  - { offsetInCU: 0x90B9F, offset: 0xA458F, size: 0x8, addend: 0x0, symName: __ZN5Eigen10MatrixBaseINS_6MatrixIdLi1ELin1ELi1ELi1ELin1EEEEC2Ev, symObjAddr: 0x8970, symBinAddr: 0x1000108EC, symSize: 0x2C }
  - { offsetInCU: 0x90BC9, offset: 0xA45B9, size: 0x8, addend: 0x0, symName: __ZN5Eigen12DenseStorageIdLin1ELi1ELin1ELi1EEC1Ev, symObjAddr: 0x899C, symBinAddr: 0x100010918, symSize: 0x2C }
  - { offsetInCU: 0x90BF3, offset: 0xA45E3, size: 0x8, addend: 0x0, symName: __ZN5Eigen9DenseBaseINS_6MatrixIdLi1ELin1ELi1ELi1ELin1EEEEC2Ev, symObjAddr: 0x89C8, symBinAddr: 0x100010944, symSize: 0x14 }
  - { offsetInCU: 0x90C1D, offset: 0xA460D, size: 0x8, addend: 0x0, symName: __ZN5Eigen12DenseStorageIdLin1ELi1ELin1ELi1EEC2Ev, symObjAddr: 0x89DC, symBinAddr: 0x100010958, symSize: 0x1C }
  - { offsetInCU: 0x90C47, offset: 0xA4637, size: 0x8, addend: 0x0, symName: __ZN5Eigen15PlainObjectBaseINS_6MatrixIdLi1ELin1ELi1ELi1ELin1EEEE12_set_noaliasINS_13CwiseBinaryOpINS_8internal18scalar_quotient_opIddEEKNS_16PartialReduxExprIKNS1_IdLin1ELin1ELi0ELin1ELin1EEENS6_10member_sumIddEELi0EEEKNS_14CwiseNullaryOpINS6_18scalar_constant_opIdEEKS2_EEEEEERS2_RKNS_9DenseBaseIT_EE, symObjAddr: 0x89F8, symBinAddr: 0x100010974, symSize: 0x60 }
  - { offsetInCU: 0x90C85, offset: 0xA4675, size: 0x8, addend: 0x0, symName: __ZN5Eigen9EigenBaseINS_6MatrixIdLi1ELin1ELi1ELi1ELin1EEEE7derivedEv, symObjAddr: 0x8A94, symBinAddr: 0x100010A10, symSize: 0x14 }
  - { offsetInCU: 0x90CAA, offset: 0xA469A, size: 0x8, addend: 0x0, symName: __ZN5Eigen8internal10AssignmentINS_6MatrixIdLi1ELin1ELi1ELi1ELin1EEENS_13CwiseBinaryOpINS0_18scalar_quotient_opIddEEKNS_16PartialReduxExprIKNS2_IdLin1ELin1ELi0ELin1ELin1EEENS0_10member_sumIddEELi0EEEKNS_14CwiseNullaryOpINS0_18scalar_constant_opIdEEKS3_EEEENS0_9assign_opIddEENS0_11Dense2DenseEvE3runERS3_RKSK_RKSM_, symObjAddr: 0x8AA8, symBinAddr: 0x100010A24, symSize: 0x40 }
  - { offsetInCU: 0x90CED, offset: 0xA46DD, size: 0x8, addend: 0x0, symName: __ZNK5Eigen9EigenBaseINS_6MatrixIdLi1ELin1ELi1ELi1ELin1EEEE18const_cast_derivedEv, symObjAddr: 0x8CD4, symBinAddr: 0x100010C50, symSize: 0x14 }
  - { offsetInCU: 0x90D40, offset: 0xA4730, size: 0x8, addend: 0x0, symName: __ZN5Eigen8internal31generic_dense_assignment_kernelINS0_9evaluatorINS_6MatrixIdLi1ELin1ELi1ELi1ELin1EEEEENS2_INS_13CwiseBinaryOpINS0_18scalar_quotient_opIddEEKNS_16PartialReduxExprIKNS3_IdLin1ELin1ELi0ELin1ELin1EEENS0_10member_sumIddEELi0EEEKNS_14CwiseNullaryOpINS0_18scalar_constant_opIdEEKS4_EEEEEENS0_9assign_opIddEELi0EEC1ERS5_RKSN_RKSP_RS4_, symObjAddr: 0x8CE8, symBinAddr: 0x100010C64, symSize: 0x4C }
  - { offsetInCU: 0x90DAA, offset: 0xA479A, size: 0x8, addend: 0x0, symName: __ZN5Eigen8internal21dense_assignment_loopINS0_31generic_dense_assignment_kernelINS0_9evaluatorINS_6MatrixIdLi1ELin1ELi1ELi1ELin1EEEEENS3_INS_13CwiseBinaryOpINS0_18scalar_quotient_opIddEEKNS_16PartialReduxExprIKNS4_IdLin1ELin1ELi0ELin1ELin1EEENS0_10member_sumIddEELi0EEEKNS_14CwiseNullaryOpINS0_18scalar_constant_opIdEEKS5_EEEEEENS0_9assign_opIddEELi0EEELi1ELi0EE3runERSR_, symObjAddr: 0x8D34, symBinAddr: 0x100010CB0, symSize: 0x68 }
  - { offsetInCU: 0x90DFB, offset: 0xA47EB, size: 0x8, addend: 0x0, symName: __ZNK5Eigen15PlainObjectBaseINS_6MatrixIdLi1ELin1ELi1ELi1ELin1EEEE4rowsEv, symObjAddr: 0x8D9C, symBinAddr: 0x100010D18, symSize: 0x20 }
  - { offsetInCU: 0x90E21, offset: 0xA4811, size: 0x8, addend: 0x0, symName: __ZNK5Eigen15PlainObjectBaseINS_6MatrixIdLi1ELin1ELi1ELi1ELin1EEEE4colsEv, symObjAddr: 0x8DBC, symBinAddr: 0x100010D38, symSize: 0x24 }
  - { offsetInCU: 0x90E47, offset: 0xA4837, size: 0x8, addend: 0x0, symName: __ZN5Eigen15PlainObjectBaseINS_6MatrixIdLi1ELin1ELi1ELi1ELin1EEEE6resizeEll, symObjAddr: 0x8DE0, symBinAddr: 0x100010D5C, symSize: 0x168 }
  - { offsetInCU: 0x90EC6, offset: 0xA48B6, size: 0x8, addend: 0x0, symName: __ZN5Eigen12DenseStorageIdLin1ELi1ELin1ELi1EE4rowsEv, symObjAddr: 0x8F48, symBinAddr: 0x100010EC4, symSize: 0x8 }
  - { offsetInCU: 0x90EDA, offset: 0xA48CA, size: 0x8, addend: 0x0, symName: __ZNK5Eigen12DenseStorageIdLin1ELi1ELin1ELi1EE4colsEv, symObjAddr: 0x8F50, symBinAddr: 0x100010ECC, symSize: 0x18 }
  - { offsetInCU: 0x90F00, offset: 0xA48F0, size: 0x8, addend: 0x0, symName: __ZN5Eigen12DenseStorageIdLin1ELi1ELin1ELi1EE6resizeElll, symObjAddr: 0x8F68, symBinAddr: 0x100010EE4, symSize: 0xAC }
  - { offsetInCU: 0x90F50, offset: 0xA4940, size: 0x8, addend: 0x0, symName: __ZN5Eigen8internal31generic_dense_assignment_kernelINS0_9evaluatorINS_6MatrixIdLi1ELin1ELi1ELi1ELin1EEEEENS2_INS_13CwiseBinaryOpINS0_18scalar_quotient_opIddEEKNS_16PartialReduxExprIKNS3_IdLin1ELin1ELi0ELin1ELin1EEENS0_10member_sumIddEELi0EEEKNS_14CwiseNullaryOpINS0_18scalar_constant_opIdEEKS4_EEEEEENS0_9assign_opIddEELi0EEC2ERS5_RKSN_RKSP_RS4_, symObjAddr: 0x9014, symBinAddr: 0x100010F90, symSize: 0x44 }
  - { offsetInCU: 0x90FB6, offset: 0xA49A6, size: 0x8, addend: 0x0, symName: __ZNK5Eigen8internal31generic_dense_assignment_kernelINS0_9evaluatorINS_6MatrixIdLi1ELin1ELi1ELi1ELin1EEEEENS2_INS_13CwiseBinaryOpINS0_18scalar_quotient_opIddEEKNS_16PartialReduxExprIKNS3_IdLin1ELin1ELi0ELin1ELin1EEENS0_10member_sumIddEELi0EEEKNS_14CwiseNullaryOpINS0_18scalar_constant_opIdEEKS4_EEEEEENS0_9assign_opIddEELi0EE4sizeEv, symObjAddr: 0x9058, symBinAddr: 0x100010FD4, symSize: 0x28 }
  - { offsetInCU: 0x90FDC, offset: 0xA49CC, size: 0x8, addend: 0x0, symName: __ZN5Eigen8internal31generic_dense_assignment_kernelINS0_9evaluatorINS_6MatrixIdLi1ELin1ELi1ELi1ELin1EEEEENS2_INS_13CwiseBinaryOpINS0_18scalar_quotient_opIddEEKNS_16PartialReduxExprIKNS3_IdLin1ELin1ELi0ELin1ELin1EEENS0_10member_sumIddEELi0EEEKNS_14CwiseNullaryOpINS0_18scalar_constant_opIdEEKS4_EEEEEENS0_9assign_opIddEELi0EE11assignCoeffEl, symObjAddr: 0x9080, symBinAddr: 0x100010FFC, symSize: 0x64 }
  - { offsetInCU: 0x91011, offset: 0xA4A01, size: 0x8, addend: 0x0, symName: __ZNK5Eigen9EigenBaseINS_6MatrixIdLi1ELin1ELi1ELi1ELin1EEEE4sizeEv, symObjAddr: 0x90E4, symBinAddr: 0x100011060, symSize: 0x44 }
  - { offsetInCU: 0x91037, offset: 0xA4A27, size: 0x8, addend: 0x0, symName: __ZNK5Eigen9EigenBaseINS_6MatrixIdLi1ELin1ELi1ELi1ELin1EEEE4rowsEv, symObjAddr: 0x9128, symBinAddr: 0x1000110A4, symSize: 0x38 }
  - { offsetInCU: 0x9105D, offset: 0xA4A4D, size: 0x8, addend: 0x0, symName: __ZNK5Eigen9EigenBaseINS_6MatrixIdLi1ELin1ELi1ELi1ELin1EEEE4colsEv, symObjAddr: 0x9160, symBinAddr: 0x1000110DC, symSize: 0x28 }
  - { offsetInCU: 0x91083, offset: 0xA4A73, size: 0x8, addend: 0x0, symName: __ZNK5Eigen9EigenBaseINS_6MatrixIdLi1ELin1ELi1ELi1ELin1EEEE7derivedEv, symObjAddr: 0x9188, symBinAddr: 0x100011104, symSize: 0x14 }
  - { offsetInCU: 0x910A9, offset: 0xA4A99, size: 0x8, addend: 0x0, symName: __ZN5Eigen8internal9evaluatorINS_15PlainObjectBaseINS_6MatrixIdLi1ELin1ELi1ELi1ELin1EEEEEE8coeffRefEl, symObjAddr: 0x919C, symBinAddr: 0x100011118, symSize: 0x24 }
  - { offsetInCU: 0x910DD, offset: 0xA4ACD, size: 0x8, addend: 0x0, symName: __ZN5Eigen12DenseStorageIdLin1ELi1ELin1ELi1EED1Ev, symObjAddr: 0x91C0, symBinAddr: 0x10001113C, symSize: 0x2C }
  - { offsetInCU: 0x91107, offset: 0xA4AF7, size: 0x8, addend: 0x0, symName: __ZN5Eigen12DenseStorageIdLin1ELi1ELin1ELi1EED2Ev, symObjAddr: 0x91EC, symBinAddr: 0x100011168, symSize: 0x44 }
  - { offsetInCU: 0x91131, offset: 0xA4B21, size: 0x8, addend: 0x0, symName: __ZN5Eigen8internal9evaluatorINS_6MatrixIdLi1ELin1ELi1ELi1ELin1EEEEC2ERKS3_, symObjAddr: 0x9230, symBinAddr: 0x1000111AC, symSize: 0x34 }
  - { offsetInCU: 0x9116A, offset: 0xA4B5A, size: 0x8, addend: 0x0, symName: __ZN5Eigen8internal9evaluatorINS_15PlainObjectBaseINS_6MatrixIdLi1ELin1ELi1ELi1ELin1EEEEEEC2ERKS5_, symObjAddr: 0x9264, symBinAddr: 0x1000111E0, symSize: 0x78 }
  - { offsetInCU: 0x911A2, offset: 0xA4B92, size: 0x8, addend: 0x0, symName: __ZN5Eigen8internal14evaluator_baseINS_6MatrixIdLi1ELin1ELi1ELi1ELin1EEEEC2Ev, symObjAddr: 0x92DC, symBinAddr: 0x100011258, symSize: 0x14 }
  - { offsetInCU: 0x911CC, offset: 0xA4BBC, size: 0x8, addend: 0x0, symName: __ZNK5Eigen15PlainObjectBaseINS_6MatrixIdLi1ELin1ELi1ELi1ELin1EEEE4dataEv, symObjAddr: 0x92F0, symBinAddr: 0x10001126C, symSize: 0x24 }
  - { offsetInCU: 0x911F2, offset: 0xA4BE2, size: 0x8, addend: 0x0, symName: __ZN5Eigen8internal14evaluator_baseINS_6MatrixIdLi1ELin1ELi1ELi1ELin1EEEED2Ev, symObjAddr: 0x9314, symBinAddr: 0x100011290, symSize: 0x14 }
  - { offsetInCU: 0x9121C, offset: 0xA4C0C, size: 0x8, addend: 0x0, symName: __ZNK5Eigen12DenseStorageIdLin1ELi1ELin1ELi1EE4dataEv, symObjAddr: 0x9328, symBinAddr: 0x1000112A4, symSize: 0x18 }
  - { offsetInCU: 0x91242, offset: 0xA4C32, size: 0x8, addend: 0x0, symName: __ZN5Eigen8internal9evaluatorINS_6MatrixIdLi1ELin1ELi1ELi1ELin1EEEED2Ev, symObjAddr: 0x9340, symBinAddr: 0x1000112BC, symSize: 0x2C }
  - { offsetInCU: 0x9126F, offset: 0xA4C5F, size: 0x8, addend: 0x0, symName: __ZN5Eigen8internal9evaluatorINS_15PlainObjectBaseINS_6MatrixIdLi1ELin1ELi1ELi1ELin1EEEEEED2Ev, symObjAddr: 0x936C, symBinAddr: 0x1000112E8, symSize: 0x2C }
  - { offsetInCU: 0x9129B, offset: 0xA4C8B, size: 0x8, addend: 0x0, symName: __ZN5Eigen6MatrixIdLi1ELin1ELi1ELi1ELin1EED2Ev, symObjAddr: 0x9398, symBinAddr: 0x100011314, symSize: 0x2C }
  - { offsetInCU: 0x912C7, offset: 0xA4CB7, size: 0x8, addend: 0x0, symName: __ZN5Eigen8internal9evaluatorIKNS_6MatrixIdLin1ELin1ELi0ELin1ELin1EEEED2Ev, symObjAddr: 0x93C4, symBinAddr: 0x100011340, symSize: 0x2C }
  - { offsetInCU: 0x912F3, offset: 0xA4CE3, size: 0x8, addend: 0x0, symName: __ZN5Eigen8internal9evaluatorINS_6MatrixIdLin1ELin1ELi0ELin1ELin1EEEED2Ev, symObjAddr: 0x93F0, symBinAddr: 0x10001136C, symSize: 0x2C }
  - { offsetInCU: 0x91320, offset: 0xA4D10, size: 0x8, addend: 0x0, symName: __ZN5Eigen8internal9evaluatorINS_15PlainObjectBaseINS_6MatrixIdLin1ELin1ELi0ELin1ELin1EEEEEED2Ev, symObjAddr: 0x941C, symBinAddr: 0x100011398, symSize: 0x2C }
  - { offsetInCU: 0x9134C, offset: 0xA4D3C, size: 0x8, addend: 0x0, symName: __ZN5Eigen8internal31generic_dense_assignment_kernelINS0_9evaluatorINS_6MatrixIdLin1ELin1ELi0ELin1ELin1EEEEENS2_INS_13CwiseBinaryOpINS0_20scalar_difference_opIddEEKS4_KNS_9ReplicateINS6_INS0_18scalar_quotient_opIddEEKNS_16PartialReduxExprIS9_NS0_10member_sumIddEELi0EEEKNS_14CwiseNullaryOpINS0_18scalar_constant_opIdEEKNS3_IdLi1ELin1ELi1ELi1ELin1EEEEEEELin1ELi1EEEEEEENS0_9assign_opIddEELi0EEC2ERS5_RKST_RKSV_RS4_, symObjAddr: 0x9448, symBinAddr: 0x1000113C4, symSize: 0x44 }
  - { offsetInCU: 0x913B2, offset: 0xA4DA2, size: 0x8, addend: 0x0, symName: __ZNK5Eigen8internal31generic_dense_assignment_kernelINS0_9evaluatorINS_6MatrixIdLin1ELin1ELi0ELin1ELin1EEEEENS2_INS_13CwiseBinaryOpINS0_20scalar_difference_opIddEEKS4_KNS_9ReplicateINS6_INS0_18scalar_quotient_opIddEEKNS_16PartialReduxExprIS9_NS0_10member_sumIddEELi0EEEKNS_14CwiseNullaryOpINS0_18scalar_constant_opIdEEKNS3_IdLi1ELin1ELi1ELi1ELin1EEEEEEELin1ELi1EEEEEEENS0_9assign_opIddEELi0EE9outerSizeEv, symObjAddr: 0x948C, symBinAddr: 0x100011408, symSize: 0x38 }
  - { offsetInCU: 0x913D8, offset: 0xA4DC8, size: 0x8, addend: 0x0, symName: __ZNK5Eigen8internal31generic_dense_assignment_kernelINS0_9evaluatorINS_6MatrixIdLin1ELin1ELi0ELin1ELin1EEEEENS2_INS_13CwiseBinaryOpINS0_20scalar_difference_opIddEEKS4_KNS_9ReplicateINS6_INS0_18scalar_quotient_opIddEEKNS_16PartialReduxExprIS9_NS0_10member_sumIddEELi0EEEKNS_14CwiseNullaryOpINS0_18scalar_constant_opIdEEKNS3_IdLi1ELin1ELi1ELi1ELin1EEEEEEELin1ELi1EEEEEEENS0_9assign_opIddEELi0EE9innerSizeEv, symObjAddr: 0x94C4, symBinAddr: 0x100011440, symSize: 0x28 }
  - { offsetInCU: 0x913FE, offset: 0xA4DEE, size: 0x8, addend: 0x0, symName: __ZN5Eigen8internal31generic_dense_assignment_kernelINS0_9evaluatorINS_6MatrixIdLin1ELin1ELi0ELin1ELin1EEEEENS2_INS_13CwiseBinaryOpINS0_20scalar_difference_opIddEEKS4_KNS_9ReplicateINS6_INS0_18scalar_quotient_opIddEEKNS_16PartialReduxExprIS9_NS0_10member_sumIddEELi0EEEKNS_14CwiseNullaryOpINS0_18scalar_constant_opIdEEKNS3_IdLi1ELin1ELi1ELi1ELin1EEEEEEELin1ELi1EEEEEEENS0_9assign_opIddEELi0EE23assignCoeffByOuterInnerEll, symObjAddr: 0x94EC, symBinAddr: 0x100011468, symSize: 0x60 }
  - { offsetInCU: 0x91460, offset: 0xA4E50, size: 0x8, addend: 0x0, symName: __ZNK5Eigen9DenseBaseINS_6MatrixIdLin1ELin1ELi0ELin1ELin1EEEE9outerSizeEv, symObjAddr: 0x954C, symBinAddr: 0x1000114C8, symSize: 0x24 }
  - { offsetInCU: 0x91486, offset: 0xA4E76, size: 0x8, addend: 0x0, symName: __ZN5Eigen8internal31generic_dense_assignment_kernelINS0_9evaluatorINS_6MatrixIdLin1ELin1ELi0ELin1ELin1EEEEENS2_INS_13CwiseBinaryOpINS0_20scalar_difference_opIddEEKS4_KNS_9ReplicateINS6_INS0_18scalar_quotient_opIddEEKNS_16PartialReduxExprIS9_NS0_10member_sumIddEELi0EEEKNS_14CwiseNullaryOpINS0_18scalar_constant_opIdEEKNS3_IdLi1ELin1ELi1ELi1ELin1EEEEEEELin1ELi1EEEEEEENS0_9assign_opIddEELi0EE20rowIndexByOuterInnerEll, symObjAddr: 0x9598, symBinAddr: 0x1000114EC, symSize: 0x18 }
  - { offsetInCU: 0x914B9, offset: 0xA4EA9, size: 0x8, addend: 0x0, symName: __ZN5Eigen8internal31generic_dense_assignment_kernelINS0_9evaluatorINS_6MatrixIdLin1ELin1ELi0ELin1ELin1EEEEENS2_INS_13CwiseBinaryOpINS0_20scalar_difference_opIddEEKS4_KNS_9ReplicateINS6_INS0_18scalar_quotient_opIddEEKNS_16PartialReduxExprIS9_NS0_10member_sumIddEELi0EEEKNS_14CwiseNullaryOpINS0_18scalar_constant_opIdEEKNS3_IdLi1ELin1ELi1ELi1ELin1EEEEEEELin1ELi1EEEEEEENS0_9assign_opIddEELi0EE20colIndexByOuterInnerEll, symObjAddr: 0x95B0, symBinAddr: 0x100011504, symSize: 0x18 }
  - { offsetInCU: 0x914EC, offset: 0xA4EDC, size: 0x8, addend: 0x0, symName: __ZN5Eigen8internal31generic_dense_assignment_kernelINS0_9evaluatorINS_6MatrixIdLin1ELin1ELi0ELin1ELin1EEEEENS2_INS_13CwiseBinaryOpINS0_20scalar_difference_opIddEEKS4_KNS_9ReplicateINS6_INS0_18scalar_quotient_opIddEEKNS_16PartialReduxExprIS9_NS0_10member_sumIddEELi0EEEKNS_14CwiseNullaryOpINS0_18scalar_constant_opIdEEKNS3_IdLi1ELin1ELi1ELi1ELin1EEEEEEELin1ELi1EEEEEEENS0_9assign_opIddEELi0EE11assignCoeffEll, symObjAddr: 0x95C8, symBinAddr: 0x10001151C, symSize: 0x70 }
  - { offsetInCU: 0x91530, offset: 0xA4F20, size: 0x8, addend: 0x0, symName: __ZN5Eigen8internal9evaluatorINS_15PlainObjectBaseINS_6MatrixIdLin1ELin1ELi0ELin1ELin1EEEEEE8coeffRefEll, symObjAddr: 0x9638, symBinAddr: 0x10001158C, symSize: 0x5C }
  - { offsetInCU: 0x91572, offset: 0xA4F62, size: 0x8, addend: 0x0, symName: __ZNK5Eigen8internal16binary_evaluatorINS_13CwiseBinaryOpINS0_20scalar_difference_opIddEEKNS_6MatrixIdLin1ELin1ELi0ELin1ELin1EEEKNS_9ReplicateINS2_INS0_18scalar_quotient_opIddEEKNS_16PartialReduxExprIS7_NS0_10member_sumIddEELi0EEEKNS_14CwiseNullaryOpINS0_18scalar_constant_opIdEEKNS5_IdLi1ELin1ELi1ELi1ELin1EEEEEEELin1ELi1EEEEENS0_10IndexBasedESR_ddE5coeffEll, symObjAddr: 0x9694, symBinAddr: 0x1000115E8, symSize: 0x74 }
  - { offsetInCU: 0x915B6, offset: 0xA4FA6, size: 0x8, addend: 0x0, symName: __ZNK5Eigen8internal30plainobjectbase_evaluator_dataIdLin1EE11outerStrideEv, symObjAddr: 0x9708, symBinAddr: 0x10001165C, symSize: 0x18 }
  - { offsetInCU: 0x915DC, offset: 0xA4FCC, size: 0x8, addend: 0x0, symName: __ZNK5Eigen8internal16binary_evaluatorINS_13CwiseBinaryOpINS0_20scalar_difference_opIddEEKNS_6MatrixIdLin1ELin1ELi0ELin1ELin1EEEKNS_9ReplicateINS2_INS0_18scalar_quotient_opIddEEKNS_16PartialReduxExprIS7_NS0_10member_sumIddEELi0EEEKNS_14CwiseNullaryOpINS0_18scalar_constant_opIdEEKNS5_IdLi1ELin1ELi1ELi1ELin1EEEEEEELin1ELi1EEEEENS0_10IndexBasedESR_ddE4Data4funcEv, symObjAddr: 0x9720, symBinAddr: 0x100011674, symSize: 0x14 }
  - { offsetInCU: 0x91602, offset: 0xA4FF2, size: 0x8, addend: 0x0, symName: __ZNK5Eigen8internal9evaluatorINS_15PlainObjectBaseINS_6MatrixIdLin1ELin1ELi0ELin1ELin1EEEEEE5coeffEll, symObjAddr: 0x9734, symBinAddr: 0x100011688, symSize: 0x5C }
  - { offsetInCU: 0x91644, offset: 0xA5034, size: 0x8, addend: 0x0, symName: __ZNK5Eigen8internal15unary_evaluatorINS_9ReplicateINS_13CwiseBinaryOpINS0_18scalar_quotient_opIddEEKNS_16PartialReduxExprIKNS_6MatrixIdLin1ELin1ELi0ELin1ELin1EEENS0_10member_sumIddEELi0EEEKNS_14CwiseNullaryOpINS0_18scalar_constant_opIdEEKNS7_IdLi1ELin1ELi1ELi1ELin1EEEEEEELin1ELi1EEENS0_10IndexBasedEdE5coeffEll, symObjAddr: 0x9790, symBinAddr: 0x1000116E4, symSize: 0x6C }
  - { offsetInCU: 0x916A6, offset: 0xA5096, size: 0x8, addend: 0x0, symName: __ZNK5Eigen8internal9evaluatorINS_15PlainObjectBaseINS_6MatrixIdLi1ELin1ELi1ELi1ELin1EEEEEE5coeffEll, symObjAddr: 0x97FC, symBinAddr: 0x100011750, symSize: 0x54 }
  - { offsetInCU: 0x916E8, offset: 0xA50D8, size: 0x8, addend: 0x0, symName: __ZNK5Eigen8internal30plainobjectbase_evaluator_dataIdLi0EE11outerStrideEv, symObjAddr: 0x9850, symBinAddr: 0x1000117A4, symSize: 0x14 }
  - { offsetInCU: 0x9170E, offset: 0xA50FE, size: 0x8, addend: 0x0, symName: __ZN5Eigen8internal9evaluatorINS_13CwiseBinaryOpINS0_20scalar_difference_opIddEEKNS_6MatrixIdLin1ELin1ELi0ELin1ELin1EEEKNS_9ReplicateINS2_INS0_18scalar_quotient_opIddEEKNS_16PartialReduxExprIS7_NS0_10member_sumIddEELi0EEEKNS_14CwiseNullaryOpINS0_18scalar_constant_opIdEEKNS5_IdLi1ELin1ELi1ELi1ELin1EEEEEEELin1ELi1EEEEEED2Ev, symObjAddr: 0x9864, symBinAddr: 0x1000117B8, symSize: 0x2C }
  - { offsetInCU: 0x9173B, offset: 0xA512B, size: 0x8, addend: 0x0, symName: __ZN5Eigen8internal16binary_evaluatorINS_13CwiseBinaryOpINS0_20scalar_difference_opIddEEKNS_6MatrixIdLin1ELin1ELi0ELin1ELin1EEEKNS_9ReplicateINS2_INS0_18scalar_quotient_opIddEEKNS_16PartialReduxExprIS7_NS0_10member_sumIddEELi0EEEKNS_14CwiseNullaryOpINS0_18scalar_constant_opIdEEKNS5_IdLi1ELin1ELi1ELi1ELin1EEEEEEELin1ELi1EEEEENS0_10IndexBasedESR_ddED2Ev, symObjAddr: 0x9890, symBinAddr: 0x1000117E4, symSize: 0x34 }
  - { offsetInCU: 0x91767, offset: 0xA5157, size: 0x8, addend: 0x0, symName: __ZN5Eigen8internal16binary_evaluatorINS_13CwiseBinaryOpINS0_20scalar_difference_opIddEEKNS_6MatrixIdLin1ELin1ELi0ELin1ELin1EEEKNS_9ReplicateINS2_INS0_18scalar_quotient_opIddEEKNS_16PartialReduxExprIS7_NS0_10member_sumIddEELi0EEEKNS_14CwiseNullaryOpINS0_18scalar_constant_opIdEEKNS5_IdLi1ELin1ELi1ELi1ELin1EEEEEEELin1ELi1EEEEENS0_10IndexBasedESR_ddE4DataD1Ev, symObjAddr: 0x98C4, symBinAddr: 0x100011818, symSize: 0x2C }
  - { offsetInCU: 0x91794, offset: 0xA5184, size: 0x8, addend: 0x0, symName: __ZN5Eigen8internal16binary_evaluatorINS_13CwiseBinaryOpINS0_20scalar_difference_opIddEEKNS_6MatrixIdLin1ELin1ELi0ELin1ELin1EEEKNS_9ReplicateINS2_INS0_18scalar_quotient_opIddEEKNS_16PartialReduxExprIS7_NS0_10member_sumIddEELi0EEEKNS_14CwiseNullaryOpINS0_18scalar_constant_opIdEEKNS5_IdLi1ELin1ELi1ELi1ELin1EEEEEEELin1ELi1EEEEENS0_10IndexBasedESR_ddE4DataD2Ev, symObjAddr: 0x98F0, symBinAddr: 0x100011844, symSize: 0x3C }
  - { offsetInCU: 0x917C1, offset: 0xA51B1, size: 0x8, addend: 0x0, symName: __ZN5Eigen8internal9evaluatorIKNS_9ReplicateINS_13CwiseBinaryOpINS0_18scalar_quotient_opIddEEKNS_16PartialReduxExprIKNS_6MatrixIdLin1ELin1ELi0ELin1ELin1EEENS0_10member_sumIddEELi0EEEKNS_14CwiseNullaryOpINS0_18scalar_constant_opIdEEKNS7_IdLi1ELin1ELi1ELi1ELin1EEEEEEELin1ELi1EEEED1Ev, symObjAddr: 0x992C, symBinAddr: 0x100011880, symSize: 0x2C }
  - { offsetInCU: 0x917ED, offset: 0xA51DD, size: 0x8, addend: 0x0, symName: __ZN5Eigen8internal9evaluatorIKNS_9ReplicateINS_13CwiseBinaryOpINS0_18scalar_quotient_opIddEEKNS_16PartialReduxExprIKNS_6MatrixIdLin1ELin1ELi0ELin1ELin1EEENS0_10member_sumIddEELi0EEEKNS_14CwiseNullaryOpINS0_18scalar_constant_opIdEEKNS7_IdLi1ELin1ELi1ELi1ELin1EEEEEEELin1ELi1EEEED2Ev, symObjAddr: 0x9958, symBinAddr: 0x1000118AC, symSize: 0x2C }
  - { offsetInCU: 0x91819, offset: 0xA5209, size: 0x8, addend: 0x0, symName: __ZN5Eigen8internal9evaluatorINS_9ReplicateINS_13CwiseBinaryOpINS0_18scalar_quotient_opIddEEKNS_16PartialReduxExprIKNS_6MatrixIdLin1ELin1ELi0ELin1ELin1EEENS0_10member_sumIddEELi0EEEKNS_14CwiseNullaryOpINS0_18scalar_constant_opIdEEKNS7_IdLi1ELin1ELi1ELi1ELin1EEEEEEELin1ELi1EEEED2Ev, symObjAddr: 0x9984, symBinAddr: 0x1000118D8, symSize: 0x2C }
  - { offsetInCU: 0x91845, offset: 0xA5235, size: 0x8, addend: 0x0, symName: __ZN5Eigen8internal15unary_evaluatorINS_9ReplicateINS_13CwiseBinaryOpINS0_18scalar_quotient_opIddEEKNS_16PartialReduxExprIKNS_6MatrixIdLin1ELin1ELi0ELin1ELin1EEENS0_10member_sumIddEELi0EEEKNS_14CwiseNullaryOpINS0_18scalar_constant_opIdEEKNS7_IdLi1ELin1ELi1ELi1ELin1EEEEEEELin1ELi1EEENS0_10IndexBasedEdED2Ev, symObjAddr: 0x99B0, symBinAddr: 0x100011904, symSize: 0x40 }
  - { offsetInCU: 0x91871, offset: 0xA5261, size: 0x8, addend: 0x0, symName: __ZNK5Eigen9DenseBaseINS_6MatrixIdLin1ELin1ELi0ELin1ELin1EEEE9transposeEv, symObjAddr: 0x99F0, symBinAddr: 0x100011944, symSize: 0x34 }
  - { offsetInCU: 0x91899, offset: 0xA5289, size: 0x8, addend: 0x0, symName: __ZN5Eigen9TransposeIKNS_6MatrixIdLin1ELin1ELi0ELin1ELin1EEEEC1ERS3_, symObjAddr: 0x9A24, symBinAddr: 0x100011978, symSize: 0x34 }
  - { offsetInCU: 0x918D1, offset: 0xA52C1, size: 0x8, addend: 0x0, symName: __ZN5Eigen9TransposeIKNS_6MatrixIdLin1ELin1ELi0ELin1ELin1EEEEC2ERS3_, symObjAddr: 0x9A58, symBinAddr: 0x1000119AC, symSize: 0x38 }
  - { offsetInCU: 0x91909, offset: 0xA52F9, size: 0x8, addend: 0x0, symName: __ZN5Eigen13TransposeImplIKNS_6MatrixIdLin1ELin1ELi0ELin1ELin1EEENS_5DenseEEC2Ev, symObjAddr: 0x9A90, symBinAddr: 0x1000119E4, symSize: 0x2C }
  - { offsetInCU: 0x91933, offset: 0xA5323, size: 0x8, addend: 0x0, symName: __ZN5Eigen10MatrixBaseINS_9TransposeIKNS_6MatrixIdLin1ELin1ELi0ELin1ELin1EEEEEEC2Ev, symObjAddr: 0x9ABC, symBinAddr: 0x100011A10, symSize: 0x2C }
  - { offsetInCU: 0x9195D, offset: 0xA534D, size: 0x8, addend: 0x0, symName: __ZN5Eigen9DenseBaseINS_9TransposeIKNS_6MatrixIdLin1ELin1ELi0ELin1ELin1EEEEEEC2Ev, symObjAddr: 0x9AE8, symBinAddr: 0x100011A3C, symSize: 0x14 }
  - { offsetInCU: 0x91987, offset: 0xA5377, size: 0x8, addend: 0x0, symName: __ZNK5Eigen9EigenBaseINS_9TransposeIKNS_6MatrixIdLin1ELin1ELi0ELin1ELin1EEEEEE7derivedEv, symObjAddr: 0x9AFC, symBinAddr: 0x100011A50, symSize: 0x14 }
  - { offsetInCU: 0x919AD, offset: 0xA539D, size: 0x8, addend: 0x0, symName: __ZN5Eigen7ProductINS_9TransposeIKNS_6MatrixIdLin1ELin1ELi0ELin1ELin1EEEEES3_Li0EEC1ERKS5_RS4_, symObjAddr: 0x9B10, symBinAddr: 0x100011A64, symSize: 0x3C }
  - { offsetInCU: 0x919F3, offset: 0xA53E3, size: 0x8, addend: 0x0, symName: __ZN5Eigen7ProductINS_9TransposeIKNS_6MatrixIdLin1ELin1ELi0ELin1ELin1EEEEES3_Li0EEC2ERKS5_RS4_, symObjAddr: 0x9B4C, symBinAddr: 0x100011AA0, symSize: 0xC4 }
  - { offsetInCU: 0x91A3E, offset: 0xA542E, size: 0x8, addend: 0x0, symName: __ZN5Eigen11ProductImplINS_9TransposeIKNS_6MatrixIdLin1ELin1ELi0ELin1ELin1EEEEES3_Li0ENS_5DenseEEC2Ev, symObjAddr: 0x9C10, symBinAddr: 0x100011B64, symSize: 0x2C }
  - { offsetInCU: 0x91A6A, offset: 0xA545A, size: 0x8, addend: 0x0, symName: __ZNK5Eigen9TransposeIKNS_6MatrixIdLin1ELin1ELi0ELin1ELin1EEEE4colsEv, symObjAddr: 0x9C3C, symBinAddr: 0x100011B90, symSize: 0x28 }
  - { offsetInCU: 0x91A95, offset: 0xA5485, size: 0x8, addend: 0x0, symName: __ZN5Eigen8internal18dense_product_baseINS_9TransposeIKNS_6MatrixIdLin1ELin1ELi0ELin1ELin1EEEEES4_Li0ELi8EEC2Ev, symObjAddr: 0x9C64, symBinAddr: 0x100011BB8, symSize: 0x2C }
  - { offsetInCU: 0x91AC1, offset: 0xA54B1, size: 0x8, addend: 0x0, symName: __ZN5Eigen10MatrixBaseINS_7ProductINS_9TransposeIKNS_6MatrixIdLin1ELin1ELi0ELin1ELin1EEEEES4_Li0EEEEC2Ev, symObjAddr: 0x9C90, symBinAddr: 0x100011BE4, symSize: 0x2C }
  - { offsetInCU: 0x91AEB, offset: 0xA54DB, size: 0x8, addend: 0x0, symName: __ZN5Eigen9DenseBaseINS_7ProductINS_9TransposeIKNS_6MatrixIdLin1ELin1ELi0ELin1ELin1EEEEES4_Li0EEEEC2Ev, symObjAddr: 0x9CBC, symBinAddr: 0x100011C10, symSize: 0x14 }
  - { offsetInCU: 0x91B15, offset: 0xA5505, size: 0x8, addend: 0x0, symName: __ZNK5Eigen9EigenBaseINS_7ProductINS_9TransposeIKNS_6MatrixIdLin1ELin1ELi0ELin1ELin1EEEEES4_Li0EEEE7derivedEv, symObjAddr: 0x9CD0, symBinAddr: 0x100011C24, symSize: 0x14 }
  - { offsetInCU: 0x91B3B, offset: 0xA552B, size: 0x8, addend: 0x0, symName: __ZNK5Eigen7ProductINS_9TransposeIKNS_6MatrixIdLin1ELin1ELi0ELin1ELin1EEEEES3_Li0EE4rowsEv, symObjAddr: 0x9CE4, symBinAddr: 0x100011C38, symSize: 0x24 }
  - { offsetInCU: 0x91B61, offset: 0xA5551, size: 0x8, addend: 0x0, symName: __ZNK5Eigen7ProductINS_9TransposeIKNS_6MatrixIdLin1ELin1ELi0ELin1ELin1EEEEES3_Li0EE4colsEv, symObjAddr: 0x9D08, symBinAddr: 0x100011C5C, symSize: 0x28 }
  - { offsetInCU: 0x91B87, offset: 0xA5577, size: 0x8, addend: 0x0, symName: __ZN5Eigen14CwiseNullaryOpINS_8internal18scalar_constant_opIdEEKNS_6MatrixIdLin1ELin1ELi0ELin1ELin1EEEEC1EllRKS3_, symObjAddr: 0x9D30, symBinAddr: 0x100011C84, symSize: 0x44 }
  - { offsetInCU: 0x91BDB, offset: 0xA55CB, size: 0x8, addend: 0x0, symName: __ZN5Eigen13CwiseBinaryOpINS_8internal18scalar_quotient_opIddEEKNS_7ProductINS_9TransposeIKNS_6MatrixIdLin1ELin1ELi0ELin1ELin1EEEEES7_Li0EEEKNS_14CwiseNullaryOpINS1_18scalar_constant_opIdEES8_EEEC1ERSB_RSG_RKS3_, symObjAddr: 0x9D74, symBinAddr: 0x100011CC8, symSize: 0x44 }
  - { offsetInCU: 0x91C2F, offset: 0xA561F, size: 0x8, addend: 0x0, symName: __ZNK5Eigen9TransposeIKNS_6MatrixIdLin1ELin1ELi0ELin1ELin1EEEE4rowsEv, symObjAddr: 0x9DB8, symBinAddr: 0x100011D0C, symSize: 0x28 }
  - { offsetInCU: 0x91C55, offset: 0xA5645, size: 0x8, addend: 0x0, symName: __ZN5Eigen14CwiseNullaryOpINS_8internal18scalar_constant_opIdEEKNS_6MatrixIdLin1ELin1ELi0ELin1ELin1EEEEC2EllRKS3_, symObjAddr: 0x9DE0, symBinAddr: 0x100011D34, symSize: 0xDC }
  - { offsetInCU: 0x91CA9, offset: 0xA5699, size: 0x8, addend: 0x0, symName: __ZN5Eigen10MatrixBaseINS_14CwiseNullaryOpINS_8internal18scalar_constant_opIdEEKNS_6MatrixIdLin1ELin1ELi0ELin1ELin1EEEEEEC2Ev, symObjAddr: 0x9EBC, symBinAddr: 0x100011E10, symSize: 0x2C }
  - { offsetInCU: 0x91CD3, offset: 0xA56C3, size: 0x8, addend: 0x0, symName: __ZN5Eigen9DenseBaseINS_14CwiseNullaryOpINS_8internal18scalar_constant_opIdEEKNS_6MatrixIdLin1ELin1ELi0ELin1ELin1EEEEEEC2Ev, symObjAddr: 0x9EE8, symBinAddr: 0x100011E3C, symSize: 0x14 }
  - { offsetInCU: 0x91CFD, offset: 0xA56ED, size: 0x8, addend: 0x0, symName: __ZN5Eigen13CwiseBinaryOpINS_8internal18scalar_quotient_opIddEEKNS_7ProductINS_9TransposeIKNS_6MatrixIdLin1ELin1ELi0ELin1ELin1EEEEES7_Li0EEEKNS_14CwiseNullaryOpINS1_18scalar_constant_opIdEES8_EEEC2ERSB_RSG_RKS3_, symObjAddr: 0x9EFC, symBinAddr: 0x100011E50, symSize: 0xFC }
  - { offsetInCU: 0x91D56, offset: 0xA5746, size: 0x8, addend: 0x0, symName: __ZN5Eigen17CwiseBinaryOpImplINS_8internal18scalar_quotient_opIddEEKNS_7ProductINS_9TransposeIKNS_6MatrixIdLin1ELin1ELi0ELin1ELin1EEEEES7_Li0EEEKNS_14CwiseNullaryOpINS1_18scalar_constant_opIdEES8_EENS_5DenseEEC2Ev, symObjAddr: 0x9FF8, symBinAddr: 0x100011F4C, symSize: 0x2C }
  - { offsetInCU: 0x91D82, offset: 0xA5772, size: 0x8, addend: 0x0, symName: __ZN5Eigen14CwiseNullaryOpINS_8internal18scalar_constant_opIdEEKNS_6MatrixIdLin1ELin1ELi0ELin1ELin1EEEEC1ERKS7_, symObjAddr: 0xA024, symBinAddr: 0x100011F78, symSize: 0x34 }
  - { offsetInCU: 0x91DB7, offset: 0xA57A7, size: 0x8, addend: 0x0, symName: __ZNK5Eigen14CwiseNullaryOpINS_8internal18scalar_constant_opIdEEKNS_6MatrixIdLin1ELin1ELi0ELin1ELin1EEEE4rowsEv, symObjAddr: 0xA058, symBinAddr: 0x100011FAC, symSize: 0x24 }
  - { offsetInCU: 0x91DDD, offset: 0xA57CD, size: 0x8, addend: 0x0, symName: __ZNK5Eigen14CwiseNullaryOpINS_8internal18scalar_constant_opIdEEKNS_6MatrixIdLin1ELin1ELi0ELin1ELin1EEEE4colsEv, symObjAddr: 0xA07C, symBinAddr: 0x100011FD0, symSize: 0x28 }
  - { offsetInCU: 0x91E03, offset: 0xA57F3, size: 0x8, addend: 0x0, symName: __ZN5Eigen10MatrixBaseINS_13CwiseBinaryOpINS_8internal18scalar_quotient_opIddEEKNS_7ProductINS_9TransposeIKNS_6MatrixIdLin1ELin1ELi0ELin1ELin1EEEEES8_Li0EEEKNS_14CwiseNullaryOpINS2_18scalar_constant_opIdEES9_EEEEEC2Ev, symObjAddr: 0xA0A4, symBinAddr: 0x100011FF8, symSize: 0x2C }
  - { offsetInCU: 0x91E2D, offset: 0xA581D, size: 0x8, addend: 0x0, symName: __ZN5Eigen9DenseBaseINS_13CwiseBinaryOpINS_8internal18scalar_quotient_opIddEEKNS_7ProductINS_9TransposeIKNS_6MatrixIdLin1ELin1ELi0ELin1ELin1EEEEES8_Li0EEEKNS_14CwiseNullaryOpINS2_18scalar_constant_opIdEES9_EEEEEC2Ev, symObjAddr: 0xA0D0, symBinAddr: 0x100012024, symSize: 0x14 }
  - { offsetInCU: 0x91E57, offset: 0xA5847, size: 0x8, addend: 0x0, symName: __ZN5Eigen14CwiseNullaryOpINS_8internal18scalar_constant_opIdEEKNS_6MatrixIdLin1ELin1ELi0ELin1ELin1EEEEC2ERKS7_, symObjAddr: 0xA0E4, symBinAddr: 0x100012038, symSize: 0x48 }
  - { offsetInCU: 0x91E8C, offset: 0xA587C, size: 0x8, addend: 0x0, symName: __ZN5Eigen6MatrixIdLin1ELin1ELi0ELin1ELin1EEC2INS_13CwiseBinaryOpINS_8internal18scalar_quotient_opIddEEKNS_7ProductINS_9TransposeIKS1_EES1_Li0EEEKNS_14CwiseNullaryOpINS4_18scalar_constant_opIdEES9_EEEEEERKNS_9EigenBaseIT_EE, symObjAddr: 0xA12C, symBinAddr: 0x100012080, symSize: 0x40 }
  - { offsetInCU: 0x91ECE, offset: 0xA58BE, size: 0x8, addend: 0x0, symName: __ZNK5Eigen9EigenBaseINS_13CwiseBinaryOpINS_8internal18scalar_quotient_opIddEEKNS_7ProductINS_9TransposeIKNS_6MatrixIdLin1ELin1ELi0ELin1ELin1EEEEES8_Li0EEEKNS_14CwiseNullaryOpINS2_18scalar_constant_opIdEES9_EEEEE7derivedEv, symObjAddr: 0xA16C, symBinAddr: 0x1000120C0, symSize: 0x14 }
  - { offsetInCU: 0x91EF4, offset: 0xA58E4, size: 0x8, addend: 0x0, symName: __ZN5Eigen15PlainObjectBaseINS_6MatrixIdLin1ELin1ELi0ELin1ELin1EEEEC2INS_13CwiseBinaryOpINS_8internal18scalar_quotient_opIddEEKNS_7ProductINS_9TransposeIKS2_EES2_Li0EEEKNS_14CwiseNullaryOpINS6_18scalar_constant_opIdEESB_EEEEEERKNS_9DenseBaseIT_EE, symObjAddr: 0xA180, symBinAddr: 0x1000120D4, symSize: 0x80 }
  - { offsetInCU: 0x91F36, offset: 0xA5926, size: 0x8, addend: 0x0, symName: __ZN5Eigen15PlainObjectBaseINS_6MatrixIdLin1ELin1ELi0ELin1ELin1EEEE10resizeLikeINS_13CwiseBinaryOpINS_8internal18scalar_quotient_opIddEEKNS_7ProductINS_9TransposeIKS2_EES2_Li0EEEKNS_14CwiseNullaryOpINS6_18scalar_constant_opIdEESB_EEEEEEvRKNS_9EigenBaseIT_EE, symObjAddr: 0xA200, symBinAddr: 0x100012154, symSize: 0x11C }
  - { offsetInCU: 0x91FCD, offset: 0xA59BD, size: 0x8, addend: 0x0, symName: __ZN5Eigen15PlainObjectBaseINS_6MatrixIdLin1ELin1ELi0ELin1ELin1EEEE12_set_noaliasINS_13CwiseBinaryOpINS_8internal18scalar_quotient_opIddEEKNS_7ProductINS_9TransposeIKS2_EES2_Li0EEEKNS_14CwiseNullaryOpINS6_18scalar_constant_opIdEESB_EEEEEERS2_RKNS_9DenseBaseIT_EE, symObjAddr: 0xA31C, symBinAddr: 0x100012270, symSize: 0x60 }
  - { offsetInCU: 0x9200B, offset: 0xA59FB, size: 0x8, addend: 0x0, symName: __ZNK5Eigen13CwiseBinaryOpINS_8internal18scalar_quotient_opIddEEKNS_7ProductINS_9TransposeIKNS_6MatrixIdLin1ELin1ELi0ELin1ELin1EEEEES7_Li0EEEKNS_14CwiseNullaryOpINS1_18scalar_constant_opIdEES8_EEE4rowsEv, symObjAddr: 0xA37C, symBinAddr: 0x1000122D0, symSize: 0x28 }
  - { offsetInCU: 0x92031, offset: 0xA5A21, size: 0x8, addend: 0x0, symName: __ZNK5Eigen13CwiseBinaryOpINS_8internal18scalar_quotient_opIddEEKNS_7ProductINS_9TransposeIKNS_6MatrixIdLin1ELin1ELi0ELin1ELin1EEEEES7_Li0EEEKNS_14CwiseNullaryOpINS1_18scalar_constant_opIdEES8_EEE4colsEv, symObjAddr: 0xA3A4, symBinAddr: 0x1000122F8, symSize: 0x28 }
  - { offsetInCU: 0x92056, offset: 0xA5A46, size: 0x8, addend: 0x0, symName: __ZN5Eigen8internal10AssignmentINS_6MatrixIdLin1ELin1ELi0ELin1ELin1EEENS_13CwiseBinaryOpINS0_18scalar_quotient_opIddEEKNS_7ProductINS_9TransposeIKS3_EES3_Li0EEEKNS_14CwiseNullaryOpINS0_18scalar_constant_opIdEES9_EEEENS0_9assign_opIddEENS0_11Dense2DenseEvE3runERS3_RKSI_RKSK_, symObjAddr: 0xA408, symBinAddr: 0x10001235C, symSize: 0x40 }
  - { offsetInCU: 0x92099, offset: 0xA5A89, size: 0x8, addend: 0x0, symName: __ZN5Eigen8internal27checkTransposeAliasing_implINS_6MatrixIdLin1ELin1ELi0ELin1ELin1EEENS_13CwiseBinaryOpINS0_18scalar_quotient_opIddEEKNS_7ProductINS_9TransposeIKS3_EES3_Li0EEEKNS_14CwiseNullaryOpINS0_18scalar_constant_opIdEES9_EEEELb0EE3runERS9_RKSI_, symObjAddr: 0xA580, symBinAddr: 0x1000124D4, symSize: 0x14 }
  - { offsetInCU: 0x920C6, offset: 0xA5AB6, size: 0x8, addend: 0x0, symName: __ZN5Eigen8internal9evaluatorINS_13CwiseBinaryOpINS0_18scalar_quotient_opIddEEKNS_7ProductINS_9TransposeIKNS_6MatrixIdLin1ELin1ELi0ELin1ELin1EEEEES8_Li0EEEKNS_14CwiseNullaryOpINS0_18scalar_constant_opIdEES9_EEEEEC1ERKSI_, symObjAddr: 0xA594, symBinAddr: 0x1000124E8, symSize: 0x34 }
  - { offsetInCU: 0x920FF, offset: 0xA5AEF, size: 0x8, addend: 0x0, symName: __ZN5Eigen8internal31generic_dense_assignment_kernelINS0_9evaluatorINS_6MatrixIdLin1ELin1ELi0ELin1ELin1EEEEENS2_INS_13CwiseBinaryOpINS0_18scalar_quotient_opIddEEKNS_7ProductINS_9TransposeIKS4_EES4_Li0EEEKNS_14CwiseNullaryOpINS0_18scalar_constant_opIdEESB_EEEEEENS0_9assign_opIddEELi0EEC1ERS5_RKSL_RKSN_RS4_, symObjAddr: 0xA6C0, symBinAddr: 0x100012614, symSize: 0x4C }
  - { offsetInCU: 0x92165, offset: 0xA5B55, size: 0x8, addend: 0x0, symName: __ZN5Eigen8internal9evaluatorINS_13CwiseBinaryOpINS0_18scalar_quotient_opIddEEKNS_7ProductINS_9TransposeIKNS_6MatrixIdLin1ELin1ELi0ELin1ELin1EEEEES8_Li0EEEKNS_14CwiseNullaryOpINS0_18scalar_constant_opIdEES9_EEEEED1Ev, symObjAddr: 0xA7B4, symBinAddr: 0x100012708, symSize: 0x2C }
  - { offsetInCU: 0x92192, offset: 0xA5B82, size: 0x8, addend: 0x0, symName: __ZN5Eigen8internal9evaluatorINS_13CwiseBinaryOpINS0_18scalar_quotient_opIddEEKNS_7ProductINS_9TransposeIKNS_6MatrixIdLin1ELin1ELi0ELin1ELin1EEEEES8_Li0EEEKNS_14CwiseNullaryOpINS0_18scalar_constant_opIdEES9_EEEEEC2ERKSI_, symObjAddr: 0xA7E0, symBinAddr: 0x100012734, symSize: 0x34 }
  - { offsetInCU: 0x921CB, offset: 0xA5BBB, size: 0x8, addend: 0x0, symName: __ZN5Eigen8internal16binary_evaluatorINS_13CwiseBinaryOpINS0_18scalar_quotient_opIddEEKNS_7ProductINS_9TransposeIKNS_6MatrixIdLin1ELin1ELi0ELin1ELin1EEEEES8_Li0EEEKNS_14CwiseNullaryOpINS0_18scalar_constant_opIdEES9_EEEENS0_10IndexBasedESJ_ddEC2ERKSI_, symObjAddr: 0xA814, symBinAddr: 0x100012768, symSize: 0x64 }
  - { offsetInCU: 0x92204, offset: 0xA5BF4, size: 0x8, addend: 0x0, symName: __ZN5Eigen8internal14evaluator_baseINS_13CwiseBinaryOpINS0_18scalar_quotient_opIddEEKNS_7ProductINS_9TransposeIKNS_6MatrixIdLin1ELin1ELi0ELin1ELin1EEEEES8_Li0EEEKNS_14CwiseNullaryOpINS0_18scalar_constant_opIdEES9_EEEEEC2Ev, symObjAddr: 0xA878, symBinAddr: 0x1000127CC, symSize: 0x14 }
  - { offsetInCU: 0x9222E, offset: 0xA5C1E, size: 0x8, addend: 0x0, symName: __ZN5Eigen8internal16binary_evaluatorINS_13CwiseBinaryOpINS0_18scalar_quotient_opIddEEKNS_7ProductINS_9TransposeIKNS_6MatrixIdLin1ELin1ELi0ELin1ELin1EEEEES8_Li0EEEKNS_14CwiseNullaryOpINS0_18scalar_constant_opIdEES9_EEEENS0_10IndexBasedESJ_ddE4DataC1ERKSI_, symObjAddr: 0xA88C, symBinAddr: 0x1000127E0, symSize: 0x34 }
  - { offsetInCU: 0x92267, offset: 0xA5C57, size: 0x8, addend: 0x0, symName: __ZN5Eigen8internal14evaluator_baseINS_13CwiseBinaryOpINS0_18scalar_quotient_opIddEEKNS_7ProductINS_9TransposeIKNS_6MatrixIdLin1ELin1ELi0ELin1ELin1EEEEES8_Li0EEEKNS_14CwiseNullaryOpINS0_18scalar_constant_opIdEES9_EEEEED2Ev, symObjAddr: 0xA8C0, symBinAddr: 0x100012814, symSize: 0x14 }
  - { offsetInCU: 0x92291, offset: 0xA5C81, size: 0x8, addend: 0x0, symName: __ZN5Eigen8internal16binary_evaluatorINS_13CwiseBinaryOpINS0_18scalar_quotient_opIddEEKNS_7ProductINS_9TransposeIKNS_6MatrixIdLin1ELin1ELi0ELin1ELin1EEEEES8_Li0EEEKNS_14CwiseNullaryOpINS0_18scalar_constant_opIdEES9_EEEENS0_10IndexBasedESJ_ddE4DataC2ERKSI_, symObjAddr: 0xA8D4, symBinAddr: 0x100012828, symSize: 0xA8 }
  - { offsetInCU: 0x922CA, offset: 0xA5CBA, size: 0x8, addend: 0x0, symName: __ZNK5Eigen13CwiseBinaryOpINS_8internal18scalar_quotient_opIddEEKNS_7ProductINS_9TransposeIKNS_6MatrixIdLin1ELin1ELi0ELin1ELin1EEEEES7_Li0EEEKNS_14CwiseNullaryOpINS1_18scalar_constant_opIdEES8_EEE7functorEv, symObjAddr: 0xA97C, symBinAddr: 0x1000128D0, symSize: 0x18 }
  - { offsetInCU: 0x922F0, offset: 0xA5CE0, size: 0x8, addend: 0x0, symName: __ZNK5Eigen13CwiseBinaryOpINS_8internal18scalar_quotient_opIddEEKNS_7ProductINS_9TransposeIKNS_6MatrixIdLin1ELin1ELi0ELin1ELin1EEEEES7_Li0EEEKNS_14CwiseNullaryOpINS1_18scalar_constant_opIdEES8_EEE3lhsEv, symObjAddr: 0xA994, symBinAddr: 0x1000128E8, symSize: 0x14 }
  - { offsetInCU: 0x92316, offset: 0xA5D06, size: 0x8, addend: 0x0, symName: __ZN5Eigen8internal9evaluatorIKNS_7ProductINS_9TransposeIKNS_6MatrixIdLin1ELin1ELi0ELin1ELin1EEEEES5_Li0EEEEC1ERS9_, symObjAddr: 0xA9A8, symBinAddr: 0x1000128FC, symSize: 0x34 }
  - { offsetInCU: 0x9234E, offset: 0xA5D3E, size: 0x8, addend: 0x0, symName: __ZNK5Eigen13CwiseBinaryOpINS_8internal18scalar_quotient_opIddEEKNS_7ProductINS_9TransposeIKNS_6MatrixIdLin1ELin1ELi0ELin1ELin1EEEEES7_Li0EEEKNS_14CwiseNullaryOpINS1_18scalar_constant_opIdEES8_EEE3rhsEv, symObjAddr: 0xA9DC, symBinAddr: 0x100012930, symSize: 0x18 }
  - { offsetInCU: 0x92374, offset: 0xA5D64, size: 0x8, addend: 0x0, symName: __ZN5Eigen8internal9evaluatorIKNS_14CwiseNullaryOpINS0_18scalar_constant_opIdEEKNS_6MatrixIdLin1ELin1ELi0ELin1ELin1EEEEEEC1ERS9_, symObjAddr: 0xA9F4, symBinAddr: 0x100012948, symSize: 0x34 }
  - { offsetInCU: 0x923AC, offset: 0xA5D9C, size: 0x8, addend: 0x0, symName: __ZN5Eigen8internal9evaluatorIKNS_7ProductINS_9TransposeIKNS_6MatrixIdLin1ELin1ELi0ELin1ELin1EEEEES5_Li0EEEED1Ev, symObjAddr: 0xAA28, symBinAddr: 0x10001297C, symSize: 0x2C }
  - { offsetInCU: 0x923D8, offset: 0xA5DC8, size: 0x8, addend: 0x0, symName: __ZN5Eigen8internal9evaluatorIKNS_7ProductINS_9TransposeIKNS_6MatrixIdLin1ELin1ELi0ELin1ELin1EEEEES5_Li0EEEEC2ERS9_, symObjAddr: 0xAA54, symBinAddr: 0x1000129A8, symSize: 0x34 }
  - { offsetInCU: 0x92410, offset: 0xA5E00, size: 0x8, addend: 0x0, symName: __ZN5Eigen8internal9evaluatorINS_7ProductINS_9TransposeIKNS_6MatrixIdLin1ELin1ELi0ELin1ELin1EEEEES5_Li0EEEEC2ERKS8_, symObjAddr: 0xAA88, symBinAddr: 0x1000129DC, symSize: 0x34 }
  - { offsetInCU: 0x92448, offset: 0xA5E38, size: 0x8, addend: 0x0, symName: __ZN5Eigen8internal17product_evaluatorINS_7ProductINS_9TransposeIKNS_6MatrixIdLin1ELin1ELi0ELin1ELin1EEEEES5_Li0EEELi8ENS_10DenseShapeES9_ddEC2ERKS8_, symObjAddr: 0xAABC, symBinAddr: 0x100012A10, symSize: 0x108 }
  - { offsetInCU: 0x92480, offset: 0xA5E70, size: 0x8, addend: 0x0, symName: __ZN5Eigen8internal9evaluatorINS_6MatrixIdLin1ELin1ELi0ELin1ELin1EEEEC2Ev, symObjAddr: 0xABC4, symBinAddr: 0x100012B18, symSize: 0x2C }
  - { offsetInCU: 0x924A9, offset: 0xA5E99, size: 0x8, addend: 0x0, symName: __ZN5Eigen8internal20generic_product_implINS_9TransposeIKNS_6MatrixIdLin1ELin1ELi0ELin1ELin1EEEEES4_NS_10DenseShapeES7_Li8EE6evalToIS4_EEvRT_RKS6_RS5_, symObjAddr: 0xABF0, symBinAddr: 0x100012B44, symSize: 0xE4 }
  - { offsetInCU: 0x924F5, offset: 0xA5EE5, size: 0x8, addend: 0x0, symName: __ZNK5Eigen7ProductINS_9TransposeIKNS_6MatrixIdLin1ELin1ELi0ELin1ELin1EEEEES3_Li0EE3lhsEv, symObjAddr: 0xACD4, symBinAddr: 0x100012C28, symSize: 0x14 }
  - { offsetInCU: 0x9251B, offset: 0xA5F0B, size: 0x8, addend: 0x0, symName: __ZNK5Eigen7ProductINS_9TransposeIKNS_6MatrixIdLin1ELin1ELi0ELin1ELin1EEEEES3_Li0EE3rhsEv, symObjAddr: 0xACE8, symBinAddr: 0x100012C3C, symSize: 0x18 }
  - { offsetInCU: 0x92541, offset: 0xA5F31, size: 0x8, addend: 0x0, symName: __ZN5Eigen8internal9evaluatorINS_15PlainObjectBaseINS_6MatrixIdLin1ELin1ELi0ELin1ELin1EEEEEEC2Ev, symObjAddr: 0xAD00, symBinAddr: 0x100012C54, symSize: 0x64 }
  - { offsetInCU: 0x9258C, offset: 0xA5F7C, size: 0x8, addend: 0x0, symName: __ZN5Eigen8internal20generic_product_implINS_9TransposeIKNS_6MatrixIdLin1ELin1ELi0ELin1ELin1EEEEES4_NS_10DenseShapeES7_Li3EE12eval_dynamicIS4_NS0_9assign_opIddEEEEvRT_RKS6_RS5_RKT0_, symObjAddr: 0xAD64, symBinAddr: 0x100012CB8, symSize: 0xBC }
  - { offsetInCU: 0x92652, offset: 0xA6042, size: 0x8, addend: 0x0, symName: __ZN5Eigen9DenseBaseINS_6MatrixIdLin1ELin1ELi0ELin1ELin1EEEE7setZeroEv, symObjAddr: 0xAE20, symBinAddr: 0x100012D74, symSize: 0x30 }
  - { offsetInCU: 0x926B3, offset: 0xA60A3, size: 0x8, addend: 0x0, symName: __ZN5Eigen8internal20generic_product_implINS_9TransposeIKNS_6MatrixIdLin1ELin1ELi0ELin1ELin1EEEEES4_NS_10DenseShapeES7_Li8EE13scaleAndAddToIS4_EEvRT_RKS6_RS5_RKd, symObjAddr: 0xAE50, symBinAddr: 0x100012DA4, symSize: 0x3A0 }
  - { offsetInCU: 0x927FD, offset: 0xA61ED, size: 0x8, addend: 0x0, symName: __ZN5Eigen8internal20generic_product_implINS_9TransposeIKNS_6MatrixIdLin1ELin1ELi0ELin1ELin1EEEEES4_NS_10DenseShapeES7_Li3EE17eval_dynamic_implIS4_S6_S4_NS0_9assign_opIddEEdEEvRT_RKT0_RKT1_RKT2_RKT3_NS0_10false_typeE, symObjAddr: 0xB1F0, symBinAddr: 0x100013144, symSize: 0x68 }
  - { offsetInCU: 0x92896, offset: 0xA6286, size: 0x8, addend: 0x0, symName: __ZN5Eigen8internal11blas_traitsINS_9TransposeIKNS_6MatrixIdLin1ELin1ELi0ELin1ELin1EEEEEE7extractERKS6_, symObjAddr: 0xB258, symBinAddr: 0x1000131AC, symSize: 0x38 }
  - { offsetInCU: 0x928BB, offset: 0xA62AB, size: 0x8, addend: 0x0, symName: __ZNK5Eigen9DenseBaseINS_9TransposeIKNS_6MatrixIdLin1ELin1ELi0ELin1ELin1EEEEEE11conjugateIfILb0EEENS_8internal11conditionalIXT_ERKS5_SB_E4typeEv, symObjAddr: 0xB290, symBinAddr: 0x1000131E4, symSize: 0x24 }
  - { offsetInCU: 0x928EB, offset: 0xA62DB, size: 0x8, addend: 0x0, symName: __ZN5Eigen8internal11blas_traitsINS_6MatrixIdLin1ELin1ELi0ELin1ELin1EEEE7extractERKS3_, symObjAddr: 0xB2B4, symBinAddr: 0x100013208, symSize: 0x14 }
  - { offsetInCU: 0x9290F, offset: 0xA62FF, size: 0x8, addend: 0x0, symName: __ZNK5Eigen9DenseBaseINS_6MatrixIdLin1ELin1ELi0ELin1ELin1EEEE11conjugateIfILb0EEENS_8internal11conditionalIXT_ERKS2_S8_E4typeEv, symObjAddr: 0xB2C8, symBinAddr: 0x10001321C, symSize: 0x24 }
  - { offsetInCU: 0x9293E, offset: 0xA632E, size: 0x8, addend: 0x0, symName: __ZN5Eigen8internal11blas_traitsINS_9TransposeIKNS_6MatrixIdLin1ELin1ELi0ELin1ELin1EEEEEE19extractScalarFactorERKS6_, symObjAddr: 0xB2EC, symBinAddr: 0x100013240, symSize: 0x28 }
  - { offsetInCU: 0x92963, offset: 0xA6353, size: 0x8, addend: 0x0, symName: __ZN5Eigen8internal11blas_traitsINS_6MatrixIdLin1ELin1ELi0ELin1ELin1EEEE19extractScalarFactorERKS3_, symObjAddr: 0xB314, symBinAddr: 0x100013268, symSize: 0x14 }
  - { offsetInCU: 0x92984, offset: 0xA6374, size: 0x8, addend: 0x0, symName: __ZNK5Eigen9TransposeIKNS_6MatrixIdLin1ELin1ELi0ELin1ELin1EEEE16nestedExpressionEv, symObjAddr: 0xB328, symBinAddr: 0x10001327C, symSize: 0x18 }
  - { offsetInCU: 0x92B5D, offset: 0xA654D, size: 0x8, addend: 0x0, symName: __ZNK5Eigen10MatrixBaseINS_9TransposeIKNS_6MatrixIdLin1ELin1ELi0ELin1ELin1EEEEEE11lazyProductIS3_EEKNS_7ProductIS5_T_Li1EEERKNS0_IS9_EE, symObjAddr: 0xB428, symBinAddr: 0x10001337C, symSize: 0x4C }
  - { offsetInCU: 0x92C10, offset: 0xA6600, size: 0x8, addend: 0x0, symName: __ZN5Eigen8internal9evaluatorINS_7ProductINS_9TransposeIKNS_6MatrixIdLin1ELin1ELi0ELin1ELin1EEEEES5_Li1EEEEC1ERKS8_, symObjAddr: 0xB474, symBinAddr: 0x1000133C8, symSize: 0x34 }
  - { offsetInCU: 0x92C8E, offset: 0xA667E, size: 0x8, addend: 0x0, symName: __ZN5Eigen8internal41restricted_packet_dense_assignment_kernelINS0_9evaluatorINS_6MatrixIdLin1ELin1ELi0ELin1ELin1EEEEENS2_INS_7ProductINS_9TransposeIKS4_EES4_Li1EEEEENS0_9assign_opIddEEEC1ERS5_RKSB_RKSD_RS4_, symObjAddr: 0xB5A0, symBinAddr: 0x1000134F4, symSize: 0x4C }
  - { offsetInCU: 0x92CF8, offset: 0xA66E8, size: 0x8, addend: 0x0, symName: __ZN5Eigen8internal21dense_assignment_loopINS0_41restricted_packet_dense_assignment_kernelINS0_9evaluatorINS_6MatrixIdLin1ELin1ELi0ELin1ELin1EEEEENS3_INS_7ProductINS_9TransposeIKS5_EES5_Li1EEEEENS0_9assign_opIddEEEELi0ELi0EE3runERSF_, symObjAddr: 0xB5EC, symBinAddr: 0x100013540, symSize: 0xAC }
  - { offsetInCU: 0x92D57, offset: 0xA6747, size: 0x8, addend: 0x0, symName: __ZN5Eigen8internal9evaluatorINS_7ProductINS_9TransposeIKNS_6MatrixIdLin1ELin1ELi0ELin1ELin1EEEEES5_Li1EEEED1Ev, symObjAddr: 0xB698, symBinAddr: 0x1000135EC, symSize: 0x2C }
  - { offsetInCU: 0x92D83, offset: 0xA6773, size: 0x8, addend: 0x0, symName: __ZN5Eigen8internal9evaluatorINS_7ProductINS_9TransposeIKNS_6MatrixIdLin1ELin1ELi0ELin1ELin1EEEEES5_Li1EEEEC2ERKS8_, symObjAddr: 0xB6C4, symBinAddr: 0x100013618, symSize: 0x34 }
  - { offsetInCU: 0x92DBB, offset: 0xA67AB, size: 0x8, addend: 0x0, symName: __ZN5Eigen8internal17product_evaluatorINS_7ProductINS_9TransposeIKNS_6MatrixIdLin1ELin1ELi0ELin1ELin1EEEEES5_Li1EEELi8ENS_10DenseShapeES9_ddEC2ERKS8_, symObjAddr: 0xB6F8, symBinAddr: 0x10001364C, symSize: 0x110 }
  - { offsetInCU: 0x92DF4, offset: 0xA67E4, size: 0x8, addend: 0x0, symName: __ZN5Eigen8internal14evaluator_baseINS_7ProductINS_9TransposeIKNS_6MatrixIdLin1ELin1ELi0ELin1ELin1EEEEES5_Li1EEEEC2Ev, symObjAddr: 0xB808, symBinAddr: 0x10001375C, symSize: 0x14 }
  - { offsetInCU: 0x92E1E, offset: 0xA680E, size: 0x8, addend: 0x0, symName: __ZNK5Eigen7ProductINS_9TransposeIKNS_6MatrixIdLin1ELin1ELi0ELin1ELin1EEEEES3_Li1EE3lhsEv, symObjAddr: 0xB81C, symBinAddr: 0x100013770, symSize: 0x14 }
  - { offsetInCU: 0x92E44, offset: 0xA6834, size: 0x8, addend: 0x0, symName: __ZNK5Eigen7ProductINS_9TransposeIKNS_6MatrixIdLin1ELin1ELi0ELin1ELin1EEEEES3_Li1EE3rhsEv, symObjAddr: 0xB830, symBinAddr: 0x100013784, symSize: 0x18 }
  - { offsetInCU: 0x92E6A, offset: 0xA685A, size: 0x8, addend: 0x0, symName: __ZN5Eigen8internal9evaluatorINS_9TransposeIKNS_6MatrixIdLin1ELin1ELi0ELin1ELin1EEEEEEC1ERKS6_, symObjAddr: 0xB848, symBinAddr: 0x10001379C, symSize: 0x34 }
  - { offsetInCU: 0x92EA2, offset: 0xA6892, size: 0x8, addend: 0x0, symName: __ZN5Eigen8internal9evaluatorINS_9TransposeIKNS_6MatrixIdLin1ELin1ELi0ELin1ELin1EEEEEED1Ev, symObjAddr: 0xB87C, symBinAddr: 0x1000137D0, symSize: 0x2C }
  - { offsetInCU: 0x92ECE, offset: 0xA68BE, size: 0x8, addend: 0x0, symName: __ZN5Eigen8internal14evaluator_baseINS_7ProductINS_9TransposeIKNS_6MatrixIdLin1ELin1ELi0ELin1ELin1EEEEES5_Li1EEEED2Ev, symObjAddr: 0xB8A8, symBinAddr: 0x1000137FC, symSize: 0x14 }
  - { offsetInCU: 0x92EF8, offset: 0xA68E8, size: 0x8, addend: 0x0, symName: __ZN5Eigen8internal9evaluatorINS_9TransposeIKNS_6MatrixIdLin1ELin1ELi0ELin1ELin1EEEEEEC2ERKS6_, symObjAddr: 0xB8BC, symBinAddr: 0x100013810, symSize: 0x34 }
  - { offsetInCU: 0x92F30, offset: 0xA6920, size: 0x8, addend: 0x0, symName: __ZN5Eigen8internal15unary_evaluatorINS_9TransposeIKNS_6MatrixIdLin1ELin1ELi0ELin1ELin1EEEEENS0_10IndexBasedEdEC2ERKS6_, symObjAddr: 0xB8F0, symBinAddr: 0x100013844, symSize: 0x6C }
  - { offsetInCU: 0x92F69, offset: 0xA6959, size: 0x8, addend: 0x0, symName: __ZN5Eigen8internal14evaluator_baseINS_9TransposeIKNS_6MatrixIdLin1ELin1ELi0ELin1ELin1EEEEEEC2Ev, symObjAddr: 0xB95C, symBinAddr: 0x1000138B0, symSize: 0x14 }
  - { offsetInCU: 0x92F93, offset: 0xA6983, size: 0x8, addend: 0x0, symName: __ZN5Eigen8internal14evaluator_baseINS_9TransposeIKNS_6MatrixIdLin1ELin1ELi0ELin1ELin1EEEEEED2Ev, symObjAddr: 0xB970, symBinAddr: 0x1000138C4, symSize: 0x14 }
  - { offsetInCU: 0x92FBD, offset: 0xA69AD, size: 0x8, addend: 0x0, symName: __ZN5Eigen8internal9evaluatorINS_9TransposeIKNS_6MatrixIdLin1ELin1ELi0ELin1ELin1EEEEEED2Ev, symObjAddr: 0xB984, symBinAddr: 0x1000138D8, symSize: 0x2C }
  - { offsetInCU: 0x92FE9, offset: 0xA69D9, size: 0x8, addend: 0x0, symName: __ZN5Eigen8internal15unary_evaluatorINS_9TransposeIKNS_6MatrixIdLin1ELin1ELi0ELin1ELin1EEEEENS0_10IndexBasedEdED2Ev, symObjAddr: 0xB9B0, symBinAddr: 0x100013904, symSize: 0x34 }
  - { offsetInCU: 0x93015, offset: 0xA6A05, size: 0x8, addend: 0x0, symName: __ZNK5Eigen7ProductINS_9TransposeIKNS_6MatrixIdLin1ELin1ELi0ELin1ELin1EEEEES3_Li1EE4rowsEv, symObjAddr: 0xB9E4, symBinAddr: 0x100013938, symSize: 0x24 }
  - { offsetInCU: 0x9303B, offset: 0xA6A2B, size: 0x8, addend: 0x0, symName: __ZNK5Eigen7ProductINS_9TransposeIKNS_6MatrixIdLin1ELin1ELi0ELin1ELin1EEEEES3_Li1EE4colsEv, symObjAddr: 0xBA08, symBinAddr: 0x10001395C, symSize: 0x28 }
  - { offsetInCU: 0x93061, offset: 0xA6A51, size: 0x8, addend: 0x0, symName: __ZN5Eigen8internal41restricted_packet_dense_assignment_kernelINS0_9evaluatorINS_6MatrixIdLin1ELin1ELi0ELin1ELin1EEEEENS2_INS_7ProductINS_9TransposeIKS4_EES4_Li1EEEEENS0_9assign_opIddEEEC2ERS5_RKSB_RKSD_RS4_, symObjAddr: 0xBA30, symBinAddr: 0x100013984, symSize: 0x4C }
  - { offsetInCU: 0x930C7, offset: 0xA6AB7, size: 0x8, addend: 0x0, symName: __ZN5Eigen8internal31generic_dense_assignment_kernelINS0_9evaluatorINS_6MatrixIdLin1ELin1ELi0ELin1ELin1EEEEENS2_INS_7ProductINS_9TransposeIKS4_EES4_Li1EEEEENS0_9assign_opIddEELi1EEC2ERS5_RKSB_RKSD_RS4_, symObjAddr: 0xBA7C, symBinAddr: 0x1000139D0, symSize: 0x44 }
  - { offsetInCU: 0x9312D, offset: 0xA6B1D, size: 0x8, addend: 0x0, symName: __ZNK5Eigen8internal31generic_dense_assignment_kernelINS0_9evaluatorINS_6MatrixIdLin1ELin1ELi0ELin1ELin1EEEEENS2_INS_7ProductINS_9TransposeIKS4_EES4_Li1EEEEENS0_9assign_opIddEELi1EE9outerSizeEv, symObjAddr: 0xBAC0, symBinAddr: 0x100013A14, symSize: 0x28 }
  - { offsetInCU: 0x93153, offset: 0xA6B43, size: 0x8, addend: 0x0, symName: __ZNK5Eigen8internal31generic_dense_assignment_kernelINS0_9evaluatorINS_6MatrixIdLin1ELin1ELi0ELin1ELin1EEEEENS2_INS_7ProductINS_9TransposeIKS4_EES4_Li1EEEEENS0_9assign_opIddEELi1EE9innerSizeEv, symObjAddr: 0xBAE8, symBinAddr: 0x100013A3C, symSize: 0x28 }
  - { offsetInCU: 0x93179, offset: 0xA6B69, size: 0x8, addend: 0x0, symName: __ZN5Eigen8internal31generic_dense_assignment_kernelINS0_9evaluatorINS_6MatrixIdLin1ELin1ELi0ELin1ELin1EEEEENS2_INS_7ProductINS_9TransposeIKS4_EES4_Li1EEEEENS0_9assign_opIddEELi1EE23assignCoeffByOuterInnerEll, symObjAddr: 0xBB10, symBinAddr: 0x100013A64, symSize: 0x60 }
  - { offsetInCU: 0x931DB, offset: 0xA6BCB, size: 0x8, addend: 0x0, symName: __ZN5Eigen8internal31generic_dense_assignment_kernelINS0_9evaluatorINS_6MatrixIdLin1ELin1ELi0ELin1ELin1EEEEENS2_INS_7ProductINS_9TransposeIKS4_EES4_Li1EEEEENS0_9assign_opIddEELi1EE20rowIndexByOuterInnerEll, symObjAddr: 0xBB70, symBinAddr: 0x100013AC4, symSize: 0x18 }
  - { offsetInCU: 0x9320E, offset: 0xA6BFE, size: 0x8, addend: 0x0, symName: __ZN5Eigen8internal31generic_dense_assignment_kernelINS0_9evaluatorINS_6MatrixIdLin1ELin1ELi0ELin1ELin1EEEEENS2_INS_7ProductINS_9TransposeIKS4_EES4_Li1EEEEENS0_9assign_opIddEELi1EE20colIndexByOuterInnerEll, symObjAddr: 0xBB88, symBinAddr: 0x100013ADC, symSize: 0x18 }
  - { offsetInCU: 0x93241, offset: 0xA6C31, size: 0x8, addend: 0x0, symName: __ZN5Eigen8internal31generic_dense_assignment_kernelINS0_9evaluatorINS_6MatrixIdLin1ELin1ELi0ELin1ELin1EEEEENS2_INS_7ProductINS_9TransposeIKS4_EES4_Li1EEEEENS0_9assign_opIddEELi1EE11assignCoeffEll, symObjAddr: 0xBBA0, symBinAddr: 0x100013AF4, symSize: 0x70 }
  - { offsetInCU: 0x93285, offset: 0xA6C75, size: 0x8, addend: 0x0, symName: __ZNK5Eigen8internal17product_evaluatorINS_7ProductINS_9TransposeIKNS_6MatrixIdLin1ELin1ELi0ELin1ELin1EEEEES5_Li1EEELi8ENS_10DenseShapeES9_ddE5coeffEll, symObjAddr: 0xBC10, symBinAddr: 0x100013B64, symSize: 0x88 }
  - { offsetInCU: 0x932C9, offset: 0xA6CB9, size: 0x8, addend: 0x0, symName: __ZNK5Eigen9DenseBaseINS_9TransposeIKNS_6MatrixIdLin1ELin1ELi0ELin1ELin1EEEEEE3rowEl, symObjAddr: 0xBC98, symBinAddr: 0x100013BEC, symSize: 0x3C }
  - { offsetInCU: 0x932FE, offset: 0xA6CEE, size: 0x8, addend: 0x0, symName: __ZNK5Eigen9DenseBaseINS_5BlockIKNS_9TransposeIKNS_6MatrixIdLin1ELin1ELi0ELin1ELin1EEEEELi1ELin1ELb1EEEE9transposeEv, symObjAddr: 0xBCD4, symBinAddr: 0x100013C28, symSize: 0x34 }
  - { offsetInCU: 0x93326, offset: 0xA6D16, size: 0x8, addend: 0x0, symName: __ZNK5Eigen10MatrixBaseINS_9TransposeIKNS_5BlockIKNS1_IKNS_6MatrixIdLin1ELin1ELi0ELin1ELin1EEEEELi1ELin1ELb1EEEEEE12cwiseProductINS2_IS5_Lin1ELi1ELb1EEEEEKNS_13CwiseBinaryOpINS_8internal17scalar_product_opIdNSF_6traitsIT_E6ScalarEEEKSA_KSI_EERKNS0_ISI_EE, symObjAddr: 0xBD08, symBinAddr: 0x100013C5C, symSize: 0x60 }
  - { offsetInCU: 0x93363, offset: 0xA6D53, size: 0x8, addend: 0x0, symName: __ZNK5Eigen9DenseBaseINS_6MatrixIdLin1ELin1ELi0ELin1ELin1EEEE3colEl, symObjAddr: 0xBD68, symBinAddr: 0x100013CBC, symSize: 0x3C }
  - { offsetInCU: 0x93398, offset: 0xA6D88, size: 0x8, addend: 0x0, symName: __ZNK5Eigen9DenseBaseINS_13CwiseBinaryOpINS_8internal17scalar_product_opIddEEKNS_9TransposeIKNS_5BlockIKNS5_IKNS_6MatrixIdLin1ELin1ELi0ELin1ELin1EEEEELi1ELin1ELb1EEEEEKNS6_IS9_Lin1ELi1ELb1EEEEEE3sumEv, symObjAddr: 0xBDA4, symBinAddr: 0x100013CF8, symSize: 0x74 }
  - { offsetInCU: 0x933C1, offset: 0xA6DB1, size: 0x8, addend: 0x0, symName: __ZN5Eigen5BlockIKNS_9TransposeIKNS_6MatrixIdLin1ELin1ELi0ELin1ELin1EEEEELi1ELin1ELb1EEC1ERS6_l, symObjAddr: 0xBE18, symBinAddr: 0x100013D6C, symSize: 0x3C }
  - { offsetInCU: 0x93407, offset: 0xA6DF7, size: 0x8, addend: 0x0, symName: __ZN5Eigen5BlockIKNS_9TransposeIKNS_6MatrixIdLin1ELin1ELi0ELin1ELin1EEEEELi1ELin1ELb1EEC2ERS6_l, symObjAddr: 0xBE54, symBinAddr: 0x100013DA8, symSize: 0xCC }
  - { offsetInCU: 0x9344D, offset: 0xA6E3D, size: 0x8, addend: 0x0, symName: __ZN5Eigen9BlockImplIKNS_9TransposeIKNS_6MatrixIdLin1ELin1ELi0ELin1ELin1EEEEELi1ELin1ELb1ENS_5DenseEEC2ERS6_l, symObjAddr: 0xBF20, symBinAddr: 0x100013E74, symSize: 0x3C }
  - { offsetInCU: 0x93493, offset: 0xA6E83, size: 0x8, addend: 0x0, symName: __ZN5Eigen8internal15BlockImpl_denseIKNS_9TransposeIKNS_6MatrixIdLin1ELin1ELi0ELin1ELin1EEEEELi1ELin1ELb1ELb1EEC2ERS7_l, symObjAddr: 0xBF5C, symBinAddr: 0x100013EB0, symSize: 0xB0 }
  - { offsetInCU: 0x934DB, offset: 0xA6ECB, size: 0x8, addend: 0x0, symName: __ZNK5Eigen13TransposeImplIKNS_6MatrixIdLin1ELin1ELi0ELin1ELin1EEENS_5DenseEE4dataEv, symObjAddr: 0xC00C, symBinAddr: 0x100013F60, symSize: 0x2C }
  - { offsetInCU: 0x93501, offset: 0xA6EF1, size: 0x8, addend: 0x0, symName: __ZNK5Eigen13TransposeImplIKNS_6MatrixIdLin1ELin1ELi0ELin1ELin1EEENS_5DenseEE11outerStrideEv, symObjAddr: 0xC038, symBinAddr: 0x100013F8C, symSize: 0x2C }
  - { offsetInCU: 0x93527, offset: 0xA6F17, size: 0x8, addend: 0x0, symName: __ZN5Eigen7MapBaseINS_5BlockIKNS_9TransposeIKNS_6MatrixIdLin1ELin1ELi0ELin1ELin1EEEEELi1ELin1ELb1EEELi0EEC2EPKdll, symObjAddr: 0xC064, symBinAddr: 0x100013FB8, symSize: 0x130 }
  - { offsetInCU: 0x9357B, offset: 0xA6F6B, size: 0x8, addend: 0x0, symName: __ZN5Eigen8internal15BlockImpl_denseIKNS_9TransposeIKNS_6MatrixIdLin1ELin1ELi0ELin1ELin1EEEEELi1ELin1ELb1ELb1EE4initEv, symObjAddr: 0xC194, symBinAddr: 0x1000140E8, symSize: 0x34 }
  - { offsetInCU: 0x935A1, offset: 0xA6F91, size: 0x8, addend: 0x0, symName: __ZN5Eigen10MatrixBaseINS_5BlockIKNS_9TransposeIKNS_6MatrixIdLin1ELin1ELi0ELin1ELin1EEEEELi1ELin1ELb1EEEEC2Ev, symObjAddr: 0xC1C8, symBinAddr: 0x10001411C, symSize: 0x2C }
  - { offsetInCU: 0x935CB, offset: 0xA6FBB, size: 0x8, addend: 0x0, symName: __ZNK5Eigen7MapBaseINS_5BlockIKNS_9TransposeIKNS_6MatrixIdLin1ELin1ELi0ELin1ELin1EEEEELi1ELin1ELb1EEELi0EE11checkSanityIS8_EEvNS_8internal9enable_ifIXeqsr8internal6traitsIT_EE9AlignmentLi0EEPvE4typeE, symObjAddr: 0xC1F4, symBinAddr: 0x100014148, symSize: 0x14 }
  - { offsetInCU: 0x93605, offset: 0xA6FF5, size: 0x8, addend: 0x0, symName: __ZN5Eigen9DenseBaseINS_5BlockIKNS_9TransposeIKNS_6MatrixIdLin1ELin1ELi0ELin1ELin1EEEEELi1ELin1ELb1EEEEC2Ev, symObjAddr: 0xC208, symBinAddr: 0x10001415C, symSize: 0x14 }
  - { offsetInCU: 0x9362F, offset: 0xA701F, size: 0x8, addend: 0x0, symName: __ZNK5Eigen9EigenBaseINS_5BlockIKNS_9TransposeIKNS_6MatrixIdLin1ELin1ELi0ELin1ELin1EEEEELi1ELin1ELb1EEEE7derivedEv, symObjAddr: 0xC21C, symBinAddr: 0x100014170, symSize: 0x14 }
  - { offsetInCU: 0x93655, offset: 0xA7045, size: 0x8, addend: 0x0, symName: __ZN5Eigen9TransposeIKNS_5BlockIKNS0_IKNS_6MatrixIdLin1ELin1ELi0ELin1ELin1EEEEELi1ELin1ELb1EEEEC1ERS8_, symObjAddr: 0xC230, symBinAddr: 0x100014184, symSize: 0x34 }
  - { offsetInCU: 0x9368D, offset: 0xA707D, size: 0x8, addend: 0x0, symName: __ZN5Eigen9TransposeIKNS_5BlockIKNS0_IKNS_6MatrixIdLin1ELin1ELi0ELin1ELin1EEEEELi1ELin1ELb1EEEEC2ERS8_, symObjAddr: 0xC264, symBinAddr: 0x1000141B8, symSize: 0x40 }
  - { offsetInCU: 0x936C5, offset: 0xA70B5, size: 0x8, addend: 0x0, symName: __ZN5Eigen13TransposeImplIKNS_5BlockIKNS_9TransposeIKNS_6MatrixIdLin1ELin1ELi0ELin1ELin1EEEEELi1ELin1ELb1EEENS_5DenseEEC2Ev, symObjAddr: 0xC2A4, symBinAddr: 0x1000141F8, symSize: 0x2C }
  - { offsetInCU: 0x936EF, offset: 0xA70DF, size: 0x8, addend: 0x0, symName: __ZN5Eigen10MatrixBaseINS_9TransposeIKNS_5BlockIKNS1_IKNS_6MatrixIdLin1ELin1ELi0ELin1ELin1EEEEELi1ELin1ELb1EEEEEEC2Ev, symObjAddr: 0xC2D0, symBinAddr: 0x100014224, symSize: 0x2C }
  - { offsetInCU: 0x93719, offset: 0xA7109, size: 0x8, addend: 0x0, symName: __ZN5Eigen9DenseBaseINS_9TransposeIKNS_5BlockIKNS1_IKNS_6MatrixIdLin1ELin1ELi0ELin1ELin1EEEEELi1ELin1ELb1EEEEEEC2Ev, symObjAddr: 0xC2FC, symBinAddr: 0x100014250, symSize: 0x14 }
  - { offsetInCU: 0x93743, offset: 0xA7133, size: 0x8, addend: 0x0, symName: __ZNK5Eigen9EigenBaseINS_9TransposeIKNS_5BlockIKNS1_IKNS_6MatrixIdLin1ELin1ELi0ELin1ELin1EEEEELi1ELin1ELb1EEEEEE7derivedEv, symObjAddr: 0xC310, symBinAddr: 0x100014264, symSize: 0x14 }
  - { offsetInCU: 0x93769, offset: 0xA7159, size: 0x8, addend: 0x0, symName: __ZN5Eigen8internal17scalar_product_opIddEC1Ev, symObjAddr: 0xC324, symBinAddr: 0x100014278, symSize: 0x2C }
  - { offsetInCU: 0x93793, offset: 0xA7183, size: 0x8, addend: 0x0, symName: __ZN5Eigen13CwiseBinaryOpINS_8internal17scalar_product_opIddEEKNS_9TransposeIKNS_5BlockIKNS4_IKNS_6MatrixIdLin1ELin1ELi0ELin1ELin1EEEEELi1ELin1ELb1EEEEEKNS5_IS8_Lin1ELi1ELb1EEEEC1ERSE_RSG_RKS3_, symObjAddr: 0xC350, symBinAddr: 0x1000142A4, symSize: 0x44 }
  - { offsetInCU: 0x937E7, offset: 0xA71D7, size: 0x8, addend: 0x0, symName: __ZN5Eigen8internal17scalar_product_opIddEC2Ev, symObjAddr: 0xC394, symBinAddr: 0x1000142E8, symSize: 0x14 }
  - { offsetInCU: 0x93811, offset: 0xA7201, size: 0x8, addend: 0x0, symName: __ZN5Eigen13CwiseBinaryOpINS_8internal17scalar_product_opIddEEKNS_9TransposeIKNS_5BlockIKNS4_IKNS_6MatrixIdLin1ELin1ELi0ELin1ELin1EEEEELi1ELin1ELb1EEEEEKNS5_IS8_Lin1ELi1ELb1EEEEC2ERSE_RSG_RKS3_, symObjAddr: 0xC3A8, symBinAddr: 0x1000142FC, symSize: 0x104 }
  - { offsetInCU: 0x9386A, offset: 0xA725A, size: 0x8, addend: 0x0, symName: __ZN5Eigen17CwiseBinaryOpImplINS_8internal17scalar_product_opIddEEKNS_9TransposeIKNS_5BlockIKNS4_IKNS_6MatrixIdLin1ELin1ELi0ELin1ELin1EEEEELi1ELin1ELb1EEEEEKNS5_IS8_Lin1ELi1ELb1EEENS_5DenseEEC2Ev, symObjAddr: 0xC4AC, symBinAddr: 0x100014400, symSize: 0x2C }
  - { offsetInCU: 0x93896, offset: 0xA7286, size: 0x8, addend: 0x0, symName: __ZN5Eigen8internal17scalar_product_opIddEC1ERKS2_, symObjAddr: 0xC4D8, symBinAddr: 0x10001442C, symSize: 0x34 }
  - { offsetInCU: 0x938CB, offset: 0xA72BB, size: 0x8, addend: 0x0, symName: __ZNK5Eigen9TransposeIKNS_5BlockIKNS0_IKNS_6MatrixIdLin1ELin1ELi0ELin1ELin1EEEEELi1ELin1ELb1EEEE4rowsEv, symObjAddr: 0xC50C, symBinAddr: 0x100014460, symSize: 0x24 }
  - { offsetInCU: 0x938F1, offset: 0xA72E1, size: 0x8, addend: 0x0, symName: __ZNK5Eigen9TransposeIKNS_5BlockIKNS0_IKNS_6MatrixIdLin1ELin1ELi0ELin1ELin1EEEEELi1ELin1ELb1EEEE4colsEv, symObjAddr: 0xC530, symBinAddr: 0x100014484, symSize: 0x24 }
  - { offsetInCU: 0x93917, offset: 0xA7307, size: 0x8, addend: 0x0, symName: __ZN5Eigen10MatrixBaseINS_13CwiseBinaryOpINS_8internal17scalar_product_opIddEEKNS_9TransposeIKNS_5BlockIKNS5_IKNS_6MatrixIdLin1ELin1ELi0ELin1ELin1EEEEELi1ELin1ELb1EEEEEKNS6_IS9_Lin1ELi1ELb1EEEEEEC2Ev, symObjAddr: 0xC554, symBinAddr: 0x1000144A8, symSize: 0x2C }
  - { offsetInCU: 0x93941, offset: 0xA7331, size: 0x8, addend: 0x0, symName: __ZN5Eigen9DenseBaseINS_13CwiseBinaryOpINS_8internal17scalar_product_opIddEEKNS_9TransposeIKNS_5BlockIKNS5_IKNS_6MatrixIdLin1ELin1ELi0ELin1ELin1EEEEELi1ELin1ELb1EEEEEKNS6_IS9_Lin1ELi1ELb1EEEEEEC2Ev, symObjAddr: 0xC580, symBinAddr: 0x1000144D4, symSize: 0x14 }
  - { offsetInCU: 0x9396B, offset: 0xA735B, size: 0x8, addend: 0x0, symName: __ZN5Eigen8internal17scalar_product_opIddEC2ERKS2_, symObjAddr: 0xC594, symBinAddr: 0x1000144E8, symSize: 0x18 }
  - { offsetInCU: 0x939A0, offset: 0xA7390, size: 0x8, addend: 0x0, symName: __ZNK5Eigen7MapBaseINS_5BlockIKNS_9TransposeIKNS_6MatrixIdLin1ELin1ELi0ELin1ELin1EEEEELi1ELin1ELb1EEELi0EE4colsEv, symObjAddr: 0xC5AC, symBinAddr: 0x100014500, symSize: 0x28 }
  - { offsetInCU: 0x939C6, offset: 0xA73B6, size: 0x8, addend: 0x0, symName: __ZNK5Eigen7MapBaseINS_5BlockIKNS_9TransposeIKNS_6MatrixIdLin1ELin1ELi0ELin1ELin1EEEEELi1ELin1ELb1EEELi0EE4rowsEv, symObjAddr: 0xC5D4, symBinAddr: 0x100014528, symSize: 0x20 }
  - { offsetInCU: 0x939EC, offset: 0xA73DC, size: 0x8, addend: 0x0, symName: __ZNK5Eigen9EigenBaseINS_13CwiseBinaryOpINS_8internal17scalar_product_opIddEEKNS_9TransposeIKNS_5BlockIKNS5_IKNS_6MatrixIdLin1ELin1ELi0ELin1ELin1EEEEELi1ELin1ELb1EEEEEKNS6_IS9_Lin1ELi1ELb1EEEEEE4sizeEv, symObjAddr: 0xC5F4, symBinAddr: 0x100014548, symSize: 0x44 }
  - { offsetInCU: 0x93A12, offset: 0xA7402, size: 0x8, addend: 0x0, symName: __ZNK5Eigen9EigenBaseINS_13CwiseBinaryOpINS_8internal17scalar_product_opIddEEKNS_9TransposeIKNS_5BlockIKNS5_IKNS_6MatrixIdLin1ELin1ELi0ELin1ELin1EEEEELi1ELin1ELb1EEEEEKNS6_IS9_Lin1ELi1ELb1EEEEEE7derivedEv, symObjAddr: 0xC638, symBinAddr: 0x10001458C, symSize: 0x14 }
  - { offsetInCU: 0x93A38, offset: 0xA7428, size: 0x8, addend: 0x0, symName: __ZNK5Eigen9DenseBaseINS_13CwiseBinaryOpINS_8internal17scalar_product_opIddEEKNS_9TransposeIKNS_5BlockIKNS5_IKNS_6MatrixIdLin1ELin1ELi0ELin1ELin1EEEEELi1ELin1ELb1EEEEEKNS6_IS9_Lin1ELi1ELb1EEEEEE5reduxINS2_13scalar_sum_opIddEEEEdRKT_, symObjAddr: 0xC64C, symBinAddr: 0x1000145A0, symSize: 0x10C }
  - { offsetInCU: 0x93A94, offset: 0xA7484, size: 0x8, addend: 0x0, symName: __ZNK5Eigen9EigenBaseINS_13CwiseBinaryOpINS_8internal17scalar_product_opIddEEKNS_9TransposeIKNS_5BlockIKNS5_IKNS_6MatrixIdLin1ELin1ELi0ELin1ELin1EEEEELi1ELin1ELb1EEEEEKNS6_IS9_Lin1ELi1ELb1EEEEEE4rowsEv, symObjAddr: 0xC758, symBinAddr: 0x1000146AC, symSize: 0x38 }
  - { offsetInCU: 0x93ABA, offset: 0xA74AA, size: 0x8, addend: 0x0, symName: __ZNK5Eigen9EigenBaseINS_13CwiseBinaryOpINS_8internal17scalar_product_opIddEEKNS_9TransposeIKNS_5BlockIKNS5_IKNS_6MatrixIdLin1ELin1ELi0ELin1ELin1EEEEELi1ELin1ELb1EEEEEKNS6_IS9_Lin1ELi1ELb1EEEEEE4colsEv, symObjAddr: 0xC790, symBinAddr: 0x1000146E4, symSize: 0x38 }
  - { offsetInCU: 0x93AE0, offset: 0xA74D0, size: 0x8, addend: 0x0, symName: __ZNK5Eigen13CwiseBinaryOpINS_8internal17scalar_product_opIddEEKNS_9TransposeIKNS_5BlockIKNS4_IKNS_6MatrixIdLin1ELin1ELi0ELin1ELin1EEEEELi1ELin1ELb1EEEEEKNS5_IS8_Lin1ELi1ELb1EEEE4rowsEv, symObjAddr: 0xC7C8, symBinAddr: 0x10001471C, symSize: 0x28 }
  - { offsetInCU: 0x93B06, offset: 0xA74F6, size: 0x8, addend: 0x0, symName: __ZNK5Eigen13CwiseBinaryOpINS_8internal17scalar_product_opIddEEKNS_9TransposeIKNS_5BlockIKNS4_IKNS_6MatrixIdLin1ELin1ELi0ELin1ELin1EEEEELi1ELin1ELb1EEEEEKNS5_IS8_Lin1ELi1ELb1EEEE4colsEv, symObjAddr: 0xC7F0, symBinAddr: 0x100014744, symSize: 0x24 }
  - { offsetInCU: 0x93BEF, offset: 0xA75DF, size: 0x8, addend: 0x0, symName: __ZN5Eigen8internal15redux_evaluatorINS_13CwiseBinaryOpINS0_17scalar_product_opIddEEKNS_9TransposeIKNS_5BlockIKNS5_IKNS_6MatrixIdLin1ELin1ELi0ELin1ELin1EEEEELi1ELin1ELb1EEEEEKNS6_IS9_Lin1ELi1ELb1EEEEEEC1ERKSI_, symObjAddr: 0xC814, symBinAddr: 0x100014768, symSize: 0x34 }
  - { offsetInCU: 0x93C2C, offset: 0xA761C, size: 0x8, addend: 0x0, symName: __ZN5Eigen8internal10redux_implINS0_13scalar_sum_opIddEENS0_15redux_evaluatorINS_13CwiseBinaryOpINS0_17scalar_product_opIddEEKNS_9TransposeIKNS_5BlockIKNS8_IKNS_6MatrixIdLin1ELin1ELi0ELin1ELin1EEEEELi1ELin1ELb1EEEEEKNS9_ISC_Lin1ELi1ELb1EEEEEEELi3ELi0EE3runISL_EEdRKSM_RKS3_RKT_, symObjAddr: 0xC848, symBinAddr: 0x10001479C, symSize: 0x348 }
  - { offsetInCU: 0x93DAA, offset: 0xA779A, size: 0x8, addend: 0x0, symName: __ZN5Eigen8internal15redux_evaluatorINS_13CwiseBinaryOpINS0_17scalar_product_opIddEEKNS_9TransposeIKNS_5BlockIKNS5_IKNS_6MatrixIdLin1ELin1ELi0ELin1ELin1EEEEELi1ELin1ELb1EEEEEKNS6_IS9_Lin1ELi1ELb1EEEEEED1Ev, symObjAddr: 0xCB90, symBinAddr: 0x100014AE4, symSize: 0x2C }
  - { offsetInCU: 0x93DD7, offset: 0xA77C7, size: 0x8, addend: 0x0, symName: __ZN5Eigen8internal15redux_evaluatorINS_13CwiseBinaryOpINS0_17scalar_product_opIddEEKNS_9TransposeIKNS_5BlockIKNS5_IKNS_6MatrixIdLin1ELin1ELi0ELin1ELin1EEEEELi1ELin1ELb1EEEEEKNS6_IS9_Lin1ELi1ELb1EEEEEEC2ERKSI_, symObjAddr: 0xCBBC, symBinAddr: 0x100014B10, symSize: 0x34 }
  - { offsetInCU: 0x93E10, offset: 0xA7800, size: 0x8, addend: 0x0, symName: __ZN5Eigen8internal9evaluatorINS_13CwiseBinaryOpINS0_17scalar_product_opIddEEKNS_9TransposeIKNS_5BlockIKNS5_IKNS_6MatrixIdLin1ELin1ELi0ELin1ELin1EEEEELi1ELin1ELb1EEEEEKNS6_IS9_Lin1ELi1ELb1EEEEEEC2ERKSI_, symObjAddr: 0xCBF0, symBinAddr: 0x100014B44, symSize: 0x34 }
  - { offsetInCU: 0x93E49, offset: 0xA7839, size: 0x8, addend: 0x0, symName: __ZN5Eigen8internal16binary_evaluatorINS_13CwiseBinaryOpINS0_17scalar_product_opIddEEKNS_9TransposeIKNS_5BlockIKNS5_IKNS_6MatrixIdLin1ELin1ELi0ELin1ELin1EEEEELi1ELin1ELb1EEEEEKNS6_IS9_Lin1ELi1ELb1EEEEENS0_10IndexBasedESJ_ddEC2ERKSI_, symObjAddr: 0xCC24, symBinAddr: 0x100014B78, symSize: 0x64 }
  - { offsetInCU: 0x93E82, offset: 0xA7872, size: 0x8, addend: 0x0, symName: __ZN5Eigen8internal14evaluator_baseINS_13CwiseBinaryOpINS0_17scalar_product_opIddEEKNS_9TransposeIKNS_5BlockIKNS5_IKNS_6MatrixIdLin1ELin1ELi0ELin1ELin1EEEEELi1ELin1ELb1EEEEEKNS6_IS9_Lin1ELi1ELb1EEEEEEC2Ev, symObjAddr: 0xCC88, symBinAddr: 0x100014BDC, symSize: 0x14 }
  - { offsetInCU: 0x93EAC, offset: 0xA789C, size: 0x8, addend: 0x0, symName: __ZN5Eigen8internal16binary_evaluatorINS_13CwiseBinaryOpINS0_17scalar_product_opIddEEKNS_9TransposeIKNS_5BlockIKNS5_IKNS_6MatrixIdLin1ELin1ELi0ELin1ELin1EEEEELi1ELin1ELb1EEEEEKNS6_IS9_Lin1ELi1ELb1EEEEENS0_10IndexBasedESJ_ddE4DataC1ERKSI_, symObjAddr: 0xCC9C, symBinAddr: 0x100014BF0, symSize: 0x34 }
  - { offsetInCU: 0x93EE5, offset: 0xA78D5, size: 0x8, addend: 0x0, symName: __ZN5Eigen8internal14evaluator_baseINS_13CwiseBinaryOpINS0_17scalar_product_opIddEEKNS_9TransposeIKNS_5BlockIKNS5_IKNS_6MatrixIdLin1ELin1ELi0ELin1ELin1EEEEELi1ELin1ELb1EEEEEKNS6_IS9_Lin1ELi1ELb1EEEEEED2Ev, symObjAddr: 0xCCD0, symBinAddr: 0x100014C24, symSize: 0x14 }
  - { offsetInCU: 0x93F0F, offset: 0xA78FF, size: 0x8, addend: 0x0, symName: __ZN5Eigen8internal16binary_evaluatorINS_13CwiseBinaryOpINS0_17scalar_product_opIddEEKNS_9TransposeIKNS_5BlockIKNS5_IKNS_6MatrixIdLin1ELin1ELi0ELin1ELin1EEEEELi1ELin1ELb1EEEEEKNS6_IS9_Lin1ELi1ELb1EEEEENS0_10IndexBasedESJ_ddE4DataC2ERKSI_, symObjAddr: 0xCCE4, symBinAddr: 0x100014C38, symSize: 0xA8 }
  - { offsetInCU: 0x93F48, offset: 0xA7938, size: 0x8, addend: 0x0, symName: __ZNK5Eigen13CwiseBinaryOpINS_8internal17scalar_product_opIddEEKNS_9TransposeIKNS_5BlockIKNS4_IKNS_6MatrixIdLin1ELin1ELi0ELin1ELin1EEEEELi1ELin1ELb1EEEEEKNS5_IS8_Lin1ELi1ELb1EEEE7functorEv, symObjAddr: 0xCD8C, symBinAddr: 0x100014CE0, symSize: 0x18 }
  - { offsetInCU: 0x93F6E, offset: 0xA795E, size: 0x8, addend: 0x0, symName: __ZNK5Eigen13CwiseBinaryOpINS_8internal17scalar_product_opIddEEKNS_9TransposeIKNS_5BlockIKNS4_IKNS_6MatrixIdLin1ELin1ELi0ELin1ELin1EEEEELi1ELin1ELb1EEEEEKNS5_IS8_Lin1ELi1ELb1EEEE3lhsEv, symObjAddr: 0xCDA4, symBinAddr: 0x100014CF8, symSize: 0x14 }
  - { offsetInCU: 0x93F94, offset: 0xA7984, size: 0x8, addend: 0x0, symName: __ZN5Eigen8internal9evaluatorIKNS_9TransposeIKNS_5BlockIKNS2_IKNS_6MatrixIdLin1ELin1ELi0ELin1ELin1EEEEELi1ELin1ELb1EEEEEEC1ERSC_, symObjAddr: 0xCDB8, symBinAddr: 0x100014D0C, symSize: 0x34 }
  - { offsetInCU: 0x93FCC, offset: 0xA79BC, size: 0x8, addend: 0x0, symName: __ZNK5Eigen13CwiseBinaryOpINS_8internal17scalar_product_opIddEEKNS_9TransposeIKNS_5BlockIKNS4_IKNS_6MatrixIdLin1ELin1ELi0ELin1ELin1EEEEELi1ELin1ELb1EEEEEKNS5_IS8_Lin1ELi1ELb1EEEE3rhsEv, symObjAddr: 0xCDEC, symBinAddr: 0x100014D40, symSize: 0x18 }
  - { offsetInCU: 0x93FF2, offset: 0xA79E2, size: 0x8, addend: 0x0, symName: __ZN5Eigen8internal9evaluatorIKNS_5BlockIKNS_6MatrixIdLin1ELin1ELi0ELin1ELin1EEELin1ELi1ELb1EEEEC1ERS7_, symObjAddr: 0xCE04, symBinAddr: 0x100014D58, symSize: 0x34 }
  - { offsetInCU: 0x9402A, offset: 0xA7A1A, size: 0x8, addend: 0x0, symName: __ZN5Eigen8internal9evaluatorIKNS_9TransposeIKNS_5BlockIKNS2_IKNS_6MatrixIdLin1ELin1ELi0ELin1ELin1EEEEELi1ELin1ELb1EEEEEED1Ev, symObjAddr: 0xCE38, symBinAddr: 0x100014D8C, symSize: 0x2C }
  - { offsetInCU: 0x94056, offset: 0xA7A46, size: 0x8, addend: 0x0, symName: __ZN5Eigen8internal9evaluatorIKNS_9TransposeIKNS_5BlockIKNS2_IKNS_6MatrixIdLin1ELin1ELi0ELin1ELin1EEEEELi1ELin1ELb1EEEEEEC2ERSC_, symObjAddr: 0xCE64, symBinAddr: 0x100014DB8, symSize: 0x34 }
  - { offsetInCU: 0x9408E, offset: 0xA7A7E, size: 0x8, addend: 0x0, symName: __ZN5Eigen8internal9evaluatorINS_9TransposeIKNS_5BlockIKNS2_IKNS_6MatrixIdLin1ELin1ELi0ELin1ELin1EEEEELi1ELin1ELb1EEEEEEC2ERKSB_, symObjAddr: 0xCE98, symBinAddr: 0x100014DEC, symSize: 0x34 }
  - { offsetInCU: 0x940C6, offset: 0xA7AB6, size: 0x8, addend: 0x0, symName: __ZN5Eigen8internal15unary_evaluatorINS_9TransposeIKNS_5BlockIKNS2_IKNS_6MatrixIdLin1ELin1ELi0ELin1ELin1EEEEELi1ELin1ELb1EEEEENS0_10IndexBasedEdEC2ERKSB_, symObjAddr: 0xCECC, symBinAddr: 0x100014E20, symSize: 0x74 }
  - { offsetInCU: 0x940FF, offset: 0xA7AEF, size: 0x8, addend: 0x0, symName: __ZN5Eigen8internal14evaluator_baseINS_9TransposeIKNS_5BlockIKNS2_IKNS_6MatrixIdLin1ELin1ELi0ELin1ELin1EEEEELi1ELin1ELb1EEEEEEC2Ev, symObjAddr: 0xCF40, symBinAddr: 0x100014E94, symSize: 0x14 }
  - { offsetInCU: 0x94129, offset: 0xA7B19, size: 0x8, addend: 0x0, symName: __ZNK5Eigen9TransposeIKNS_5BlockIKNS0_IKNS_6MatrixIdLin1ELin1ELi0ELin1ELin1EEEEELi1ELin1ELb1EEEE16nestedExpressionEv, symObjAddr: 0xCF54, symBinAddr: 0x100014EA8, symSize: 0x14 }
  - { offsetInCU: 0x9414F, offset: 0xA7B3F, size: 0x8, addend: 0x0, symName: __ZN5Eigen8internal9evaluatorIKNS_5BlockIKNS_9TransposeIKNS_6MatrixIdLin1ELin1ELi0ELin1ELin1EEEEELi1ELin1ELb1EEEEC1ERSA_, symObjAddr: 0xCF68, symBinAddr: 0x100014EBC, symSize: 0x34 }
  - { offsetInCU: 0x94187, offset: 0xA7B77, size: 0x8, addend: 0x0, symName: __ZN5Eigen8internal14evaluator_baseINS_9TransposeIKNS_5BlockIKNS2_IKNS_6MatrixIdLin1ELin1ELi0ELin1ELin1EEEEELi1ELin1ELb1EEEEEED2Ev, symObjAddr: 0xCF9C, symBinAddr: 0x100014EF0, symSize: 0x14 }
  - { offsetInCU: 0x941B1, offset: 0xA7BA1, size: 0x8, addend: 0x0, symName: __ZN5Eigen8internal9evaluatorIKNS_5BlockIKNS_9TransposeIKNS_6MatrixIdLin1ELin1ELi0ELin1ELin1EEEEELi1ELin1ELb1EEEEC2ERSA_, symObjAddr: 0xCFB0, symBinAddr: 0x100014F04, symSize: 0x34 }
  - { offsetInCU: 0x941E9, offset: 0xA7BD9, size: 0x8, addend: 0x0, symName: __ZN5Eigen8internal9evaluatorINS_5BlockIKNS_9TransposeIKNS_6MatrixIdLin1ELin1ELi0ELin1ELin1EEEEELi1ELin1ELb1EEEEC2ERKS9_, symObjAddr: 0xCFE4, symBinAddr: 0x100014F38, symSize: 0x34 }
  - { offsetInCU: 0x94222, offset: 0xA7C12, size: 0x8, addend: 0x0, symName: __ZN5Eigen8internal15block_evaluatorIKNS_9TransposeIKNS_6MatrixIdLin1ELin1ELi0ELin1ELin1EEEEELi1ELin1ELb1ELb1EEC2ERKNS_5BlockIS7_Li1ELin1ELb1EEE, symObjAddr: 0xD018, symBinAddr: 0x100014F6C, symSize: 0xDC }
  - { offsetInCU: 0x9425B, offset: 0xA7C4B, size: 0x8, addend: 0x0, symName: __ZN5Eigen8internal17mapbase_evaluatorINS_5BlockIKNS_9TransposeIKNS_6MatrixIdLin1ELin1ELi0ELin1ELin1EEEEELi1ELin1ELb1EEENS4_IdLi1ELin1ELi1ELi1ELin1EEEEC2ERKS9_, symObjAddr: 0xD0F4, symBinAddr: 0x100015048, symSize: 0xB0 }
  - { offsetInCU: 0x94294, offset: 0xA7C84, size: 0x8, addend: 0x0, symName: __ZNK5Eigen7MapBaseINS_5BlockIKNS_9TransposeIKNS_6MatrixIdLin1ELin1ELi0ELin1ELin1EEEEELi1ELin1ELb1EEELi0EE4dataEv, symObjAddr: 0xD1A4, symBinAddr: 0x1000150F8, symSize: 0x18 }
  - { offsetInCU: 0x942BA, offset: 0xA7CAA, size: 0x8, addend: 0x0, symName: __ZN5Eigen8internal17mapbase_evaluatorINS_5BlockIKNS_9TransposeIKNS_6MatrixIdLin1ELin1ELi0ELin1ELin1EEEEELi1ELin1ELb1EEENS4_IdLi1ELin1ELi1ELi1ELin1EEEED2Ev, symObjAddr: 0xD1BC, symBinAddr: 0x100015110, symSize: 0x2C }
  - { offsetInCU: 0x942E7, offset: 0xA7CD7, size: 0x8, addend: 0x0, symName: __ZN5Eigen8internal14evaluator_baseINS_5BlockIKNS_9TransposeIKNS_6MatrixIdLin1ELin1ELi0ELin1ELin1EEEEELi1ELin1ELb1EEEEC2Ev, symObjAddr: 0xD1E8, symBinAddr: 0x10001513C, symSize: 0x14 }
  - { offsetInCU: 0x94311, offset: 0xA7D01, size: 0x8, addend: 0x0, symName: __ZNK5Eigen8internal15BlockImpl_denseIKNS_9TransposeIKNS_6MatrixIdLin1ELin1ELi0ELin1ELin1EEEEELi1ELin1ELb1ELb1EE11innerStrideEv, symObjAddr: 0xD1FC, symBinAddr: 0x100015150, symSize: 0x38 }
  - { offsetInCU: 0x94337, offset: 0xA7D27, size: 0x8, addend: 0x0, symName: __ZNK5Eigen8internal15BlockImpl_denseIKNS_9TransposeIKNS_6MatrixIdLin1ELin1ELi0ELin1ELin1EEEEELi1ELin1ELb1ELb1EE11outerStrideEv, symObjAddr: 0xD234, symBinAddr: 0x100015188, symSize: 0x28 }
  - { offsetInCU: 0x9435D, offset: 0xA7D4D, size: 0x8, addend: 0x0, symName: __ZN5Eigen8internal14evaluator_baseINS_5BlockIKNS_9TransposeIKNS_6MatrixIdLin1ELin1ELi0ELin1ELin1EEEEELi1ELin1ELb1EEEED2Ev, symObjAddr: 0xD25C, symBinAddr: 0x1000151B0, symSize: 0x14 }
  - { offsetInCU: 0x94387, offset: 0xA7D77, size: 0x8, addend: 0x0, symName: __ZNK5Eigen13TransposeImplIKNS_6MatrixIdLin1ELin1ELi0ELin1ELin1EEENS_5DenseEE11innerStrideEv, symObjAddr: 0xD270, symBinAddr: 0x1000151C4, symSize: 0x2C }
  - { offsetInCU: 0x943AD, offset: 0xA7D9D, size: 0x8, addend: 0x0, symName: __ZN5Eigen8internal9evaluatorIKNS_5BlockIKNS_6MatrixIdLin1ELin1ELi0ELin1ELin1EEELin1ELi1ELb1EEEEC2ERS7_, symObjAddr: 0xD29C, symBinAddr: 0x1000151F0, symSize: 0x34 }
  - { offsetInCU: 0x943E5, offset: 0xA7DD5, size: 0x8, addend: 0x0, symName: __ZN5Eigen8internal9evaluatorIKNS_9TransposeIKNS_5BlockIKNS2_IKNS_6MatrixIdLin1ELin1ELi0ELin1ELin1EEEEELi1ELin1ELb1EEEEEED2Ev, symObjAddr: 0xD2D0, symBinAddr: 0x100015224, symSize: 0x2C }
  - { offsetInCU: 0x94411, offset: 0xA7E01, size: 0x8, addend: 0x0, symName: __ZN5Eigen8internal9evaluatorINS_9TransposeIKNS_5BlockIKNS2_IKNS_6MatrixIdLin1ELin1ELi0ELin1ELin1EEEEELi1ELin1ELb1EEEEEED2Ev, symObjAddr: 0xD2FC, symBinAddr: 0x100015250, symSize: 0x2C }
  - { offsetInCU: 0x9443D, offset: 0xA7E2D, size: 0x8, addend: 0x0, symName: __ZN5Eigen8internal15unary_evaluatorINS_9TransposeIKNS_5BlockIKNS2_IKNS_6MatrixIdLin1ELin1ELi0ELin1ELin1EEEEELi1ELin1ELb1EEEEENS0_10IndexBasedEdED2Ev, symObjAddr: 0xD328, symBinAddr: 0x10001527C, symSize: 0x34 }
  - { offsetInCU: 0x94469, offset: 0xA7E59, size: 0x8, addend: 0x0, symName: __ZN5Eigen8internal9evaluatorIKNS_5BlockIKNS_9TransposeIKNS_6MatrixIdLin1ELin1ELi0ELin1ELin1EEEEELi1ELin1ELb1EEEED1Ev, symObjAddr: 0xD35C, symBinAddr: 0x1000152B0, symSize: 0x2C }
  - { offsetInCU: 0x94495, offset: 0xA7E85, size: 0x8, addend: 0x0, symName: __ZN5Eigen8internal9evaluatorIKNS_5BlockIKNS_9TransposeIKNS_6MatrixIdLin1ELin1ELi0ELin1ELin1EEEEELi1ELin1ELb1EEEED2Ev, symObjAddr: 0xD388, symBinAddr: 0x1000152DC, symSize: 0x2C }
  - { offsetInCU: 0x944C1, offset: 0xA7EB1, size: 0x8, addend: 0x0, symName: __ZN5Eigen8internal9evaluatorINS_5BlockIKNS_9TransposeIKNS_6MatrixIdLin1ELin1ELi0ELin1ELin1EEEEELi1ELin1ELb1EEEED2Ev, symObjAddr: 0xD3B4, symBinAddr: 0x100015308, symSize: 0x2C }
  - { offsetInCU: 0x944EE, offset: 0xA7EDE, size: 0x8, addend: 0x0, symName: __ZN5Eigen8internal15block_evaluatorIKNS_9TransposeIKNS_6MatrixIdLin1ELin1ELi0ELin1ELin1EEEEELi1ELin1ELb1ELb1EED2Ev, symObjAddr: 0xD3E0, symBinAddr: 0x100015334, symSize: 0x2C }
  - { offsetInCU: 0x9451B, offset: 0xA7F0B, size: 0x8, addend: 0x0, symName: __ZNK5Eigen8internal16binary_evaluatorINS_13CwiseBinaryOpINS0_17scalar_product_opIddEEKNS_9TransposeIKNS_5BlockIKNS5_IKNS_6MatrixIdLin1ELin1ELi0ELin1ELin1EEEEELi1ELin1ELb1EEEEEKNS6_IS9_Lin1ELi1ELb1EEEEENS0_10IndexBasedESJ_ddE6packetILi0E19__simd128_float64_tEET0_l, symObjAddr: 0xD430, symBinAddr: 0x100015384, symSize: 0x70 }
  - { offsetInCU: 0x94563, offset: 0xA7F53, size: 0x8, addend: 0x0, symName: __ZNK5Eigen8internal16binary_evaluatorINS_13CwiseBinaryOpINS0_17scalar_product_opIddEEKNS_9TransposeIKNS_5BlockIKNS5_IKNS_6MatrixIdLin1ELin1ELi0ELin1ELin1EEEEELi1ELin1ELb1EEEEEKNS6_IS9_Lin1ELi1ELb1EEEEENS0_10IndexBasedESJ_ddE5coeffEl, symObjAddr: 0xD4A0, symBinAddr: 0x1000153F4, symSize: 0x70 }
  - { offsetInCU: 0x94598, offset: 0xA7F88, size: 0x8, addend: 0x0, symName: __ZN5Eigen8internal18first_aligned_implILi16ENS_13CwiseBinaryOpINS0_17scalar_product_opIddEEKNS_9TransposeIKNS_5BlockIKNS5_IKNS_6MatrixIdLin1ELin1ELi0ELin1ELin1EEEEELi1ELin1ELb1EEEEEKNS6_IS9_Lin1ELi1ELb1EEEEELb1EE3runERKSI_, symObjAddr: 0xD538, symBinAddr: 0x10001548C, symSize: 0x14 }
  - { offsetInCU: 0x945B9, offset: 0xA7FA9, size: 0x8, addend: 0x0, symName: __ZNK5Eigen8internal16binary_evaluatorINS_13CwiseBinaryOpINS0_17scalar_product_opIddEEKNS_9TransposeIKNS_5BlockIKNS5_IKNS_6MatrixIdLin1ELin1ELi0ELin1ELin1EEEEELi1ELin1ELb1EEEEEKNS6_IS9_Lin1ELi1ELb1EEEEENS0_10IndexBasedESJ_ddE4Data4funcEv, symObjAddr: 0xD54C, symBinAddr: 0x1000154A0, symSize: 0x14 }
  - { offsetInCU: 0x945DF, offset: 0xA7FCF, size: 0x8, addend: 0x0, symName: __ZNK5Eigen8internal17scalar_product_opIddE8packetOpI19__simd128_float64_tEET_RKS5_S7_, symObjAddr: 0xD560, symBinAddr: 0x1000154B4, symSize: 0x30 }
  - { offsetInCU: 0x9462A, offset: 0xA801A, size: 0x8, addend: 0x0, symName: __ZNK5Eigen8internal15unary_evaluatorINS_9TransposeIKNS_5BlockIKNS2_IKNS_6MatrixIdLin1ELin1ELi0ELin1ELin1EEEEELi1ELin1ELb1EEEEENS0_10IndexBasedEdE6packetILi0E19__simd128_float64_tEET0_l, symObjAddr: 0xD590, symBinAddr: 0x1000154E4, symSize: 0x2C }
  - { offsetInCU: 0x94672, offset: 0xA8062, size: 0x8, addend: 0x0, symName: __ZNK5Eigen8internal17mapbase_evaluatorINS_5BlockIKNS_9TransposeIKNS_6MatrixIdLin1ELin1ELi0ELin1ELin1EEEEELi1ELin1ELb1EEENS4_IdLi1ELin1ELi1ELi1ELin1EEEE6packetILi0E19__simd128_float64_tEET0_l, symObjAddr: 0xD5FC, symBinAddr: 0x100015550, symSize: 0x54 }
  - { offsetInCU: 0x946DA, offset: 0xA80CA, size: 0x8, addend: 0x0, symName: __ZNK5Eigen8internal17scalar_product_opIddEclERKdS4_, symObjAddr: 0xD650, symBinAddr: 0x1000155A4, symSize: 0x2C }
  - { offsetInCU: 0x9471C, offset: 0xA810C, size: 0x8, addend: 0x0, symName: __ZNK5Eigen8internal15unary_evaluatorINS_9TransposeIKNS_5BlockIKNS2_IKNS_6MatrixIdLin1ELin1ELi0ELin1ELin1EEEEELi1ELin1ELb1EEEEENS0_10IndexBasedEdE5coeffEl, symObjAddr: 0xD67C, symBinAddr: 0x1000155D0, symSize: 0x2C }
  - { offsetInCU: 0x94751, offset: 0xA8141, size: 0x8, addend: 0x0, symName: __ZNK5Eigen8internal17mapbase_evaluatorINS_5BlockIKNS_9TransposeIKNS_6MatrixIdLin1ELin1ELi0ELin1ELin1EEEEELi1ELin1ELb1EEENS4_IdLi1ELin1ELi1ELi1ELin1EEEE5coeffEl, symObjAddr: 0xD6A8, symBinAddr: 0x1000155FC, symSize: 0x48 }
  - { offsetInCU: 0x94786, offset: 0xA8176, size: 0x8, addend: 0x0, symName: __ZN5Eigen8internal15redux_evaluatorINS_13CwiseBinaryOpINS0_17scalar_product_opIddEEKNS_9TransposeIKNS_5BlockIKNS5_IKNS_6MatrixIdLin1ELin1ELi0ELin1ELin1EEEEELi1ELin1ELb1EEEEEKNS6_IS9_Lin1ELi1ELb1EEEEEED2Ev, symObjAddr: 0xD6F0, symBinAddr: 0x100015644, symSize: 0x2C }
  - { offsetInCU: 0x947B3, offset: 0xA81A3, size: 0x8, addend: 0x0, symName: __ZN5Eigen8internal9evaluatorINS_13CwiseBinaryOpINS0_17scalar_product_opIddEEKNS_9TransposeIKNS_5BlockIKNS5_IKNS_6MatrixIdLin1ELin1ELi0ELin1ELin1EEEEELi1ELin1ELb1EEEEEKNS6_IS9_Lin1ELi1ELb1EEEEEED2Ev, symObjAddr: 0xD71C, symBinAddr: 0x100015670, symSize: 0x2C }
  - { offsetInCU: 0x947E0, offset: 0xA81D0, size: 0x8, addend: 0x0, symName: __ZN5Eigen8internal16binary_evaluatorINS_13CwiseBinaryOpINS0_17scalar_product_opIddEEKNS_9TransposeIKNS_5BlockIKNS5_IKNS_6MatrixIdLin1ELin1ELi0ELin1ELin1EEEEELi1ELin1ELb1EEEEEKNS6_IS9_Lin1ELi1ELb1EEEEENS0_10IndexBasedESJ_ddED2Ev, symObjAddr: 0xD748, symBinAddr: 0x10001569C, symSize: 0x34 }
  - { offsetInCU: 0x9480C, offset: 0xA81FC, size: 0x8, addend: 0x0, symName: __ZN5Eigen8internal16binary_evaluatorINS_13CwiseBinaryOpINS0_17scalar_product_opIddEEKNS_9TransposeIKNS_5BlockIKNS5_IKNS_6MatrixIdLin1ELin1ELi0ELin1ELin1EEEEELi1ELin1ELb1EEEEEKNS6_IS9_Lin1ELi1ELb1EEEEENS0_10IndexBasedESJ_ddE4DataD1Ev, symObjAddr: 0xD77C, symBinAddr: 0x1000156D0, symSize: 0x2C }
  - { offsetInCU: 0x94839, offset: 0xA8229, size: 0x8, addend: 0x0, symName: __ZN5Eigen8internal16binary_evaluatorINS_13CwiseBinaryOpINS0_17scalar_product_opIddEEKNS_9TransposeIKNS_5BlockIKNS5_IKNS_6MatrixIdLin1ELin1ELi0ELin1ELin1EEEEELi1ELin1ELb1EEEEEKNS6_IS9_Lin1ELi1ELb1EEEEENS0_10IndexBasedESJ_ddE4DataD2Ev, symObjAddr: 0xD7A8, symBinAddr: 0x1000156FC, symSize: 0x3C }
  - { offsetInCU: 0x94866, offset: 0xA8256, size: 0x8, addend: 0x0, symName: __ZN5Eigen8internal9evaluatorIKNS_5BlockIKNS_6MatrixIdLin1ELin1ELi0ELin1ELin1EEELin1ELi1ELb1EEEED1Ev, symObjAddr: 0xD7E4, symBinAddr: 0x100015738, symSize: 0x2C }
  - { offsetInCU: 0x94892, offset: 0xA8282, size: 0x8, addend: 0x0, symName: __ZN5Eigen8internal9evaluatorIKNS_5BlockIKNS_6MatrixIdLin1ELin1ELi0ELin1ELin1EEELin1ELi1ELb1EEEED2Ev, symObjAddr: 0xD810, symBinAddr: 0x100015764, symSize: 0x2C }
  - { offsetInCU: 0x948BE, offset: 0xA82AE, size: 0x8, addend: 0x0, symName: __ZN5Eigen8internal9evaluatorINS_7ProductINS_9TransposeIKNS_6MatrixIdLin1ELin1ELi0ELin1ELin1EEEEES5_Li1EEEED2Ev, symObjAddr: 0xD83C, symBinAddr: 0x100015790, symSize: 0x2C }
  - { offsetInCU: 0x948EA, offset: 0xA82DA, size: 0x8, addend: 0x0, symName: __ZN5Eigen8internal17product_evaluatorINS_7ProductINS_9TransposeIKNS_6MatrixIdLin1ELin1ELi0ELin1ELin1EEEEES5_Li1EEELi8ENS_10DenseShapeES9_ddED2Ev, symObjAddr: 0xD868, symBinAddr: 0x1000157BC, symSize: 0x44 }
  - { offsetInCU: 0x94916, offset: 0xA8306, size: 0x8, addend: 0x0, symName: __ZN5Eigen7ProductINS_9TransposeIKNS_6MatrixIdLin1ELin1ELi0ELin1ELin1EEEEES3_Li1EEC1ERKS5_RS4_, symObjAddr: 0xD8AC, symBinAddr: 0x100015800, symSize: 0x3C }
  - { offsetInCU: 0x9495C, offset: 0xA834C, size: 0x8, addend: 0x0, symName: __ZN5Eigen7ProductINS_9TransposeIKNS_6MatrixIdLin1ELin1ELi0ELin1ELin1EEEEES3_Li1EEC2ERKS5_RS4_, symObjAddr: 0xD8E8, symBinAddr: 0x10001583C, symSize: 0xC4 }
  - { offsetInCU: 0x949A7, offset: 0xA8397, size: 0x8, addend: 0x0, symName: __ZN5Eigen11ProductImplINS_9TransposeIKNS_6MatrixIdLin1ELin1ELi0ELin1ELin1EEEEES3_Li1ENS_5DenseEEC2Ev, symObjAddr: 0xD9AC, symBinAddr: 0x100015900, symSize: 0x2C }
  - { offsetInCU: 0x949D8, offset: 0xA83C8, size: 0x8, addend: 0x0, symName: __ZN5Eigen8internal18dense_product_baseINS_9TransposeIKNS_6MatrixIdLin1ELin1ELi0ELin1ELin1EEEEES4_Li1ELi8EEC2Ev, symObjAddr: 0xD9D8, symBinAddr: 0x10001592C, symSize: 0x2C }
  - { offsetInCU: 0x94A04, offset: 0xA83F4, size: 0x8, addend: 0x0, symName: __ZN5Eigen10MatrixBaseINS_7ProductINS_9TransposeIKNS_6MatrixIdLin1ELin1ELi0ELin1ELin1EEEEES4_Li1EEEEC2Ev, symObjAddr: 0xDA04, symBinAddr: 0x100015958, symSize: 0x2C }
  - { offsetInCU: 0x94A2E, offset: 0xA841E, size: 0x8, addend: 0x0, symName: __ZN5Eigen9DenseBaseINS_7ProductINS_9TransposeIKNS_6MatrixIdLin1ELin1ELi0ELin1ELin1EEEEES4_Li1EEEEC2Ev, symObjAddr: 0xDA30, symBinAddr: 0x100015984, symSize: 0x14 }
  - { offsetInCU: 0x94A58, offset: 0xA8448, size: 0x8, addend: 0x0, symName: __ZN5Eigen9DenseBaseINS_6MatrixIdLin1ELin1ELi0ELin1ELin1EEEE11setConstantERKd, symObjAddr: 0xDA44, symBinAddr: 0x100015998, symSize: 0x64 }
  - { offsetInCU: 0x94A90, offset: 0xA8480, size: 0x8, addend: 0x0, symName: __ZN5Eigen9DenseBaseINS_6MatrixIdLin1ELin1ELi0ELin1ELin1EEEE8ConstantEllRKd, symObjAddr: 0xDAA8, symBinAddr: 0x1000159FC, symSize: 0x60 }
  - { offsetInCU: 0x94AD4, offset: 0xA84C4, size: 0x8, addend: 0x0, symName: __ZN5Eigen6MatrixIdLin1ELin1ELi0ELin1ELin1EEaSINS_14CwiseNullaryOpINS_8internal18scalar_constant_opIdEES1_EEEERS1_RKNS_9DenseBaseIT_EE, symObjAddr: 0xDB08, symBinAddr: 0x100015A5C, symSize: 0x2C }
  - { offsetInCU: 0x94B11, offset: 0xA8501, size: 0x8, addend: 0x0, symName: __ZN5Eigen9DenseBaseINS_6MatrixIdLin1ELin1ELi0ELin1ELin1EEEE11NullaryExprINS_8internal18scalar_constant_opIdEEEEKNS_14CwiseNullaryOpIT_S2_EEllRKS9_, symObjAddr: 0xDB34, symBinAddr: 0x100015A88, symSize: 0x48 }
  - { offsetInCU: 0x94B5E, offset: 0xA854E, size: 0x8, addend: 0x0, symName: __ZN5Eigen14CwiseNullaryOpINS_8internal18scalar_constant_opIdEENS_6MatrixIdLin1ELin1ELi0ELin1ELin1EEEEC1EllRKS3_, symObjAddr: 0xDB7C, symBinAddr: 0x100015AD0, symSize: 0x44 }
  - { offsetInCU: 0x94BB2, offset: 0xA85A2, size: 0x8, addend: 0x0, symName: __ZN5Eigen14CwiseNullaryOpINS_8internal18scalar_constant_opIdEENS_6MatrixIdLin1ELin1ELi0ELin1ELin1EEEEC2EllRKS3_, symObjAddr: 0xDBC0, symBinAddr: 0x100015B14, symSize: 0xDC }
  - { offsetInCU: 0x94C06, offset: 0xA85F6, size: 0x8, addend: 0x0, symName: __ZN5Eigen10MatrixBaseINS_14CwiseNullaryOpINS_8internal18scalar_constant_opIdEENS_6MatrixIdLin1ELin1ELi0ELin1ELin1EEEEEEC2Ev, symObjAddr: 0xDC9C, symBinAddr: 0x100015BF0, symSize: 0x2C }
  - { offsetInCU: 0x94C30, offset: 0xA8620, size: 0x8, addend: 0x0, symName: __ZN5Eigen9DenseBaseINS_14CwiseNullaryOpINS_8internal18scalar_constant_opIdEENS_6MatrixIdLin1ELin1ELi0ELin1ELin1EEEEEEC2Ev, symObjAddr: 0xDCC8, symBinAddr: 0x100015C1C, symSize: 0x14 }
  - { offsetInCU: 0x94C5A, offset: 0xA864A, size: 0x8, addend: 0x0, symName: __ZN5Eigen15PlainObjectBaseINS_6MatrixIdLin1ELin1ELi0ELin1ELin1EEEE4_setINS_14CwiseNullaryOpINS_8internal18scalar_constant_opIdEES2_EEEERS2_RKNS_9DenseBaseIT_EE, symObjAddr: 0xDCDC, symBinAddr: 0x100015C30, symSize: 0x4C }
  - { offsetInCU: 0x94C98, offset: 0xA8688, size: 0x8, addend: 0x0, symName: __ZNK5Eigen9EigenBaseINS_14CwiseNullaryOpINS_8internal18scalar_constant_opIdEENS_6MatrixIdLin1ELin1ELi0ELin1ELin1EEEEEE7derivedEv, symObjAddr: 0xDD78, symBinAddr: 0x100015CCC, symSize: 0x14 }
  - { offsetInCU: 0x94CBD, offset: 0xA86AD, size: 0x8, addend: 0x0, symName: __ZN5Eigen8internal10AssignmentINS_6MatrixIdLin1ELin1ELi0ELin1ELin1EEENS_14CwiseNullaryOpINS0_18scalar_constant_opIdEES3_EENS0_9assign_opIddEENS0_11Dense2DenseEvE3runERS3_RKS7_RKS9_, symObjAddr: 0xDE00, symBinAddr: 0x100015D54, symSize: 0x40 }
  - { offsetInCU: 0x94D00, offset: 0xA86F0, size: 0x8, addend: 0x0, symName: __ZN5Eigen8internal27checkTransposeAliasing_implINS_6MatrixIdLin1ELin1ELi0ELin1ELin1EEENS_14CwiseNullaryOpINS0_18scalar_constant_opIdEES3_EELb0EE3runERKS3_RKS7_, symObjAddr: 0xDF0C, symBinAddr: 0x100015E60, symSize: 0x14 }
  - { offsetInCU: 0x94D2D, offset: 0xA871D, size: 0x8, addend: 0x0, symName: __ZNK5Eigen14CwiseNullaryOpINS_8internal18scalar_constant_opIdEENS_6MatrixIdLin1ELin1ELi0ELin1ELin1EEEE7functorEv, symObjAddr: 0xE0A0, symBinAddr: 0x100015FB0, symSize: 0x18 }
  - { offsetInCU: 0x94D53, offset: 0xA8743, size: 0x8, addend: 0x0, symName: __ZNK5Eigen14CwiseNullaryOpINS_8internal18scalar_constant_opIdEENS_6MatrixIdLin1ELin1ELi0ELin1ELin1EEEE4rowsEv, symObjAddr: 0xE0B8, symBinAddr: 0x100015FC8, symSize: 0x24 }
  - { offsetInCU: 0x94D79, offset: 0xA8769, size: 0x8, addend: 0x0, symName: __ZNK5Eigen14CwiseNullaryOpINS_8internal18scalar_constant_opIdEENS_6MatrixIdLin1ELin1ELi0ELin1ELin1EEEE4colsEv, symObjAddr: 0xE0DC, symBinAddr: 0x100015FEC, symSize: 0x28 }
  - { offsetInCU: 0x94D9F, offset: 0xA878F, size: 0x8, addend: 0x0, symName: __ZN5Eigen9DenseBaseINS_6MatrixIdLin1ELin1ELi0ELin1ELin1EEEE3colEl, symObjAddr: 0xE17C, symBinAddr: 0x10001608C, symSize: 0x3C }
  - { offsetInCU: 0x94F90, offset: 0xA8980, size: 0x8, addend: 0x0, symName: __ZN5Eigen8internal20generic_product_implINS_9TransposeIKNS_6MatrixIdLin1ELin1ELi0ELin1ELin1EEEEEKNS_5BlockIS5_Lin1ELi1ELb1EEENS_10DenseShapeESA_Li7EE13scaleAndAddToINS7_IS4_Lin1ELi1ELb1EEEEEvRT_RKS6_RS9_RKd, symObjAddr: 0xE1B8, symBinAddr: 0x1000160C8, symSize: 0x11C }
  - { offsetInCU: 0x951C7, offset: 0xA8BB7, size: 0x8, addend: 0x0, symName: __ZN5Eigen8internal20generic_product_implIKNS_5BlockIKNS_9TransposeIKNS_6MatrixIdLin1ELin1ELi0ELin1ELin1EEEEELi1ELin1ELb1EEES5_NS_10DenseShapeESB_Li7EE13scaleAndAddToINS2_IS5_Li1ELin1ELb0EEEEEvRT_RSA_RS6_RKd, symObjAddr: 0xE2D4, symBinAddr: 0x1000161E4, symSize: 0x110 }
  - { offsetInCU: 0x95260, offset: 0xA8C50, size: 0x8, addend: 0x0, symName: __ZN5Eigen8internal19gemm_blocking_spaceILi0EddLin1ELin1ELin1ELi1ELb0EEC1Ellllb, symObjAddr: 0xE3E4, symBinAddr: 0x1000162F4, symSize: 0x60 }
  - { offsetInCU: 0x952F8, offset: 0xA8CE8, size: 0x8, addend: 0x0, symName: __ZN5Eigen8internal12gemm_functorIdlNS0_29general_matrix_matrix_productIldLi1ELb0EdLi0ELb0ELi0ELi1EEENS_9TransposeIKNS_6MatrixIdLin1ELin1ELi0ELin1ELin1EEEEES6_S6_NS0_19gemm_blocking_spaceILi0EddLin1ELin1ELin1ELi1ELb0EEEEC1ERKS8_RS7_RS6_RKdRSA_, symObjAddr: 0xE4A8, symBinAddr: 0x1000163B8, symSize: 0x54 }
  - { offsetInCU: 0x95368, offset: 0xA8D58, size: 0x8, addend: 0x0, symName: __ZN5Eigen8internal19gemm_blocking_spaceILi0EddLin1ELin1ELin1ELi1ELb0EED1Ev, symObjAddr: 0xE4FC, symBinAddr: 0x10001640C, symSize: 0x2C }
  - { offsetInCU: 0x95392, offset: 0xA8D82, size: 0x8, addend: 0x0, symName: __ZN5Eigen5BlockINS_6MatrixIdLin1ELin1ELi0ELin1ELin1EEELin1ELi1ELb1EEC1ERS2_l, symObjAddr: 0xE528, symBinAddr: 0x100016438, symSize: 0x3C }
  - { offsetInCU: 0x953D8, offset: 0xA8DC8, size: 0x8, addend: 0x0, symName: __ZN5Eigen5BlockINS_6MatrixIdLin1ELin1ELi0ELin1ELin1EEELin1ELi1ELb1EEC2ERS2_l, symObjAddr: 0xE564, symBinAddr: 0x100016474, symSize: 0xAC }
  - { offsetInCU: 0x9541E, offset: 0xA8E0E, size: 0x8, addend: 0x0, symName: __ZN5Eigen9BlockImplINS_6MatrixIdLin1ELin1ELi0ELin1ELin1EEELin1ELi1ELb1ENS_5DenseEEC2ERS2_l, symObjAddr: 0xE610, symBinAddr: 0x100016520, symSize: 0x3C }
  - { offsetInCU: 0x95464, offset: 0xA8E54, size: 0x8, addend: 0x0, symName: __ZN5Eigen8internal15BlockImpl_denseINS_6MatrixIdLin1ELin1ELi0ELin1ELin1EEELin1ELi1ELb1ELb1EEC2ERS3_l, symObjAddr: 0xE64C, symBinAddr: 0x10001655C, symSize: 0xAC }
  - { offsetInCU: 0x954AC, offset: 0xA8E9C, size: 0x8, addend: 0x0, symName: __ZN5Eigen7MapBaseINS_5BlockINS_6MatrixIdLin1ELin1ELi0ELin1ELin1EEELin1ELi1ELb1EEELi1EEC2EPdll, symObjAddr: 0xE6F8, symBinAddr: 0x100016608, symSize: 0x44 }
  - { offsetInCU: 0x95503, offset: 0xA8EF3, size: 0x8, addend: 0x0, symName: __ZN5Eigen8internal15BlockImpl_denseINS_6MatrixIdLin1ELin1ELi0ELin1ELin1EEELin1ELi1ELb1ELb1EE4initEv, symObjAddr: 0xE73C, symBinAddr: 0x10001664C, symSize: 0x34 }
  - { offsetInCU: 0x95529, offset: 0xA8F19, size: 0x8, addend: 0x0, symName: __ZN5Eigen7MapBaseINS_5BlockINS_6MatrixIdLin1ELin1ELi0ELin1ELin1EEELin1ELi1ELb1EEELi0EEC2EPdll, symObjAddr: 0xE770, symBinAddr: 0x100016680, symSize: 0x11C }
  - { offsetInCU: 0x9557D, offset: 0xA8F6D, size: 0x8, addend: 0x0, symName: __ZN5Eigen10MatrixBaseINS_5BlockINS_6MatrixIdLin1ELin1ELi0ELin1ELin1EEELin1ELi1ELb1EEEEC2Ev, symObjAddr: 0xE88C, symBinAddr: 0x10001679C, symSize: 0x2C }
  - { offsetInCU: 0x955A7, offset: 0xA8F97, size: 0x8, addend: 0x0, symName: __ZNK5Eigen7MapBaseINS_5BlockINS_6MatrixIdLin1ELin1ELi0ELin1ELin1EEELin1ELi1ELb1EEELi0EE11checkSanityIS4_EEvNS_8internal9enable_ifIXeqsr8internal6traitsIT_EE9AlignmentLi0EEPvE4typeE, symObjAddr: 0xE8B8, symBinAddr: 0x1000167C8, symSize: 0x14 }
  - { offsetInCU: 0x955E1, offset: 0xA8FD1, size: 0x8, addend: 0x0, symName: __ZN5Eigen9DenseBaseINS_5BlockINS_6MatrixIdLin1ELin1ELi0ELin1ELin1EEELin1ELi1ELb1EEEEC2Ev, symObjAddr: 0xE8CC, symBinAddr: 0x1000167DC, symSize: 0x14 }
  - { offsetInCU: 0x9560B, offset: 0xA8FFB, size: 0x8, addend: 0x0, symName: __ZNK5Eigen9DenseBaseINS_5BlockIKNS_9TransposeIKNS_6MatrixIdLin1ELin1ELi0ELin1ELin1EEEEELi1ELin1ELb1EEEE9conjugateEv, symObjAddr: 0xE8E0, symBinAddr: 0x1000167F0, symSize: 0x24 }
  - { offsetInCU: 0x95631, offset: 0xA9021, size: 0x8, addend: 0x0, symName: __ZNK5Eigen10MatrixBaseINS_5BlockIKNS_9TransposeIKNS_6MatrixIdLin1ELin1ELi0ELin1ELin1EEEEELi1ELin1ELb1EEEE3dotINS1_IKNS1_IS5_Lin1ELi1ELb1EEELin1ELi1ELb1EEEEENS_20ScalarBinaryOpTraitsIdNS_8internal6traitsIT_E6ScalarENSF_17scalar_product_opIdSJ_EEE10ReturnTypeERKNS0_ISH_EE, symObjAddr: 0xE904, symBinAddr: 0x100016814, symSize: 0x80 }
  - { offsetInCU: 0x95670, offset: 0xA9060, size: 0x8, addend: 0x0, symName: __ZNK5Eigen9DenseBaseINS_5BlockIKNS_6MatrixIdLin1ELin1ELi0ELin1ELin1EEELin1ELi1ELb1EEEE3colEl, symObjAddr: 0xE984, symBinAddr: 0x100016894, symSize: 0x3C }
  - { offsetInCU: 0x956A5, offset: 0xA9095, size: 0x8, addend: 0x0, symName: __ZN5Eigen7MapBaseINS_5BlockINS_6MatrixIdLin1ELin1ELi0ELin1ELin1EEELin1ELi1ELb1EEELi1EE8coeffRefEll, symObjAddr: 0xE9C0, symBinAddr: 0x1000168D0, symSize: 0x78 }
  - { offsetInCU: 0x95878, offset: 0xA9268, size: 0x8, addend: 0x0, symName: __ZNK5Eigen9EigenBaseINS_5BlockIKNS_9TransposeIKNS_6MatrixIdLin1ELin1ELi0ELin1ELin1EEEEELi1ELin1ELb1EEEE4sizeEv, symObjAddr: 0xEEA4, symBinAddr: 0x100016DB4, symSize: 0x44 }
  - { offsetInCU: 0x9589E, offset: 0xA928E, size: 0x8, addend: 0x0, symName: __ZNK5Eigen9EigenBaseINS_5BlockIKNS1_IKNS_6MatrixIdLin1ELin1ELi0ELin1ELin1EEELin1ELi1ELb1EEELin1ELi1ELb1EEEE4sizeEv, symObjAddr: 0xEEE8, symBinAddr: 0x100016DF8, symSize: 0x44 }
  - { offsetInCU: 0x958C3, offset: 0xA92B3, size: 0x8, addend: 0x0, symName: __ZN5Eigen8internal11dot_nocheckINS_5BlockIKNS_9TransposeIKNS_6MatrixIdLin1ELin1ELi0ELin1ELin1EEEEELi1ELin1ELb1EEENS2_IKNS2_IS6_Lin1ELi1ELb1EEELin1ELi1ELb1EEELb1EE3runERKNS_10MatrixBaseIS9_EERKNSE_ISC_EE, symObjAddr: 0xEF2C, symBinAddr: 0x100016E3C, symSize: 0x78 }
  - { offsetInCU: 0x958F5, offset: 0xA92E5, size: 0x8, addend: 0x0, symName: __ZNK5Eigen9EigenBaseINS_5BlockIKNS_9TransposeIKNS_6MatrixIdLin1ELin1ELi0ELin1ELin1EEEEELi1ELin1ELb1EEEE4rowsEv, symObjAddr: 0xEFA4, symBinAddr: 0x100016EB4, symSize: 0x28 }
  - { offsetInCU: 0x9591B, offset: 0xA930B, size: 0x8, addend: 0x0, symName: __ZNK5Eigen9EigenBaseINS_5BlockIKNS_9TransposeIKNS_6MatrixIdLin1ELin1ELi0ELin1ELin1EEEEELi1ELin1ELb1EEEE4colsEv, symObjAddr: 0xEFCC, symBinAddr: 0x100016EDC, symSize: 0x28 }
  - { offsetInCU: 0x95941, offset: 0xA9331, size: 0x8, addend: 0x0, symName: __ZNK5Eigen9EigenBaseINS_5BlockIKNS1_IKNS_6MatrixIdLin1ELin1ELi0ELin1ELin1EEELin1ELi1ELb1EEELin1ELi1ELb1EEEE4rowsEv, symObjAddr: 0xEFF4, symBinAddr: 0x100016F04, symSize: 0x38 }
  - { offsetInCU: 0x95967, offset: 0xA9357, size: 0x8, addend: 0x0, symName: __ZNK5Eigen9EigenBaseINS_5BlockIKNS1_IKNS_6MatrixIdLin1ELin1ELi0ELin1ELin1EEELin1ELi1ELb1EEELin1ELi1ELb1EEEE4colsEv, symObjAddr: 0xF02C, symBinAddr: 0x100016F3C, symSize: 0x28 }
  - { offsetInCU: 0x9598D, offset: 0xA937D, size: 0x8, addend: 0x0, symName: __ZNK5Eigen9EigenBaseINS_5BlockIKNS1_IKNS_6MatrixIdLin1ELin1ELi0ELin1ELin1EEELin1ELi1ELb1EEELin1ELi1ELb1EEEE7derivedEv, symObjAddr: 0xF054, symBinAddr: 0x100016F64, symSize: 0x14 }
  - { offsetInCU: 0x959B3, offset: 0xA93A3, size: 0x8, addend: 0x0, symName: __ZNK5Eigen7MapBaseINS_5BlockIKNS1_IKNS_6MatrixIdLin1ELin1ELi0ELin1ELin1EEELin1ELi1ELb1EEELin1ELi1ELb1EEELi0EE4rowsEv, symObjAddr: 0xF068, symBinAddr: 0x100016F78, symSize: 0x28 }
  - { offsetInCU: 0x959D9, offset: 0xA93C9, size: 0x8, addend: 0x0, symName: __ZNK5Eigen7MapBaseINS_5BlockIKNS1_IKNS_6MatrixIdLin1ELin1ELi0ELin1ELin1EEELin1ELi1ELb1EEELin1ELi1ELb1EEELi0EE4colsEv, symObjAddr: 0xF090, symBinAddr: 0x100016FA0, symSize: 0x20 }
  - { offsetInCU: 0x959FF, offset: 0xA93EF, size: 0x8, addend: 0x0, symName: __ZNK5Eigen10MatrixBaseINS_9TransposeIKNS_5BlockIKNS1_IKNS_6MatrixIdLin1ELin1ELi0ELin1ELin1EEEEELi1ELin1ELb1EEEEEE10binaryExprINS_8internal22scalar_conj_product_opIddEENS2_IKNS2_IS5_Lin1ELi1ELb1EEELin1ELi1ELb1EEEEEKNS_13CwiseBinaryOpIT_KSA_KT0_EERKNS0_ISM_EERKSK_, symObjAddr: 0xF0B0, symBinAddr: 0x100016FC0, symSize: 0x54 }
  - { offsetInCU: 0x95A53, offset: 0xA9443, size: 0x8, addend: 0x0, symName: __ZN5Eigen8internal22scalar_conj_product_opIddEC1Ev, symObjAddr: 0xF104, symBinAddr: 0x100017014, symSize: 0x2C }
  - { offsetInCU: 0x95A7D, offset: 0xA946D, size: 0x8, addend: 0x0, symName: __ZNK5Eigen9DenseBaseINS_13CwiseBinaryOpINS_8internal22scalar_conj_product_opIddEEKNS_9TransposeIKNS_5BlockIKNS5_IKNS_6MatrixIdLin1ELin1ELi0ELin1ELin1EEEEELi1ELin1ELb1EEEEEKNS6_IKNS6_IS9_Lin1ELi1ELb1EEELin1ELi1ELb1EEEEEE3sumEv, symObjAddr: 0xF130, symBinAddr: 0x100017040, symSize: 0x74 }
  - { offsetInCU: 0x95AA6, offset: 0xA9496, size: 0x8, addend: 0x0, symName: __ZN5Eigen13CwiseBinaryOpINS_8internal22scalar_conj_product_opIddEEKNS_9TransposeIKNS_5BlockIKNS4_IKNS_6MatrixIdLin1ELin1ELi0ELin1ELin1EEEEELi1ELin1ELb1EEEEEKNS5_IKNS5_IS8_Lin1ELi1ELb1EEELin1ELi1ELb1EEEEC1ERSE_RSI_RKS3_, symObjAddr: 0xF1A4, symBinAddr: 0x1000170B4, symSize: 0x44 }
  - { offsetInCU: 0x95AFA, offset: 0xA94EA, size: 0x8, addend: 0x0, symName: __ZN5Eigen13CwiseBinaryOpINS_8internal22scalar_conj_product_opIddEEKNS_9TransposeIKNS_5BlockIKNS4_IKNS_6MatrixIdLin1ELin1ELi0ELin1ELin1EEEEELi1ELin1ELb1EEEEEKNS5_IKNS5_IS8_Lin1ELi1ELb1EEELin1ELi1ELb1EEEEC2ERSE_RSI_RKS3_, symObjAddr: 0xF1E8, symBinAddr: 0x1000170F8, symSize: 0x100 }
  - { offsetInCU: 0x95B53, offset: 0xA9543, size: 0x8, addend: 0x0, symName: __ZN5Eigen17CwiseBinaryOpImplINS_8internal22scalar_conj_product_opIddEEKNS_9TransposeIKNS_5BlockIKNS4_IKNS_6MatrixIdLin1ELin1ELi0ELin1ELin1EEEEELi1ELin1ELb1EEEEEKNS5_IKNS5_IS8_Lin1ELi1ELb1EEELin1ELi1ELb1EEENS_5DenseEEC2Ev, symObjAddr: 0xF2E8, symBinAddr: 0x1000171F8, symSize: 0x2C }
  - { offsetInCU: 0x95B7F, offset: 0xA956F, size: 0x8, addend: 0x0, symName: __ZN5Eigen8internal22scalar_conj_product_opIddEC1ERKS2_, symObjAddr: 0xF314, symBinAddr: 0x100017224, symSize: 0x34 }
  - { offsetInCU: 0x95BB4, offset: 0xA95A4, size: 0x8, addend: 0x0, symName: __ZN5Eigen10MatrixBaseINS_13CwiseBinaryOpINS_8internal22scalar_conj_product_opIddEEKNS_9TransposeIKNS_5BlockIKNS5_IKNS_6MatrixIdLin1ELin1ELi0ELin1ELin1EEEEELi1ELin1ELb1EEEEEKNS6_IKNS6_IS9_Lin1ELi1ELb1EEELin1ELi1ELb1EEEEEEC2Ev, symObjAddr: 0xF348, symBinAddr: 0x100017258, symSize: 0x2C }
  - { offsetInCU: 0x95BDE, offset: 0xA95CE, size: 0x8, addend: 0x0, symName: __ZN5Eigen9DenseBaseINS_13CwiseBinaryOpINS_8internal22scalar_conj_product_opIddEEKNS_9TransposeIKNS_5BlockIKNS5_IKNS_6MatrixIdLin1ELin1ELi0ELin1ELin1EEEEELi1ELin1ELb1EEEEEKNS6_IKNS6_IS9_Lin1ELi1ELb1EEELin1ELi1ELb1EEEEEEC2Ev, symObjAddr: 0xF374, symBinAddr: 0x100017284, symSize: 0x14 }
  - { offsetInCU: 0x95C08, offset: 0xA95F8, size: 0x8, addend: 0x0, symName: __ZN5Eigen8internal22scalar_conj_product_opIddEC2ERKS2_, symObjAddr: 0xF388, symBinAddr: 0x100017298, symSize: 0x18 }
  - { offsetInCU: 0x95C3D, offset: 0xA962D, size: 0x8, addend: 0x0, symName: __ZN5Eigen8internal22scalar_conj_product_opIddEC2Ev, symObjAddr: 0xF3A0, symBinAddr: 0x1000172B0, symSize: 0x14 }
  - { offsetInCU: 0x95C67, offset: 0xA9657, size: 0x8, addend: 0x0, symName: __ZNK5Eigen9EigenBaseINS_13CwiseBinaryOpINS_8internal22scalar_conj_product_opIddEEKNS_9TransposeIKNS_5BlockIKNS5_IKNS_6MatrixIdLin1ELin1ELi0ELin1ELin1EEEEELi1ELin1ELb1EEEEEKNS6_IKNS6_IS9_Lin1ELi1ELb1EEELin1ELi1ELb1EEEEEE4sizeEv, symObjAddr: 0xF3B4, symBinAddr: 0x1000172C4, symSize: 0x44 }
  - { offsetInCU: 0x95C8D, offset: 0xA967D, size: 0x8, addend: 0x0, symName: __ZNK5Eigen9EigenBaseINS_13CwiseBinaryOpINS_8internal22scalar_conj_product_opIddEEKNS_9TransposeIKNS_5BlockIKNS5_IKNS_6MatrixIdLin1ELin1ELi0ELin1ELin1EEEEELi1ELin1ELb1EEEEEKNS6_IKNS6_IS9_Lin1ELi1ELb1EEELin1ELi1ELb1EEEEEE7derivedEv, symObjAddr: 0xF3F8, symBinAddr: 0x100017308, symSize: 0x14 }
  - { offsetInCU: 0x95CB3, offset: 0xA96A3, size: 0x8, addend: 0x0, symName: __ZNK5Eigen9DenseBaseINS_13CwiseBinaryOpINS_8internal22scalar_conj_product_opIddEEKNS_9TransposeIKNS_5BlockIKNS5_IKNS_6MatrixIdLin1ELin1ELi0ELin1ELin1EEEEELi1ELin1ELb1EEEEEKNS6_IKNS6_IS9_Lin1ELi1ELb1EEELin1ELi1ELb1EEEEEE5reduxINS2_13scalar_sum_opIddEEEEdRKT_, symObjAddr: 0xF40C, symBinAddr: 0x10001731C, symSize: 0x10C }
  - { offsetInCU: 0x95D0F, offset: 0xA96FF, size: 0x8, addend: 0x0, symName: __ZNK5Eigen9EigenBaseINS_13CwiseBinaryOpINS_8internal22scalar_conj_product_opIddEEKNS_9TransposeIKNS_5BlockIKNS5_IKNS_6MatrixIdLin1ELin1ELi0ELin1ELin1EEEEELi1ELin1ELb1EEEEEKNS6_IKNS6_IS9_Lin1ELi1ELb1EEELin1ELi1ELb1EEEEEE4rowsEv, symObjAddr: 0xF518, symBinAddr: 0x100017428, symSize: 0x38 }
  - { offsetInCU: 0x95D35, offset: 0xA9725, size: 0x8, addend: 0x0, symName: __ZNK5Eigen9EigenBaseINS_13CwiseBinaryOpINS_8internal22scalar_conj_product_opIddEEKNS_9TransposeIKNS_5BlockIKNS5_IKNS_6MatrixIdLin1ELin1ELi0ELin1ELin1EEEEELi1ELin1ELb1EEEEEKNS6_IKNS6_IS9_Lin1ELi1ELb1EEELin1ELi1ELb1EEEEEE4colsEv, symObjAddr: 0xF550, symBinAddr: 0x100017460, symSize: 0x38 }
  - { offsetInCU: 0x95D5B, offset: 0xA974B, size: 0x8, addend: 0x0, symName: __ZNK5Eigen13CwiseBinaryOpINS_8internal22scalar_conj_product_opIddEEKNS_9TransposeIKNS_5BlockIKNS4_IKNS_6MatrixIdLin1ELin1ELi0ELin1ELin1EEEEELi1ELin1ELb1EEEEEKNS5_IKNS5_IS8_Lin1ELi1ELb1EEELin1ELi1ELb1EEEE4rowsEv, symObjAddr: 0xF588, symBinAddr: 0x100017498, symSize: 0x28 }
  - { offsetInCU: 0x95D81, offset: 0xA9771, size: 0x8, addend: 0x0, symName: __ZNK5Eigen13CwiseBinaryOpINS_8internal22scalar_conj_product_opIddEEKNS_9TransposeIKNS_5BlockIKNS4_IKNS_6MatrixIdLin1ELin1ELi0ELin1ELin1EEEEELi1ELin1ELb1EEEEEKNS5_IKNS5_IS8_Lin1ELi1ELb1EEELin1ELi1ELb1EEEE4colsEv, symObjAddr: 0xF5B0, symBinAddr: 0x1000174C0, symSize: 0x24 }
  - { offsetInCU: 0x95E29, offset: 0xA9819, size: 0x8, addend: 0x0, symName: __ZN5Eigen8internal15redux_evaluatorINS_13CwiseBinaryOpINS0_22scalar_conj_product_opIddEEKNS_9TransposeIKNS_5BlockIKNS5_IKNS_6MatrixIdLin1ELin1ELi0ELin1ELin1EEEEELi1ELin1ELb1EEEEEKNS6_IKNS6_IS9_Lin1ELi1ELb1EEELin1ELi1ELb1EEEEEEC1ERKSK_, symObjAddr: 0xF5D4, symBinAddr: 0x1000174E4, symSize: 0x34 }
  - { offsetInCU: 0x95E66, offset: 0xA9856, size: 0x8, addend: 0x0, symName: __ZN5Eigen8internal10redux_implINS0_13scalar_sum_opIddEENS0_15redux_evaluatorINS_13CwiseBinaryOpINS0_22scalar_conj_product_opIddEEKNS_9TransposeIKNS_5BlockIKNS8_IKNS_6MatrixIdLin1ELin1ELi0ELin1ELin1EEEEELi1ELin1ELb1EEEEEKNS9_IKNS9_ISC_Lin1ELi1ELb1EEELin1ELi1ELb1EEEEEEELi3ELi0EE3runISN_EEdRKSO_RKS3_RKT_, symObjAddr: 0xF608, symBinAddr: 0x100017518, symSize: 0x348 }
  - { offsetInCU: 0x95FE4, offset: 0xA99D4, size: 0x8, addend: 0x0, symName: __ZN5Eigen8internal15redux_evaluatorINS_13CwiseBinaryOpINS0_22scalar_conj_product_opIddEEKNS_9TransposeIKNS_5BlockIKNS5_IKNS_6MatrixIdLin1ELin1ELi0ELin1ELin1EEEEELi1ELin1ELb1EEEEEKNS6_IKNS6_IS9_Lin1ELi1ELb1EEELin1ELi1ELb1EEEEEED1Ev, symObjAddr: 0xF950, symBinAddr: 0x100017860, symSize: 0x2C }
  - { offsetInCU: 0x96011, offset: 0xA9A01, size: 0x8, addend: 0x0, symName: __ZN5Eigen8internal15redux_evaluatorINS_13CwiseBinaryOpINS0_22scalar_conj_product_opIddEEKNS_9TransposeIKNS_5BlockIKNS5_IKNS_6MatrixIdLin1ELin1ELi0ELin1ELin1EEEEELi1ELin1ELb1EEEEEKNS6_IKNS6_IS9_Lin1ELi1ELb1EEELin1ELi1ELb1EEEEEEC2ERKSK_, symObjAddr: 0xF97C, symBinAddr: 0x10001788C, symSize: 0x34 }
  - { offsetInCU: 0x9604A, offset: 0xA9A3A, size: 0x8, addend: 0x0, symName: __ZN5Eigen8internal9evaluatorINS_13CwiseBinaryOpINS0_22scalar_conj_product_opIddEEKNS_9TransposeIKNS_5BlockIKNS5_IKNS_6MatrixIdLin1ELin1ELi0ELin1ELin1EEEEELi1ELin1ELb1EEEEEKNS6_IKNS6_IS9_Lin1ELi1ELb1EEELin1ELi1ELb1EEEEEEC2ERKSK_, symObjAddr: 0xF9B0, symBinAddr: 0x1000178C0, symSize: 0x34 }
  - { offsetInCU: 0x96083, offset: 0xA9A73, size: 0x8, addend: 0x0, symName: __ZN5Eigen8internal16binary_evaluatorINS_13CwiseBinaryOpINS0_22scalar_conj_product_opIddEEKNS_9TransposeIKNS_5BlockIKNS5_IKNS_6MatrixIdLin1ELin1ELi0ELin1ELin1EEEEELi1ELin1ELb1EEEEEKNS6_IKNS6_IS9_Lin1ELi1ELb1EEELin1ELi1ELb1EEEEENS0_10IndexBasedESL_ddEC2ERKSK_, symObjAddr: 0xF9E4, symBinAddr: 0x1000178F4, symSize: 0x64 }
  - { offsetInCU: 0x960BC, offset: 0xA9AAC, size: 0x8, addend: 0x0, symName: __ZN5Eigen8internal14evaluator_baseINS_13CwiseBinaryOpINS0_22scalar_conj_product_opIddEEKNS_9TransposeIKNS_5BlockIKNS5_IKNS_6MatrixIdLin1ELin1ELi0ELin1ELin1EEEEELi1ELin1ELb1EEEEEKNS6_IKNS6_IS9_Lin1ELi1ELb1EEELin1ELi1ELb1EEEEEEC2Ev, symObjAddr: 0xFA48, symBinAddr: 0x100017958, symSize: 0x14 }
  - { offsetInCU: 0x960E6, offset: 0xA9AD6, size: 0x8, addend: 0x0, symName: __ZN5Eigen8internal16binary_evaluatorINS_13CwiseBinaryOpINS0_22scalar_conj_product_opIddEEKNS_9TransposeIKNS_5BlockIKNS5_IKNS_6MatrixIdLin1ELin1ELi0ELin1ELin1EEEEELi1ELin1ELb1EEEEEKNS6_IKNS6_IS9_Lin1ELi1ELb1EEELin1ELi1ELb1EEEEENS0_10IndexBasedESL_ddE4DataC1ERKSK_, symObjAddr: 0xFA5C, symBinAddr: 0x10001796C, symSize: 0x34 }
  - { offsetInCU: 0x9611F, offset: 0xA9B0F, size: 0x8, addend: 0x0, symName: __ZN5Eigen8internal14evaluator_baseINS_13CwiseBinaryOpINS0_22scalar_conj_product_opIddEEKNS_9TransposeIKNS_5BlockIKNS5_IKNS_6MatrixIdLin1ELin1ELi0ELin1ELin1EEEEELi1ELin1ELb1EEEEEKNS6_IKNS6_IS9_Lin1ELi1ELb1EEELin1ELi1ELb1EEEEEED2Ev, symObjAddr: 0xFA90, symBinAddr: 0x1000179A0, symSize: 0x14 }
  - { offsetInCU: 0x96149, offset: 0xA9B39, size: 0x8, addend: 0x0, symName: __ZN5Eigen8internal16binary_evaluatorINS_13CwiseBinaryOpINS0_22scalar_conj_product_opIddEEKNS_9TransposeIKNS_5BlockIKNS5_IKNS_6MatrixIdLin1ELin1ELi0ELin1ELin1EEEEELi1ELin1ELb1EEEEEKNS6_IKNS6_IS9_Lin1ELi1ELb1EEELin1ELi1ELb1EEEEENS0_10IndexBasedESL_ddE4DataC2ERKSK_, symObjAddr: 0xFAA4, symBinAddr: 0x1000179B4, symSize: 0xA8 }
  - { offsetInCU: 0x96182, offset: 0xA9B72, size: 0x8, addend: 0x0, symName: __ZNK5Eigen13CwiseBinaryOpINS_8internal22scalar_conj_product_opIddEEKNS_9TransposeIKNS_5BlockIKNS4_IKNS_6MatrixIdLin1ELin1ELi0ELin1ELin1EEEEELi1ELin1ELb1EEEEEKNS5_IKNS5_IS8_Lin1ELi1ELb1EEELin1ELi1ELb1EEEE7functorEv, symObjAddr: 0xFB4C, symBinAddr: 0x100017A5C, symSize: 0x18 }
  - { offsetInCU: 0x961A8, offset: 0xA9B98, size: 0x8, addend: 0x0, symName: __ZNK5Eigen13CwiseBinaryOpINS_8internal22scalar_conj_product_opIddEEKNS_9TransposeIKNS_5BlockIKNS4_IKNS_6MatrixIdLin1ELin1ELi0ELin1ELin1EEEEELi1ELin1ELb1EEEEEKNS5_IKNS5_IS8_Lin1ELi1ELb1EEELin1ELi1ELb1EEEE3lhsEv, symObjAddr: 0xFB64, symBinAddr: 0x100017A74, symSize: 0x14 }
  - { offsetInCU: 0x961CE, offset: 0xA9BBE, size: 0x8, addend: 0x0, symName: __ZNK5Eigen13CwiseBinaryOpINS_8internal22scalar_conj_product_opIddEEKNS_9TransposeIKNS_5BlockIKNS4_IKNS_6MatrixIdLin1ELin1ELi0ELin1ELin1EEEEELi1ELin1ELb1EEEEEKNS5_IKNS5_IS8_Lin1ELi1ELb1EEELin1ELi1ELb1EEEE3rhsEv, symObjAddr: 0xFB78, symBinAddr: 0x100017A88, symSize: 0x18 }
  - { offsetInCU: 0x961F4, offset: 0xA9BE4, size: 0x8, addend: 0x0, symName: __ZN5Eigen8internal9evaluatorIKNS_5BlockIKNS2_IKNS_6MatrixIdLin1ELin1ELi0ELin1ELin1EEELin1ELi1ELb1EEELin1ELi1ELb1EEEEC1ERS9_, symObjAddr: 0xFB90, symBinAddr: 0x100017AA0, symSize: 0x34 }
  - { offsetInCU: 0x9622C, offset: 0xA9C1C, size: 0x8, addend: 0x0, symName: __ZN5Eigen8internal9evaluatorIKNS_5BlockIKNS2_IKNS_6MatrixIdLin1ELin1ELi0ELin1ELin1EEELin1ELi1ELb1EEELin1ELi1ELb1EEEEC2ERS9_, symObjAddr: 0xFBC4, symBinAddr: 0x100017AD4, symSize: 0x34 }
  - { offsetInCU: 0x96264, offset: 0xA9C54, size: 0x8, addend: 0x0, symName: __ZN5Eigen8internal9evaluatorINS_5BlockIKNS2_IKNS_6MatrixIdLin1ELin1ELi0ELin1ELin1EEELin1ELi1ELb1EEELin1ELi1ELb1EEEEC2ERKS8_, symObjAddr: 0xFBF8, symBinAddr: 0x100017B08, symSize: 0x34 }
  - { offsetInCU: 0x9629D, offset: 0xA9C8D, size: 0x8, addend: 0x0, symName: __ZN5Eigen8internal15block_evaluatorIKNS_5BlockIKNS_6MatrixIdLin1ELin1ELi0ELin1ELin1EEELin1ELi1ELb1EEELin1ELi1ELb1ELb1EEC2ERKNS2_IS7_Lin1ELi1ELb1EEE, symObjAddr: 0xFC2C, symBinAddr: 0x100017B3C, symSize: 0xDC }
  - { offsetInCU: 0x962D6, offset: 0xA9CC6, size: 0x8, addend: 0x0, symName: __ZN5Eigen8internal17mapbase_evaluatorINS_5BlockIKNS2_IKNS_6MatrixIdLin1ELin1ELi0ELin1ELin1EEELin1ELi1ELb1EEELin1ELi1ELb1EEENS3_IdLin1ELi1ELi0ELin1ELi1EEEEC2ERKS8_, symObjAddr: 0xFD08, symBinAddr: 0x100017C18, symSize: 0xB0 }
  - { offsetInCU: 0x9630F, offset: 0xA9CFF, size: 0x8, addend: 0x0, symName: __ZNK5Eigen7MapBaseINS_5BlockIKNS1_IKNS_6MatrixIdLin1ELin1ELi0ELin1ELin1EEELin1ELi1ELb1EEELin1ELi1ELb1EEELi0EE4dataEv, symObjAddr: 0xFDB8, symBinAddr: 0x100017CC8, symSize: 0x18 }
  - { offsetInCU: 0x96335, offset: 0xA9D25, size: 0x8, addend: 0x0, symName: __ZN5Eigen8internal17mapbase_evaluatorINS_5BlockIKNS2_IKNS_6MatrixIdLin1ELin1ELi0ELin1ELin1EEELin1ELi1ELb1EEELin1ELi1ELb1EEENS3_IdLin1ELi1ELi0ELin1ELi1EEEED2Ev, symObjAddr: 0xFDD0, symBinAddr: 0x100017CE0, symSize: 0x2C }
  - { offsetInCU: 0x96362, offset: 0xA9D52, size: 0x8, addend: 0x0, symName: __ZN5Eigen8internal14evaluator_baseINS_5BlockIKNS2_IKNS_6MatrixIdLin1ELin1ELi0ELin1ELin1EEELin1ELi1ELb1EEELin1ELi1ELb1EEEEC2Ev, symObjAddr: 0xFDFC, symBinAddr: 0x100017D0C, symSize: 0x14 }
  - { offsetInCU: 0x9638C, offset: 0xA9D7C, size: 0x8, addend: 0x0, symName: __ZNK5Eigen8internal15BlockImpl_denseIKNS_5BlockIKNS_6MatrixIdLin1ELin1ELi0ELin1ELin1EEELin1ELi1ELb1EEELin1ELi1ELb1ELb1EE11innerStrideEv, symObjAddr: 0xFE10, symBinAddr: 0x100017D20, symSize: 0x28 }
  - { offsetInCU: 0x963B2, offset: 0xA9DA2, size: 0x8, addend: 0x0, symName: __ZNK5Eigen8internal15BlockImpl_denseIKNS_5BlockIKNS_6MatrixIdLin1ELin1ELi0ELin1ELin1EEELin1ELi1ELb1EEELin1ELi1ELb1ELb1EE11outerStrideEv, symObjAddr: 0xFE38, symBinAddr: 0x100017D48, symSize: 0x28 }
  - { offsetInCU: 0x963D8, offset: 0xA9DC8, size: 0x8, addend: 0x0, symName: __ZN5Eigen8internal14evaluator_baseINS_5BlockIKNS2_IKNS_6MatrixIdLin1ELin1ELi0ELin1ELin1EEELin1ELi1ELb1EEELin1ELi1ELb1EEEED2Ev, symObjAddr: 0xFE60, symBinAddr: 0x100017D70, symSize: 0x14 }
  - { offsetInCU: 0x96402, offset: 0xA9DF2, size: 0x8, addend: 0x0, symName: __ZNK5Eigen8internal16binary_evaluatorINS_13CwiseBinaryOpINS0_22scalar_conj_product_opIddEEKNS_9TransposeIKNS_5BlockIKNS5_IKNS_6MatrixIdLin1ELin1ELi0ELin1ELin1EEEEELi1ELin1ELb1EEEEEKNS6_IKNS6_IS9_Lin1ELi1ELb1EEELin1ELi1ELb1EEEEENS0_10IndexBasedESL_ddE6packetILi0E19__simd128_float64_tEET0_l, symObjAddr: 0xFE98, symBinAddr: 0x100017DA8, symSize: 0x70 }
  - { offsetInCU: 0x9644A, offset: 0xA9E3A, size: 0x8, addend: 0x0, symName: __ZNK5Eigen8internal16binary_evaluatorINS_13CwiseBinaryOpINS0_22scalar_conj_product_opIddEEKNS_9TransposeIKNS_5BlockIKNS5_IKNS_6MatrixIdLin1ELin1ELi0ELin1ELin1EEEEELi1ELin1ELb1EEEEEKNS6_IKNS6_IS9_Lin1ELi1ELb1EEELin1ELi1ELb1EEEEENS0_10IndexBasedESL_ddE5coeffEl, symObjAddr: 0xFF08, symBinAddr: 0x100017E18, symSize: 0x70 }
  - { offsetInCU: 0x9647F, offset: 0xA9E6F, size: 0x8, addend: 0x0, symName: __ZN5Eigen8internal18first_aligned_implILi16ENS_13CwiseBinaryOpINS0_22scalar_conj_product_opIddEEKNS_9TransposeIKNS_5BlockIKNS5_IKNS_6MatrixIdLin1ELin1ELi0ELin1ELin1EEEEELi1ELin1ELb1EEEEEKNS6_IKNS6_IS9_Lin1ELi1ELb1EEELin1ELi1ELb1EEEEELb1EE3runERKSK_, symObjAddr: 0xFFA0, symBinAddr: 0x100017EB0, symSize: 0x14 }
  - { offsetInCU: 0x964A0, offset: 0xA9E90, size: 0x8, addend: 0x0, symName: __ZNK5Eigen8internal16binary_evaluatorINS_13CwiseBinaryOpINS0_22scalar_conj_product_opIddEEKNS_9TransposeIKNS_5BlockIKNS5_IKNS_6MatrixIdLin1ELin1ELi0ELin1ELin1EEEEELi1ELin1ELb1EEEEEKNS6_IKNS6_IS9_Lin1ELi1ELb1EEELin1ELi1ELb1EEEEENS0_10IndexBasedESL_ddE4Data4funcEv, symObjAddr: 0xFFB4, symBinAddr: 0x100017EC4, symSize: 0x14 }
  - { offsetInCU: 0x964C6, offset: 0xA9EB6, size: 0x8, addend: 0x0, symName: __ZNK5Eigen8internal22scalar_conj_product_opIddE8packetOpI19__simd128_float64_tEET_RKS5_S7_, symObjAddr: 0xFFC8, symBinAddr: 0x100017ED8, symSize: 0x34 }
  - { offsetInCU: 0x96511, offset: 0xA9F01, size: 0x8, addend: 0x0, symName: __ZNK5Eigen8internal17mapbase_evaluatorINS_5BlockIKNS2_IKNS_6MatrixIdLin1ELin1ELi0ELin1ELin1EEELin1ELi1ELb1EEELin1ELi1ELb1EEENS3_IdLin1ELi1ELi0ELin1ELi1EEEE6packetILi0E19__simd128_float64_tEET0_l, symObjAddr: 0xFFFC, symBinAddr: 0x100017F0C, symSize: 0x54 }
  - { offsetInCU: 0x96583, offset: 0xA9F73, size: 0x8, addend: 0x0, symName: __ZNK5Eigen8internal11conj_helperI19__simd128_float64_tS2_Lb0ELb0EE4pmulERKS2_S5_, symObjAddr: 0x10050, symBinAddr: 0x100017F60, symSize: 0x4C }
  - { offsetInCU: 0x965CF, offset: 0xA9FBF, size: 0x8, addend: 0x0, symName: __ZNK5Eigen8internal7conj_ifILb0EE5pconjI19__simd128_float64_tEERKT_S7_, symObjAddr: 0x1009C, symBinAddr: 0x100017FAC, symSize: 0x18 }
  - { offsetInCU: 0x9660C, offset: 0xA9FFC, size: 0x8, addend: 0x0, symName: __ZNK5Eigen8internal22scalar_conj_product_opIddEclERKdS4_, symObjAddr: 0x100B4, symBinAddr: 0x100017FC4, symSize: 0x34 }
  - { offsetInCU: 0x9664E, offset: 0xAA03E, size: 0x8, addend: 0x0, symName: __ZNK5Eigen8internal17mapbase_evaluatorINS_5BlockIKNS2_IKNS_6MatrixIdLin1ELin1ELi0ELin1ELin1EEELin1ELi1ELb1EEELin1ELi1ELb1EEENS3_IdLin1ELi1ELi0ELin1ELi1EEEE5coeffEl, symObjAddr: 0x100E8, symBinAddr: 0x100017FF8, symSize: 0x48 }
  - { offsetInCU: 0x9668D, offset: 0xAA07D, size: 0x8, addend: 0x0, symName: __ZNK5Eigen8internal11conj_helperIddLb0ELb0EE4pmulERKdS4_, symObjAddr: 0x10130, symBinAddr: 0x100018040, symSize: 0x4C }
  - { offsetInCU: 0x966CF, offset: 0xAA0BF, size: 0x8, addend: 0x0, symName: __ZNK5Eigen8internal7conj_ifILb0EE5pconjIdEERKT_S6_, symObjAddr: 0x101A4, symBinAddr: 0x1000180B4, symSize: 0x18 }
  - { offsetInCU: 0x9670C, offset: 0xAA0FC, size: 0x8, addend: 0x0, symName: __ZN5Eigen8internal15redux_evaluatorINS_13CwiseBinaryOpINS0_22scalar_conj_product_opIddEEKNS_9TransposeIKNS_5BlockIKNS5_IKNS_6MatrixIdLin1ELin1ELi0ELin1ELin1EEEEELi1ELin1ELb1EEEEEKNS6_IKNS6_IS9_Lin1ELi1ELb1EEELin1ELi1ELb1EEEEEED2Ev, symObjAddr: 0x101BC, symBinAddr: 0x1000180CC, symSize: 0x2C }
  - { offsetInCU: 0x96739, offset: 0xAA129, size: 0x8, addend: 0x0, symName: __ZN5Eigen8internal9evaluatorINS_13CwiseBinaryOpINS0_22scalar_conj_product_opIddEEKNS_9TransposeIKNS_5BlockIKNS5_IKNS_6MatrixIdLin1ELin1ELi0ELin1ELin1EEEEELi1ELin1ELb1EEEEEKNS6_IKNS6_IS9_Lin1ELi1ELb1EEELin1ELi1ELb1EEEEEED2Ev, symObjAddr: 0x101E8, symBinAddr: 0x1000180F8, symSize: 0x2C }
  - { offsetInCU: 0x96766, offset: 0xAA156, size: 0x8, addend: 0x0, symName: __ZN5Eigen8internal16binary_evaluatorINS_13CwiseBinaryOpINS0_22scalar_conj_product_opIddEEKNS_9TransposeIKNS_5BlockIKNS5_IKNS_6MatrixIdLin1ELin1ELi0ELin1ELin1EEEEELi1ELin1ELb1EEEEEKNS6_IKNS6_IS9_Lin1ELi1ELb1EEELin1ELi1ELb1EEEEENS0_10IndexBasedESL_ddED2Ev, symObjAddr: 0x10214, symBinAddr: 0x100018124, symSize: 0x34 }
  - { offsetInCU: 0x96792, offset: 0xAA182, size: 0x8, addend: 0x0, symName: __ZN5Eigen8internal16binary_evaluatorINS_13CwiseBinaryOpINS0_22scalar_conj_product_opIddEEKNS_9TransposeIKNS_5BlockIKNS5_IKNS_6MatrixIdLin1ELin1ELi0ELin1ELin1EEEEELi1ELin1ELb1EEEEEKNS6_IKNS6_IS9_Lin1ELi1ELb1EEELin1ELi1ELb1EEEEENS0_10IndexBasedESL_ddE4DataD1Ev, symObjAddr: 0x10248, symBinAddr: 0x100018158, symSize: 0x2C }
  - { offsetInCU: 0x967BF, offset: 0xAA1AF, size: 0x8, addend: 0x0, symName: __ZN5Eigen8internal16binary_evaluatorINS_13CwiseBinaryOpINS0_22scalar_conj_product_opIddEEKNS_9TransposeIKNS_5BlockIKNS5_IKNS_6MatrixIdLin1ELin1ELi0ELin1ELin1EEEEELi1ELin1ELb1EEEEEKNS6_IKNS6_IS9_Lin1ELi1ELb1EEELin1ELi1ELb1EEEEENS0_10IndexBasedESL_ddE4DataD2Ev, symObjAddr: 0x10274, symBinAddr: 0x100018184, symSize: 0x3C }
  - { offsetInCU: 0x967EC, offset: 0xAA1DC, size: 0x8, addend: 0x0, symName: __ZN5Eigen8internal9evaluatorIKNS_5BlockIKNS2_IKNS_6MatrixIdLin1ELin1ELi0ELin1ELin1EEELin1ELi1ELb1EEELin1ELi1ELb1EEEED1Ev, symObjAddr: 0x102B0, symBinAddr: 0x1000181C0, symSize: 0x2C }
  - { offsetInCU: 0x96818, offset: 0xAA208, size: 0x8, addend: 0x0, symName: __ZN5Eigen8internal9evaluatorIKNS_5BlockIKNS2_IKNS_6MatrixIdLin1ELin1ELi0ELin1ELin1EEELin1ELi1ELb1EEELin1ELi1ELb1EEEED2Ev, symObjAddr: 0x102DC, symBinAddr: 0x1000181EC, symSize: 0x2C }
  - { offsetInCU: 0x96844, offset: 0xAA234, size: 0x8, addend: 0x0, symName: __ZN5Eigen8internal9evaluatorINS_5BlockIKNS2_IKNS_6MatrixIdLin1ELin1ELi0ELin1ELin1EEELin1ELi1ELb1EEELin1ELi1ELb1EEEED2Ev, symObjAddr: 0x10308, symBinAddr: 0x100018218, symSize: 0x2C }
  - { offsetInCU: 0x96871, offset: 0xAA261, size: 0x8, addend: 0x0, symName: __ZN5Eigen8internal15block_evaluatorIKNS_5BlockIKNS_6MatrixIdLin1ELin1ELi0ELin1ELin1EEELin1ELi1ELb1EEELin1ELi1ELb1ELb1EED2Ev, symObjAddr: 0x10334, symBinAddr: 0x100018244, symSize: 0x2C }
  - { offsetInCU: 0x9689E, offset: 0xAA28E, size: 0x8, addend: 0x0, symName: __ZN5Eigen5BlockIKNS0_IKNS_6MatrixIdLin1ELin1ELi0ELin1ELin1EEELin1ELi1ELb1EEELin1ELi1ELb1EEC1ERS5_l, symObjAddr: 0x10360, symBinAddr: 0x100018270, symSize: 0x3C }
  - { offsetInCU: 0x968E4, offset: 0xAA2D4, size: 0x8, addend: 0x0, symName: __ZN5Eigen5BlockIKNS0_IKNS_6MatrixIdLin1ELin1ELi0ELin1ELin1EEELin1ELi1ELb1EEELin1ELi1ELb1EEC2ERS5_l, symObjAddr: 0x1039C, symBinAddr: 0x1000182AC, symSize: 0xAC }
  - { offsetInCU: 0x9692A, offset: 0xAA31A, size: 0x8, addend: 0x0, symName: __ZN5Eigen9BlockImplIKNS_5BlockIKNS_6MatrixIdLin1ELin1ELi0ELin1ELin1EEELin1ELi1ELb1EEELin1ELi1ELb1ENS_5DenseEEC2ERS6_l, symObjAddr: 0x10448, symBinAddr: 0x100018358, symSize: 0x3C }
  - { offsetInCU: 0x96970, offset: 0xAA360, size: 0x8, addend: 0x0, symName: __ZN5Eigen8internal15BlockImpl_denseIKNS_5BlockIKNS_6MatrixIdLin1ELin1ELi0ELin1ELin1EEELin1ELi1ELb1EEELin1ELi1ELb1ELb1EEC2ERS7_l, symObjAddr: 0x10484, symBinAddr: 0x100018394, symSize: 0xB8 }
  - { offsetInCU: 0x969B8, offset: 0xAA3A8, size: 0x8, addend: 0x0, symName: __ZN5Eigen7MapBaseINS_5BlockIKNS1_IKNS_6MatrixIdLin1ELin1ELi0ELin1ELin1EEELin1ELi1ELb1EEELin1ELi1ELb1EEELi0EEC2EPKdll, symObjAddr: 0x1053C, symBinAddr: 0x10001844C, symSize: 0x11C }
  - { offsetInCU: 0x96A0C, offset: 0xAA3FC, size: 0x8, addend: 0x0, symName: __ZN5Eigen8internal19variable_if_dynamicIlLi0EEC1El, symObjAddr: 0x10658, symBinAddr: 0x100018568, symSize: 0x34 }
  - { offsetInCU: 0x96A44, offset: 0xAA434, size: 0x8, addend: 0x0, symName: __ZN5Eigen8internal15BlockImpl_denseIKNS_5BlockIKNS_6MatrixIdLin1ELin1ELi0ELin1ELin1EEELin1ELi1ELb1EEELin1ELi1ELb1ELb1EE4initEv, symObjAddr: 0x1068C, symBinAddr: 0x10001859C, symSize: 0x34 }
  - { offsetInCU: 0x96A6A, offset: 0xAA45A, size: 0x8, addend: 0x0, symName: __ZN5Eigen10MatrixBaseINS_5BlockIKNS1_IKNS_6MatrixIdLin1ELin1ELi0ELin1ELin1EEELin1ELi1ELb1EEELin1ELi1ELb1EEEEC2Ev, symObjAddr: 0x106C0, symBinAddr: 0x1000185D0, symSize: 0x2C }
  - { offsetInCU: 0x96A94, offset: 0xAA484, size: 0x8, addend: 0x0, symName: __ZNK5Eigen7MapBaseINS_5BlockIKNS1_IKNS_6MatrixIdLin1ELin1ELi0ELin1ELin1EEELin1ELi1ELb1EEELin1ELi1ELb1EEELi0EE11checkSanityIS7_EEvNS_8internal9enable_ifIXeqsr8internal6traitsIT_EE9AlignmentLi0EEPvE4typeE, symObjAddr: 0x106EC, symBinAddr: 0x1000185FC, symSize: 0x14 }
  - { offsetInCU: 0x96ACE, offset: 0xAA4BE, size: 0x8, addend: 0x0, symName: __ZN5Eigen9DenseBaseINS_5BlockIKNS1_IKNS_6MatrixIdLin1ELin1ELi0ELin1ELin1EEELin1ELi1ELb1EEELin1ELi1ELb1EEEEC2Ev, symObjAddr: 0x10700, symBinAddr: 0x100018610, symSize: 0x14 }
  - { offsetInCU: 0x96AF8, offset: 0xAA4E8, size: 0x8, addend: 0x0, symName: __ZN5Eigen8internal19variable_if_dynamicIlLi0EEC2El, symObjAddr: 0x10714, symBinAddr: 0x100018624, symSize: 0x64 }
  - { offsetInCU: 0x96B30, offset: 0xAA520, size: 0x8, addend: 0x0, symName: __ZNK5Eigen15DenseCoeffsBaseINS_5BlockINS_6MatrixIdLin1ELin1ELi0ELin1ELin1EEELin1ELi1ELb1EEELi3EE9colStrideEv, symObjAddr: 0x10778, symBinAddr: 0x100018688, symSize: 0x24 }
  - { offsetInCU: 0x96B56, offset: 0xAA546, size: 0x8, addend: 0x0, symName: __ZNK5Eigen15DenseCoeffsBaseINS_5BlockINS_6MatrixIdLin1ELin1ELi0ELin1ELin1EEELin1ELi1ELb1EEELi3EE9rowStrideEv, symObjAddr: 0x1079C, symBinAddr: 0x1000186AC, symSize: 0x24 }
  - { offsetInCU: 0x96B7C, offset: 0xAA56C, size: 0x8, addend: 0x0, symName: __ZNK5Eigen15DenseCoeffsBaseINS_5BlockINS_6MatrixIdLin1ELin1ELi0ELin1ELin1EEELin1ELi1ELb1EEELi3EE11outerStrideEv, symObjAddr: 0x107C0, symBinAddr: 0x1000186D0, symSize: 0x38 }
  - { offsetInCU: 0x96BA2, offset: 0xAA592, size: 0x8, addend: 0x0, symName: __ZNK5Eigen9EigenBaseINS_5BlockINS_6MatrixIdLin1ELin1ELi0ELin1ELin1EEELin1ELi1ELb1EEEE7derivedEv, symObjAddr: 0x107F8, symBinAddr: 0x100018708, symSize: 0x14 }
  - { offsetInCU: 0x96BC8, offset: 0xAA5B8, size: 0x8, addend: 0x0, symName: __ZNK5Eigen8internal15BlockImpl_denseINS_6MatrixIdLin1ELin1ELi0ELin1ELin1EEELin1ELi1ELb1ELb1EE11outerStrideEv, symObjAddr: 0x1080C, symBinAddr: 0x10001871C, symSize: 0x28 }
  - { offsetInCU: 0x96BEE, offset: 0xAA5DE, size: 0x8, addend: 0x0, symName: __ZNK5Eigen15DenseCoeffsBaseINS_5BlockINS_6MatrixIdLin1ELin1ELi0ELin1ELin1EEELin1ELi1ELb1EEELi3EE11innerStrideEv, symObjAddr: 0x10834, symBinAddr: 0x100018744, symSize: 0x28 }
  - { offsetInCU: 0x96C14, offset: 0xAA604, size: 0x8, addend: 0x0, symName: __ZNK5Eigen8internal15BlockImpl_denseINS_6MatrixIdLin1ELin1ELi0ELin1ELin1EEELin1ELi1ELb1ELb1EE11innerStrideEv, symObjAddr: 0x1085C, symBinAddr: 0x10001876C, symSize: 0x28 }
  - { offsetInCU: 0x96C3A, offset: 0xAA62A, size: 0x8, addend: 0x0, symName: __ZN5Eigen8internal11blas_traitsINS_5BlockIKNS_6MatrixIdLin1ELin1ELi0ELin1ELin1EEELin1ELi1ELb1EEEE7extractERKS6_, symObjAddr: 0x10884, symBinAddr: 0x100018794, symSize: 0x14 }
  - { offsetInCU: 0x96C72, offset: 0xAA662, size: 0x8, addend: 0x0, symName: __ZN5Eigen8internal28aligned_stack_memory_handlerIdEC1EPdmb, symObjAddr: 0x10898, symBinAddr: 0x1000187A8, symSize: 0x50 }
  - { offsetInCU: 0x96DB1, offset: 0xAA7A1, size: 0x8, addend: 0x0, symName: __ZN5Eigen7MapBaseINS_5BlockINS_6MatrixIdLin1ELin1ELi0ELin1ELin1EEELin1ELi1ELb1EEELi1EE4dataEv, symObjAddr: 0x1208C, symBinAddr: 0x100019F9C, symSize: 0x18 }
  - { offsetInCU: 0x96DD7, offset: 0xAA7C7, size: 0x8, addend: 0x0, symName: __ZN5Eigen9DenseBaseINS_5BlockINS_6MatrixIdLin1ELin1ELi0ELin1ELin1EEELin1ELi1ELb1EEEE3colEl, symObjAddr: 0x120A4, symBinAddr: 0x100019FB4, symSize: 0x3C }
  - { offsetInCU: 0x96E0C, offset: 0xAA7FC, size: 0x8, addend: 0x0, symName: __ZNK5Eigen8internal15BlockImpl_denseINS_5BlockINS_6MatrixIdLin1ELin1ELi0ELin1ELin1EEELin1ELi1ELb1EEELin1ELi1ELb1ELb1EE11innerStrideEv, symObjAddr: 0x120E0, symBinAddr: 0x100019FF0, symSize: 0x28 }
  - { offsetInCU: 0x96E32, offset: 0xAA822, size: 0x8, addend: 0x0, symName: __ZN5Eigen8internal28aligned_stack_memory_handlerIdED1Ev, symObjAddr: 0x12108, symBinAddr: 0x10001A018, symSize: 0x2C }
  - { offsetInCU: 0x96E5C, offset: 0xAA84C, size: 0x8, addend: 0x0, symName: __ZN5Eigen8internal11blas_traitsINS_5BlockIKNS_6MatrixIdLin1ELin1ELi0ELin1ELin1EEELin1ELi1ELb1EEEE19extractScalarFactorERKS6_, symObjAddr: 0x12134, symBinAddr: 0x10001A044, symSize: 0x14 }
  - { offsetInCU: 0x96E7D, offset: 0xAA86D, size: 0x8, addend: 0x0, symName: __ZN5Eigen8internal28aligned_stack_memory_handlerIdEC2EPdmb, symObjAddr: 0x12148, symBinAddr: 0x10001A058, symSize: 0x5C }
  - { offsetInCU: 0x96ED4, offset: 0xAA8C4, size: 0x8, addend: 0x0, symName: __ZN5Eigen8internal11noncopyableC2Ev, symObjAddr: 0x121A4, symBinAddr: 0x10001A0B4, symSize: 0x14 }
  - { offsetInCU: 0x96EFE, offset: 0xAA8EE, size: 0x8, addend: 0x0, symName: __ZNK5Eigen8internal16blas_data_mapperIKdlLi1ELi0ELi1EE6strideEv, symObjAddr: 0x121B8, symBinAddr: 0x10001A0C8, symSize: 0x18 }
  - { offsetInCU: 0x96F24, offset: 0xAA914, size: 0x8, addend: 0x0, symName: __ZNK5Eigen8internal11conj_helperI19__simd128_float64_tS2_Lb0ELb0EE5pmaddERKS2_S5_S5_, symObjAddr: 0x12214, symBinAddr: 0x10001A124, symSize: 0x54 }
  - { offsetInCU: 0x96F74, offset: 0xAA964, size: 0x8, addend: 0x0, symName: __ZN5Eigen9EigenBaseINS_5BlockINS_6MatrixIdLin1ELin1ELi0ELin1ELin1EEELin1ELi1ELb1EEEE7derivedEv, symObjAddr: 0x122BC, symBinAddr: 0x10001A1CC, symSize: 0x14 }
  - { offsetInCU: 0x96F9A, offset: 0xAA98A, size: 0x8, addend: 0x0, symName: __ZN5Eigen5BlockINS0_INS_6MatrixIdLin1ELin1ELi0ELin1ELin1EEELin1ELi1ELb1EEELin1ELi1ELb1EEC1ERS3_l, symObjAddr: 0x122D0, symBinAddr: 0x10001A1E0, symSize: 0x3C }
  - { offsetInCU: 0x96FE0, offset: 0xAA9D0, size: 0x8, addend: 0x0, symName: __ZN5Eigen5BlockINS0_INS_6MatrixIdLin1ELin1ELi0ELin1ELin1EEELin1ELi1ELb1EEELin1ELi1ELb1EEC2ERS3_l, symObjAddr: 0x1230C, symBinAddr: 0x10001A21C, symSize: 0xAC }
  - { offsetInCU: 0x97026, offset: 0xAAA16, size: 0x8, addend: 0x0, symName: __ZN5Eigen9BlockImplINS_5BlockINS_6MatrixIdLin1ELin1ELi0ELin1ELin1EEELin1ELi1ELb1EEELin1ELi1ELb1ENS_5DenseEEC2ERS4_l, symObjAddr: 0x123B8, symBinAddr: 0x10001A2C8, symSize: 0x3C }
  - { offsetInCU: 0x9706C, offset: 0xAAA5C, size: 0x8, addend: 0x0, symName: __ZNK5Eigen7MapBaseINS_5BlockINS_6MatrixIdLin1ELin1ELi0ELin1ELin1EEELin1ELi1ELb1EEELi0EE4colsEv, symObjAddr: 0x123F4, symBinAddr: 0x10001A304, symSize: 0x20 }
  - { offsetInCU: 0x97092, offset: 0xAAA82, size: 0x8, addend: 0x0, symName: __ZN5Eigen8internal15BlockImpl_denseINS_5BlockINS_6MatrixIdLin1ELin1ELi0ELin1ELin1EEELin1ELi1ELb1EEELin1ELi1ELb1ELb1EEC2ERS5_l, symObjAddr: 0x12414, symBinAddr: 0x10001A324, symSize: 0xB8 }
  - { offsetInCU: 0x970DA, offset: 0xAAACA, size: 0x8, addend: 0x0, symName: __ZNK5Eigen7MapBaseINS_5BlockINS_6MatrixIdLin1ELin1ELi0ELin1ELin1EEELin1ELi1ELb1EEELi0EE4rowsEv, symObjAddr: 0x124CC, symBinAddr: 0x10001A3DC, symSize: 0x28 }
  - { offsetInCU: 0x97100, offset: 0xAAAF0, size: 0x8, addend: 0x0, symName: __ZN5Eigen7MapBaseINS_5BlockINS1_INS_6MatrixIdLin1ELin1ELi0ELin1ELin1EEELin1ELi1ELb1EEELin1ELi1ELb1EEELi1EEC2EPdll, symObjAddr: 0x124F4, symBinAddr: 0x10001A404, symSize: 0x44 }
  - { offsetInCU: 0x97157, offset: 0xAAB47, size: 0x8, addend: 0x0, symName: __ZN5Eigen8internal15BlockImpl_denseINS_5BlockINS_6MatrixIdLin1ELin1ELi0ELin1ELin1EEELin1ELi1ELb1EEELin1ELi1ELb1ELb1EE4initEv, symObjAddr: 0x12538, symBinAddr: 0x10001A448, symSize: 0x34 }
  - { offsetInCU: 0x9717D, offset: 0xAAB6D, size: 0x8, addend: 0x0, symName: __ZN5Eigen7MapBaseINS_5BlockINS1_INS_6MatrixIdLin1ELin1ELi0ELin1ELin1EEELin1ELi1ELb1EEELin1ELi1ELb1EEELi0EEC2EPdll, symObjAddr: 0x1256C, symBinAddr: 0x10001A47C, symSize: 0x11C }
  - { offsetInCU: 0x971D1, offset: 0xAABC1, size: 0x8, addend: 0x0, symName: __ZN5Eigen10MatrixBaseINS_5BlockINS1_INS_6MatrixIdLin1ELin1ELi0ELin1ELin1EEELin1ELi1ELb1EEELin1ELi1ELb1EEEEC2Ev, symObjAddr: 0x12688, symBinAddr: 0x10001A598, symSize: 0x2C }
  - { offsetInCU: 0x971FB, offset: 0xAABEB, size: 0x8, addend: 0x0, symName: __ZNK5Eigen7MapBaseINS_5BlockINS1_INS_6MatrixIdLin1ELin1ELi0ELin1ELin1EEELin1ELi1ELb1EEELin1ELi1ELb1EEELi0EE11checkSanityIS5_EEvNS_8internal9enable_ifIXeqsr8internal6traitsIT_EE9AlignmentLi0EEPvE4typeE, symObjAddr: 0x126B4, symBinAddr: 0x10001A5C4, symSize: 0x14 }
  - { offsetInCU: 0x97235, offset: 0xAAC25, size: 0x8, addend: 0x0, symName: __ZN5Eigen9DenseBaseINS_5BlockINS1_INS_6MatrixIdLin1ELin1ELi0ELin1ELin1EEELin1ELi1ELb1EEELin1ELi1ELb1EEEEC2Ev, symObjAddr: 0x126C8, symBinAddr: 0x10001A5D8, symSize: 0x14 }
  - { offsetInCU: 0x9725F, offset: 0xAAC4F, size: 0x8, addend: 0x0, symName: __ZN5Eigen8internal28aligned_stack_memory_handlerIdED2Ev, symObjAddr: 0x126DC, symBinAddr: 0x10001A5EC, symSize: 0x5C }
  - { offsetInCU: 0x97289, offset: 0xAAC79, size: 0x8, addend: 0x0, symName: __ZN5Eigen8internal11noncopyableD2Ev, symObjAddr: 0x12738, symBinAddr: 0x10001A648, symSize: 0x14 }
  - { offsetInCU: 0x972B3, offset: 0xAACA3, size: 0x8, addend: 0x0, symName: __ZNK5Eigen9DenseBaseINS_5BlockIKNS_9TransposeIKNS_6MatrixIdLin1ELin1ELi0ELin1ELin1EEEEELi1ELin1ELb1EEEE3rowEl, symObjAddr: 0x1274C, symBinAddr: 0x10001A65C, symSize: 0x3C }
  - { offsetInCU: 0x972E8, offset: 0xAACD8, size: 0x8, addend: 0x0, symName: __ZNK5Eigen9DenseBaseINS_5BlockIKNS1_IKNS_9TransposeIKNS_6MatrixIdLin1ELin1ELi0ELin1ELin1EEEEELi1ELin1ELb1EEELi1ELin1ELb1EEEE9conjugateEv, symObjAddr: 0x12788, symBinAddr: 0x10001A698, symSize: 0x24 }
  - { offsetInCU: 0x9730E, offset: 0xAACFE, size: 0x8, addend: 0x0, symName: __ZNK5Eigen10MatrixBaseINS_5BlockIKNS1_IKNS_9TransposeIKNS_6MatrixIdLin1ELin1ELi0ELin1ELin1EEEEELi1ELin1ELb1EEELi1ELin1ELb1EEEE3dotINS1_IS5_Lin1ELi1ELb1EEEEENS_20ScalarBinaryOpTraitsIdNS_8internal6traitsIT_E6ScalarENSF_17scalar_product_opIdSJ_EEE10ReturnTypeERKNS0_ISH_EE, symObjAddr: 0x127AC, symBinAddr: 0x10001A6BC, symSize: 0x80 }
  - { offsetInCU: 0x9734D, offset: 0xAAD3D, size: 0x8, addend: 0x0, symName: __ZN5Eigen7MapBaseINS_5BlockINS_6MatrixIdLin1ELin1ELi0ELin1ELin1EEELi1ELin1ELb0EEELi1EE8coeffRefEll, symObjAddr: 0x1282C, symBinAddr: 0x10001A73C, symSize: 0x78 }
  - { offsetInCU: 0x9739A, offset: 0xAAD8A, size: 0x8, addend: 0x0, symName: __ZN5Eigen8internal19gemv_dense_selectorILi1ELi0ELb1EE3runINS_5BlockIKNS_9TransposeIKNS_6MatrixIdLin1ELin1ELi0ELin1ELin1EEEEELi1ELin1ELb1EEES7_NS4_IS7_Li1ELin1ELb0EEEEEvRKT_RKT0_RT1_RKNSJ_6ScalarE, symObjAddr: 0x128A4, symBinAddr: 0x10001A7B4, symSize: 0x70 }
  - { offsetInCU: 0x97412, offset: 0xAAE02, size: 0x8, addend: 0x0, symName: __ZN5Eigen5BlockIKNS0_IKNS_9TransposeIKNS_6MatrixIdLin1ELin1ELi0ELin1ELin1EEEEELi1ELin1ELb1EEELi1ELin1ELb1EEC1ERS8_l, symObjAddr: 0x12914, symBinAddr: 0x10001A824, symSize: 0x3C }
  - { offsetInCU: 0x97458, offset: 0xAAE48, size: 0x8, addend: 0x0, symName: __ZN5Eigen5BlockIKNS0_IKNS_9TransposeIKNS_6MatrixIdLin1ELin1ELi0ELin1ELin1EEEEELi1ELin1ELb1EEELi1ELin1ELb1EEC2ERS8_l, symObjAddr: 0x12950, symBinAddr: 0x10001A860, symSize: 0xCC }
  - { offsetInCU: 0x9749E, offset: 0xAAE8E, size: 0x8, addend: 0x0, symName: __ZN5Eigen9BlockImplIKNS_5BlockIKNS_9TransposeIKNS_6MatrixIdLin1ELin1ELi0ELin1ELin1EEEEELi1ELin1ELb1EEELi1ELin1ELb1ENS_5DenseEEC2ERS9_l, symObjAddr: 0x12A1C, symBinAddr: 0x10001A92C, symSize: 0x3C }
  - { offsetInCU: 0x974E4, offset: 0xAAED4, size: 0x8, addend: 0x0, symName: __ZN5Eigen8internal15BlockImpl_denseIKNS_5BlockIKNS_9TransposeIKNS_6MatrixIdLin1ELin1ELi0ELin1ELin1EEEEELi1ELin1ELb1EEELi1ELin1ELb1ELb1EEC2ERSA_l, symObjAddr: 0x12A58, symBinAddr: 0x10001A968, symSize: 0xB8 }
  - { offsetInCU: 0x9752C, offset: 0xAAF1C, size: 0x8, addend: 0x0, symName: __ZN5Eigen7MapBaseINS_5BlockIKNS1_IKNS_9TransposeIKNS_6MatrixIdLin1ELin1ELi0ELin1ELin1EEEEELi1ELin1ELb1EEELi1ELin1ELb1EEELi0EEC2EPKdll, symObjAddr: 0x12B10, symBinAddr: 0x10001AA20, symSize: 0x130 }
  - { offsetInCU: 0x97580, offset: 0xAAF70, size: 0x8, addend: 0x0, symName: __ZN5Eigen8internal15BlockImpl_denseIKNS_5BlockIKNS_9TransposeIKNS_6MatrixIdLin1ELin1ELi0ELin1ELin1EEEEELi1ELin1ELb1EEELi1ELin1ELb1ELb1EE4initEv, symObjAddr: 0x12C40, symBinAddr: 0x10001AB50, symSize: 0x34 }
  - { offsetInCU: 0x975A6, offset: 0xAAF96, size: 0x8, addend: 0x0, symName: __ZN5Eigen10MatrixBaseINS_5BlockIKNS1_IKNS_9TransposeIKNS_6MatrixIdLin1ELin1ELi0ELin1ELin1EEEEELi1ELin1ELb1EEELi1ELin1ELb1EEEEC2Ev, symObjAddr: 0x12C74, symBinAddr: 0x10001AB84, symSize: 0x2C }
  - { offsetInCU: 0x975D0, offset: 0xAAFC0, size: 0x8, addend: 0x0, symName: __ZNK5Eigen7MapBaseINS_5BlockIKNS1_IKNS_9TransposeIKNS_6MatrixIdLin1ELin1ELi0ELin1ELin1EEEEELi1ELin1ELb1EEELi1ELin1ELb1EEELi0EE11checkSanityISA_EEvNS_8internal9enable_ifIXeqsr8internal6traitsIT_EE9AlignmentLi0EEPvE4typeE, symObjAddr: 0x12CA0, symBinAddr: 0x10001ABB0, symSize: 0x14 }
  - { offsetInCU: 0x9760A, offset: 0xAAFFA, size: 0x8, addend: 0x0, symName: __ZN5Eigen9DenseBaseINS_5BlockIKNS1_IKNS_9TransposeIKNS_6MatrixIdLin1ELin1ELi0ELin1ELin1EEEEELi1ELin1ELb1EEELi1ELin1ELb1EEEEC2Ev, symObjAddr: 0x12CB4, symBinAddr: 0x10001ABC4, symSize: 0x14 }
  - { offsetInCU: 0x97634, offset: 0xAB024, size: 0x8, addend: 0x0, symName: __ZNK5Eigen9EigenBaseINS_5BlockIKNS1_IKNS_9TransposeIKNS_6MatrixIdLin1ELin1ELi0ELin1ELin1EEEEELi1ELin1ELb1EEELi1ELin1ELb1EEEE7derivedEv, symObjAddr: 0x12CC8, symBinAddr: 0x10001ABD8, symSize: 0x14 }
  - { offsetInCU: 0x9765A, offset: 0xAB04A, size: 0x8, addend: 0x0, symName: __ZNK5Eigen9EigenBaseINS_5BlockIKNS1_IKNS_9TransposeIKNS_6MatrixIdLin1ELin1ELi0ELin1ELin1EEEEELi1ELin1ELb1EEELi1ELin1ELb1EEEE4sizeEv, symObjAddr: 0x12CDC, symBinAddr: 0x10001ABEC, symSize: 0x44 }
  - { offsetInCU: 0x9767F, offset: 0xAB06F, size: 0x8, addend: 0x0, symName: __ZN5Eigen8internal11dot_nocheckINS_5BlockIKNS2_IKNS_9TransposeIKNS_6MatrixIdLin1ELin1ELi0ELin1ELin1EEEEELi1ELin1ELb1EEELi1ELin1ELb1EEENS2_IS6_Lin1ELi1ELb1EEELb1EE3runERKNS_10MatrixBaseISB_EERKNSE_ISC_EE, symObjAddr: 0x12D20, symBinAddr: 0x10001AC30, symSize: 0x78 }
  - { offsetInCU: 0x976B1, offset: 0xAB0A1, size: 0x8, addend: 0x0, symName: __ZNK5Eigen9EigenBaseINS_5BlockIKNS1_IKNS_9TransposeIKNS_6MatrixIdLin1ELin1ELi0ELin1ELin1EEEEELi1ELin1ELb1EEELi1ELin1ELb1EEEE4rowsEv, symObjAddr: 0x12D98, symBinAddr: 0x10001ACA8, symSize: 0x28 }
  - { offsetInCU: 0x976D7, offset: 0xAB0C7, size: 0x8, addend: 0x0, symName: __ZNK5Eigen9EigenBaseINS_5BlockIKNS1_IKNS_9TransposeIKNS_6MatrixIdLin1ELin1ELi0ELin1ELin1EEEEELi1ELin1ELb1EEELi1ELin1ELb1EEEE4colsEv, symObjAddr: 0x12DC0, symBinAddr: 0x10001ACD0, symSize: 0x28 }
  - { offsetInCU: 0x976FD, offset: 0xAB0ED, size: 0x8, addend: 0x0, symName: __ZNK5Eigen7MapBaseINS_5BlockIKNS1_IKNS_9TransposeIKNS_6MatrixIdLin1ELin1ELi0ELin1ELin1EEEEELi1ELin1ELb1EEELi1ELin1ELb1EEELi0EE4rowsEv, symObjAddr: 0x12DE8, symBinAddr: 0x10001ACF8, symSize: 0x20 }
  - { offsetInCU: 0x97723, offset: 0xAB113, size: 0x8, addend: 0x0, symName: __ZNK5Eigen7MapBaseINS_5BlockIKNS1_IKNS_9TransposeIKNS_6MatrixIdLin1ELin1ELi0ELin1ELin1EEEEELi1ELin1ELb1EEELi1ELin1ELb1EEELi0EE4colsEv, symObjAddr: 0x12E08, symBinAddr: 0x10001AD18, symSize: 0x28 }
  - { offsetInCU: 0x97749, offset: 0xAB139, size: 0x8, addend: 0x0, symName: __ZNK5Eigen9DenseBaseINS_5BlockIKNS1_IKNS_9TransposeIKNS_6MatrixIdLin1ELin1ELi0ELin1ELin1EEEEELi1ELin1ELb1EEELi1ELin1ELb1EEEE9transposeEv, symObjAddr: 0x12E30, symBinAddr: 0x10001AD40, symSize: 0x34 }
  - { offsetInCU: 0x97771, offset: 0xAB161, size: 0x8, addend: 0x0, symName: __ZNK5Eigen10MatrixBaseINS_9TransposeIKNS_5BlockIKNS2_IKNS1_IKNS_6MatrixIdLin1ELin1ELi0ELin1ELin1EEEEELi1ELin1ELb1EEELi1ELin1ELb1EEEEEE10binaryExprINS_8internal22scalar_conj_product_opIddEENS2_IS5_Lin1ELi1ELb1EEEEEKNS_13CwiseBinaryOpIT_KSC_KT0_EERKNS0_ISM_EERKSK_, symObjAddr: 0x12E64, symBinAddr: 0x10001AD74, symSize: 0x54 }
  - { offsetInCU: 0x977C5, offset: 0xAB1B5, size: 0x8, addend: 0x0, symName: __ZNK5Eigen9DenseBaseINS_13CwiseBinaryOpINS_8internal22scalar_conj_product_opIddEEKNS_9TransposeIKNS_5BlockIKNS6_IKNS5_IKNS_6MatrixIdLin1ELin1ELi0ELin1ELin1EEEEELi1ELin1ELb1EEELi1ELin1ELb1EEEEEKNS6_IS9_Lin1ELi1ELb1EEEEEE3sumEv, symObjAddr: 0x12EB8, symBinAddr: 0x10001ADC8, symSize: 0x74 }
  - { offsetInCU: 0x977EE, offset: 0xAB1DE, size: 0x8, addend: 0x0, symName: __ZN5Eigen9TransposeIKNS_5BlockIKNS1_IKNS0_IKNS_6MatrixIdLin1ELin1ELi0ELin1ELin1EEEEELi1ELin1ELb1EEELi1ELin1ELb1EEEEC1ERSA_, symObjAddr: 0x12F2C, symBinAddr: 0x10001AE3C, symSize: 0x34 }
  - { offsetInCU: 0x97826, offset: 0xAB216, size: 0x8, addend: 0x0, symName: __ZN5Eigen9TransposeIKNS_5BlockIKNS1_IKNS0_IKNS_6MatrixIdLin1ELin1ELi0ELin1ELin1EEEEELi1ELin1ELb1EEELi1ELin1ELb1EEEEC2ERSA_, symObjAddr: 0x12F60, symBinAddr: 0x10001AE70, symSize: 0x40 }
  - { offsetInCU: 0x9785E, offset: 0xAB24E, size: 0x8, addend: 0x0, symName: __ZN5Eigen13TransposeImplIKNS_5BlockIKNS1_IKNS_9TransposeIKNS_6MatrixIdLin1ELin1ELi0ELin1ELin1EEEEELi1ELin1ELb1EEELi1ELin1ELb1EEENS_5DenseEEC2Ev, symObjAddr: 0x12FA0, symBinAddr: 0x10001AEB0, symSize: 0x2C }
  - { offsetInCU: 0x97888, offset: 0xAB278, size: 0x8, addend: 0x0, symName: __ZN5Eigen10MatrixBaseINS_9TransposeIKNS_5BlockIKNS2_IKNS1_IKNS_6MatrixIdLin1ELin1ELi0ELin1ELin1EEEEELi1ELin1ELb1EEELi1ELin1ELb1EEEEEEC2Ev, symObjAddr: 0x12FCC, symBinAddr: 0x10001AEDC, symSize: 0x2C }
  - { offsetInCU: 0x978B2, offset: 0xAB2A2, size: 0x8, addend: 0x0, symName: __ZN5Eigen9DenseBaseINS_9TransposeIKNS_5BlockIKNS2_IKNS1_IKNS_6MatrixIdLin1ELin1ELi0ELin1ELin1EEEEELi1ELin1ELb1EEELi1ELin1ELb1EEEEEEC2Ev, symObjAddr: 0x12FF8, symBinAddr: 0x10001AF08, symSize: 0x14 }
  - { offsetInCU: 0x978DC, offset: 0xAB2CC, size: 0x8, addend: 0x0, symName: __ZNK5Eigen9EigenBaseINS_9TransposeIKNS_5BlockIKNS2_IKNS1_IKNS_6MatrixIdLin1ELin1ELi0ELin1ELin1EEEEELi1ELin1ELb1EEELi1ELin1ELb1EEEEEE7derivedEv, symObjAddr: 0x1300C, symBinAddr: 0x10001AF1C, symSize: 0x14 }
  - { offsetInCU: 0x97902, offset: 0xAB2F2, size: 0x8, addend: 0x0, symName: __ZN5Eigen13CwiseBinaryOpINS_8internal22scalar_conj_product_opIddEEKNS_9TransposeIKNS_5BlockIKNS5_IKNS4_IKNS_6MatrixIdLin1ELin1ELi0ELin1ELin1EEEEELi1ELin1ELb1EEELi1ELin1ELb1EEEEEKNS5_IS8_Lin1ELi1ELb1EEEEC1ERSG_RSI_RKS3_, symObjAddr: 0x13020, symBinAddr: 0x10001AF30, symSize: 0x44 }
  - { offsetInCU: 0x97956, offset: 0xAB346, size: 0x8, addend: 0x0, symName: __ZN5Eigen13CwiseBinaryOpINS_8internal22scalar_conj_product_opIddEEKNS_9TransposeIKNS_5BlockIKNS5_IKNS4_IKNS_6MatrixIdLin1ELin1ELi0ELin1ELin1EEEEELi1ELin1ELb1EEELi1ELin1ELb1EEEEEKNS5_IS8_Lin1ELi1ELb1EEEEC2ERSG_RSI_RKS3_, symObjAddr: 0x13064, symBinAddr: 0x10001AF74, symSize: 0x100 }
  - { offsetInCU: 0x979AF, offset: 0xAB39F, size: 0x8, addend: 0x0, symName: __ZN5Eigen17CwiseBinaryOpImplINS_8internal22scalar_conj_product_opIddEEKNS_9TransposeIKNS_5BlockIKNS5_IKNS4_IKNS_6MatrixIdLin1ELin1ELi0ELin1ELin1EEEEELi1ELin1ELb1EEELi1ELin1ELb1EEEEEKNS5_IS8_Lin1ELi1ELb1EEENS_5DenseEEC2Ev, symObjAddr: 0x13164, symBinAddr: 0x10001B074, symSize: 0x2C }
  - { offsetInCU: 0x979DB, offset: 0xAB3CB, size: 0x8, addend: 0x0, symName: __ZNK5Eigen9TransposeIKNS_5BlockIKNS1_IKNS0_IKNS_6MatrixIdLin1ELin1ELi0ELin1ELin1EEEEELi1ELin1ELb1EEELi1ELin1ELb1EEEE4rowsEv, symObjAddr: 0x13190, symBinAddr: 0x10001B0A0, symSize: 0x24 }
  - { offsetInCU: 0x97A01, offset: 0xAB3F1, size: 0x8, addend: 0x0, symName: __ZNK5Eigen9TransposeIKNS_5BlockIKNS1_IKNS0_IKNS_6MatrixIdLin1ELin1ELi0ELin1ELin1EEEEELi1ELin1ELb1EEELi1ELin1ELb1EEEE4colsEv, symObjAddr: 0x131B4, symBinAddr: 0x10001B0C4, symSize: 0x24 }
  - { offsetInCU: 0x97A27, offset: 0xAB417, size: 0x8, addend: 0x0, symName: __ZN5Eigen10MatrixBaseINS_13CwiseBinaryOpINS_8internal22scalar_conj_product_opIddEEKNS_9TransposeIKNS_5BlockIKNS6_IKNS5_IKNS_6MatrixIdLin1ELin1ELi0ELin1ELin1EEEEELi1ELin1ELb1EEELi1ELin1ELb1EEEEEKNS6_IS9_Lin1ELi1ELb1EEEEEEC2Ev, symObjAddr: 0x131D8, symBinAddr: 0x10001B0E8, symSize: 0x2C }
  - { offsetInCU: 0x97A51, offset: 0xAB441, size: 0x8, addend: 0x0, symName: __ZN5Eigen9DenseBaseINS_13CwiseBinaryOpINS_8internal22scalar_conj_product_opIddEEKNS_9TransposeIKNS_5BlockIKNS6_IKNS5_IKNS_6MatrixIdLin1ELin1ELi0ELin1ELin1EEEEELi1ELin1ELb1EEELi1ELin1ELb1EEEEEKNS6_IS9_Lin1ELi1ELb1EEEEEEC2Ev, symObjAddr: 0x13204, symBinAddr: 0x10001B114, symSize: 0x14 }
  - { offsetInCU: 0x97A7B, offset: 0xAB46B, size: 0x8, addend: 0x0, symName: __ZNK5Eigen9EigenBaseINS_13CwiseBinaryOpINS_8internal22scalar_conj_product_opIddEEKNS_9TransposeIKNS_5BlockIKNS6_IKNS5_IKNS_6MatrixIdLin1ELin1ELi0ELin1ELin1EEEEELi1ELin1ELb1EEELi1ELin1ELb1EEEEEKNS6_IS9_Lin1ELi1ELb1EEEEEE4sizeEv, symObjAddr: 0x13218, symBinAddr: 0x10001B128, symSize: 0x44 }
  - { offsetInCU: 0x97AA1, offset: 0xAB491, size: 0x8, addend: 0x0, symName: __ZNK5Eigen9EigenBaseINS_13CwiseBinaryOpINS_8internal22scalar_conj_product_opIddEEKNS_9TransposeIKNS_5BlockIKNS6_IKNS5_IKNS_6MatrixIdLin1ELin1ELi0ELin1ELin1EEEEELi1ELin1ELb1EEELi1ELin1ELb1EEEEEKNS6_IS9_Lin1ELi1ELb1EEEEEE7derivedEv, symObjAddr: 0x1325C, symBinAddr: 0x10001B16C, symSize: 0x14 }
  - { offsetInCU: 0x97AC7, offset: 0xAB4B7, size: 0x8, addend: 0x0, symName: __ZNK5Eigen9DenseBaseINS_13CwiseBinaryOpINS_8internal22scalar_conj_product_opIddEEKNS_9TransposeIKNS_5BlockIKNS6_IKNS5_IKNS_6MatrixIdLin1ELin1ELi0ELin1ELin1EEEEELi1ELin1ELb1EEELi1ELin1ELb1EEEEEKNS6_IS9_Lin1ELi1ELb1EEEEEE5reduxINS2_13scalar_sum_opIddEEEEdRKT_, symObjAddr: 0x13270, symBinAddr: 0x10001B180, symSize: 0x10C }
  - { offsetInCU: 0x97B23, offset: 0xAB513, size: 0x8, addend: 0x0, symName: __ZNK5Eigen9EigenBaseINS_13CwiseBinaryOpINS_8internal22scalar_conj_product_opIddEEKNS_9TransposeIKNS_5BlockIKNS6_IKNS5_IKNS_6MatrixIdLin1ELin1ELi0ELin1ELin1EEEEELi1ELin1ELb1EEELi1ELin1ELb1EEEEEKNS6_IS9_Lin1ELi1ELb1EEEEEE4rowsEv, symObjAddr: 0x1337C, symBinAddr: 0x10001B28C, symSize: 0x38 }
  - { offsetInCU: 0x97B49, offset: 0xAB539, size: 0x8, addend: 0x0, symName: __ZNK5Eigen9EigenBaseINS_13CwiseBinaryOpINS_8internal22scalar_conj_product_opIddEEKNS_9TransposeIKNS_5BlockIKNS6_IKNS5_IKNS_6MatrixIdLin1ELin1ELi0ELin1ELin1EEEEELi1ELin1ELb1EEELi1ELin1ELb1EEEEEKNS6_IS9_Lin1ELi1ELb1EEEEEE4colsEv, symObjAddr: 0x133B4, symBinAddr: 0x10001B2C4, symSize: 0x38 }
  - { offsetInCU: 0x97B6F, offset: 0xAB55F, size: 0x8, addend: 0x0, symName: __ZNK5Eigen13CwiseBinaryOpINS_8internal22scalar_conj_product_opIddEEKNS_9TransposeIKNS_5BlockIKNS5_IKNS4_IKNS_6MatrixIdLin1ELin1ELi0ELin1ELin1EEEEELi1ELin1ELb1EEELi1ELin1ELb1EEEEEKNS5_IS8_Lin1ELi1ELb1EEEE4rowsEv, symObjAddr: 0x133EC, symBinAddr: 0x10001B2FC, symSize: 0x28 }
  - { offsetInCU: 0x97B95, offset: 0xAB585, size: 0x8, addend: 0x0, symName: __ZNK5Eigen13CwiseBinaryOpINS_8internal22scalar_conj_product_opIddEEKNS_9TransposeIKNS_5BlockIKNS5_IKNS4_IKNS_6MatrixIdLin1ELin1ELi0ELin1ELin1EEEEELi1ELin1ELb1EEELi1ELin1ELb1EEEEEKNS5_IS8_Lin1ELi1ELb1EEEE4colsEv, symObjAddr: 0x13414, symBinAddr: 0x10001B324, symSize: 0x24 }
  - { offsetInCU: 0x97C79, offset: 0xAB669, size: 0x8, addend: 0x0, symName: __ZN5Eigen8internal15redux_evaluatorINS_13CwiseBinaryOpINS0_22scalar_conj_product_opIddEEKNS_9TransposeIKNS_5BlockIKNS6_IKNS5_IKNS_6MatrixIdLin1ELin1ELi0ELin1ELin1EEEEELi1ELin1ELb1EEELi1ELin1ELb1EEEEEKNS6_IS9_Lin1ELi1ELb1EEEEEEC1ERKSK_, symObjAddr: 0x13438, symBinAddr: 0x10001B348, symSize: 0x34 }
  - { offsetInCU: 0x97CB6, offset: 0xAB6A6, size: 0x8, addend: 0x0, symName: __ZN5Eigen8internal10redux_implINS0_13scalar_sum_opIddEENS0_15redux_evaluatorINS_13CwiseBinaryOpINS0_22scalar_conj_product_opIddEEKNS_9TransposeIKNS_5BlockIKNS9_IKNS8_IKNS_6MatrixIdLin1ELin1ELi0ELin1ELin1EEEEELi1ELin1ELb1EEELi1ELin1ELb1EEEEEKNS9_ISC_Lin1ELi1ELb1EEEEEEELi3ELi0EE3runISN_EEdRKSO_RKS3_RKT_, symObjAddr: 0x1346C, symBinAddr: 0x10001B37C, symSize: 0x348 }
  - { offsetInCU: 0x97E34, offset: 0xAB824, size: 0x8, addend: 0x0, symName: __ZN5Eigen8internal15redux_evaluatorINS_13CwiseBinaryOpINS0_22scalar_conj_product_opIddEEKNS_9TransposeIKNS_5BlockIKNS6_IKNS5_IKNS_6MatrixIdLin1ELin1ELi0ELin1ELin1EEEEELi1ELin1ELb1EEELi1ELin1ELb1EEEEEKNS6_IS9_Lin1ELi1ELb1EEEEEED1Ev, symObjAddr: 0x137B4, symBinAddr: 0x10001B6C4, symSize: 0x2C }
  - { offsetInCU: 0x97E61, offset: 0xAB851, size: 0x8, addend: 0x0, symName: __ZN5Eigen8internal15redux_evaluatorINS_13CwiseBinaryOpINS0_22scalar_conj_product_opIddEEKNS_9TransposeIKNS_5BlockIKNS6_IKNS5_IKNS_6MatrixIdLin1ELin1ELi0ELin1ELin1EEEEELi1ELin1ELb1EEELi1ELin1ELb1EEEEEKNS6_IS9_Lin1ELi1ELb1EEEEEEC2ERKSK_, symObjAddr: 0x137E0, symBinAddr: 0x10001B6F0, symSize: 0x34 }
  - { offsetInCU: 0x97E9A, offset: 0xAB88A, size: 0x8, addend: 0x0, symName: __ZN5Eigen8internal9evaluatorINS_13CwiseBinaryOpINS0_22scalar_conj_product_opIddEEKNS_9TransposeIKNS_5BlockIKNS6_IKNS5_IKNS_6MatrixIdLin1ELin1ELi0ELin1ELin1EEEEELi1ELin1ELb1EEELi1ELin1ELb1EEEEEKNS6_IS9_Lin1ELi1ELb1EEEEEEC2ERKSK_, symObjAddr: 0x13814, symBinAddr: 0x10001B724, symSize: 0x34 }
  - { offsetInCU: 0x97ED3, offset: 0xAB8C3, size: 0x8, addend: 0x0, symName: __ZN5Eigen8internal16binary_evaluatorINS_13CwiseBinaryOpINS0_22scalar_conj_product_opIddEEKNS_9TransposeIKNS_5BlockIKNS6_IKNS5_IKNS_6MatrixIdLin1ELin1ELi0ELin1ELin1EEEEELi1ELin1ELb1EEELi1ELin1ELb1EEEEEKNS6_IS9_Lin1ELi1ELb1EEEEENS0_10IndexBasedESL_ddEC2ERKSK_, symObjAddr: 0x13848, symBinAddr: 0x10001B758, symSize: 0x64 }
  - { offsetInCU: 0x97F0C, offset: 0xAB8FC, size: 0x8, addend: 0x0, symName: __ZN5Eigen8internal14evaluator_baseINS_13CwiseBinaryOpINS0_22scalar_conj_product_opIddEEKNS_9TransposeIKNS_5BlockIKNS6_IKNS5_IKNS_6MatrixIdLin1ELin1ELi0ELin1ELin1EEEEELi1ELin1ELb1EEELi1ELin1ELb1EEEEEKNS6_IS9_Lin1ELi1ELb1EEEEEEC2Ev, symObjAddr: 0x138AC, symBinAddr: 0x10001B7BC, symSize: 0x14 }
  - { offsetInCU: 0x97F36, offset: 0xAB926, size: 0x8, addend: 0x0, symName: __ZN5Eigen8internal16binary_evaluatorINS_13CwiseBinaryOpINS0_22scalar_conj_product_opIddEEKNS_9TransposeIKNS_5BlockIKNS6_IKNS5_IKNS_6MatrixIdLin1ELin1ELi0ELin1ELin1EEEEELi1ELin1ELb1EEELi1ELin1ELb1EEEEEKNS6_IS9_Lin1ELi1ELb1EEEEENS0_10IndexBasedESL_ddE4DataC1ERKSK_, symObjAddr: 0x138C0, symBinAddr: 0x10001B7D0, symSize: 0x34 }
  - { offsetInCU: 0x97F6F, offset: 0xAB95F, size: 0x8, addend: 0x0, symName: __ZN5Eigen8internal14evaluator_baseINS_13CwiseBinaryOpINS0_22scalar_conj_product_opIddEEKNS_9TransposeIKNS_5BlockIKNS6_IKNS5_IKNS_6MatrixIdLin1ELin1ELi0ELin1ELin1EEEEELi1ELin1ELb1EEELi1ELin1ELb1EEEEEKNS6_IS9_Lin1ELi1ELb1EEEEEED2Ev, symObjAddr: 0x138F4, symBinAddr: 0x10001B804, symSize: 0x14 }
  - { offsetInCU: 0x97F99, offset: 0xAB989, size: 0x8, addend: 0x0, symName: __ZN5Eigen8internal16binary_evaluatorINS_13CwiseBinaryOpINS0_22scalar_conj_product_opIddEEKNS_9TransposeIKNS_5BlockIKNS6_IKNS5_IKNS_6MatrixIdLin1ELin1ELi0ELin1ELin1EEEEELi1ELin1ELb1EEELi1ELin1ELb1EEEEEKNS6_IS9_Lin1ELi1ELb1EEEEENS0_10IndexBasedESL_ddE4DataC2ERKSK_, symObjAddr: 0x13908, symBinAddr: 0x10001B818, symSize: 0xA8 }
  - { offsetInCU: 0x97FD2, offset: 0xAB9C2, size: 0x8, addend: 0x0, symName: __ZNK5Eigen13CwiseBinaryOpINS_8internal22scalar_conj_product_opIddEEKNS_9TransposeIKNS_5BlockIKNS5_IKNS4_IKNS_6MatrixIdLin1ELin1ELi0ELin1ELin1EEEEELi1ELin1ELb1EEELi1ELin1ELb1EEEEEKNS5_IS8_Lin1ELi1ELb1EEEE7functorEv, symObjAddr: 0x139B0, symBinAddr: 0x10001B8C0, symSize: 0x18 }
  - { offsetInCU: 0x97FF8, offset: 0xAB9E8, size: 0x8, addend: 0x0, symName: __ZNK5Eigen13CwiseBinaryOpINS_8internal22scalar_conj_product_opIddEEKNS_9TransposeIKNS_5BlockIKNS5_IKNS4_IKNS_6MatrixIdLin1ELin1ELi0ELin1ELin1EEEEELi1ELin1ELb1EEELi1ELin1ELb1EEEEEKNS5_IS8_Lin1ELi1ELb1EEEE3lhsEv, symObjAddr: 0x139C8, symBinAddr: 0x10001B8D8, symSize: 0x14 }
  - { offsetInCU: 0x9801E, offset: 0xABA0E, size: 0x8, addend: 0x0, symName: __ZN5Eigen8internal9evaluatorIKNS_9TransposeIKNS_5BlockIKNS3_IKNS2_IKNS_6MatrixIdLin1ELin1ELi0ELin1ELin1EEEEELi1ELin1ELb1EEELi1ELin1ELb1EEEEEEC1ERSE_, symObjAddr: 0x139DC, symBinAddr: 0x10001B8EC, symSize: 0x34 }
  - { offsetInCU: 0x98056, offset: 0xABA46, size: 0x8, addend: 0x0, symName: __ZNK5Eigen13CwiseBinaryOpINS_8internal22scalar_conj_product_opIddEEKNS_9TransposeIKNS_5BlockIKNS5_IKNS4_IKNS_6MatrixIdLin1ELin1ELi0ELin1ELin1EEEEELi1ELin1ELb1EEELi1ELin1ELb1EEEEEKNS5_IS8_Lin1ELi1ELb1EEEE3rhsEv, symObjAddr: 0x13A10, symBinAddr: 0x10001B920, symSize: 0x18 }
  - { offsetInCU: 0x9807C, offset: 0xABA6C, size: 0x8, addend: 0x0, symName: __ZN5Eigen8internal9evaluatorIKNS_9TransposeIKNS_5BlockIKNS3_IKNS2_IKNS_6MatrixIdLin1ELin1ELi0ELin1ELin1EEEEELi1ELin1ELb1EEELi1ELin1ELb1EEEEEED1Ev, symObjAddr: 0x13A28, symBinAddr: 0x10001B938, symSize: 0x2C }
  - { offsetInCU: 0x980A8, offset: 0xABA98, size: 0x8, addend: 0x0, symName: __ZN5Eigen8internal9evaluatorIKNS_9TransposeIKNS_5BlockIKNS3_IKNS2_IKNS_6MatrixIdLin1ELin1ELi0ELin1ELin1EEEEELi1ELin1ELb1EEELi1ELin1ELb1EEEEEEC2ERSE_, symObjAddr: 0x13A54, symBinAddr: 0x10001B964, symSize: 0x34 }
  - { offsetInCU: 0x980E0, offset: 0xABAD0, size: 0x8, addend: 0x0, symName: __ZN5Eigen8internal9evaluatorINS_9TransposeIKNS_5BlockIKNS3_IKNS2_IKNS_6MatrixIdLin1ELin1ELi0ELin1ELin1EEEEELi1ELin1ELb1EEELi1ELin1ELb1EEEEEEC2ERKSD_, symObjAddr: 0x13A88, symBinAddr: 0x10001B998, symSize: 0x34 }
  - { offsetInCU: 0x98118, offset: 0xABB08, size: 0x8, addend: 0x0, symName: __ZN5Eigen8internal15unary_evaluatorINS_9TransposeIKNS_5BlockIKNS3_IKNS2_IKNS_6MatrixIdLin1ELin1ELi0ELin1ELin1EEEEELi1ELin1ELb1EEELi1ELin1ELb1EEEEENS0_10IndexBasedEdEC2ERKSD_, symObjAddr: 0x13ABC, symBinAddr: 0x10001B9CC, symSize: 0x74 }
  - { offsetInCU: 0x98151, offset: 0xABB41, size: 0x8, addend: 0x0, symName: __ZN5Eigen8internal14evaluator_baseINS_9TransposeIKNS_5BlockIKNS3_IKNS2_IKNS_6MatrixIdLin1ELin1ELi0ELin1ELin1EEEEELi1ELin1ELb1EEELi1ELin1ELb1EEEEEEC2Ev, symObjAddr: 0x13B30, symBinAddr: 0x10001BA40, symSize: 0x14 }
  - { offsetInCU: 0x9817B, offset: 0xABB6B, size: 0x8, addend: 0x0, symName: __ZNK5Eigen9TransposeIKNS_5BlockIKNS1_IKNS0_IKNS_6MatrixIdLin1ELin1ELi0ELin1ELin1EEEEELi1ELin1ELb1EEELi1ELin1ELb1EEEE16nestedExpressionEv, symObjAddr: 0x13B44, symBinAddr: 0x10001BA54, symSize: 0x14 }
  - { offsetInCU: 0x981A1, offset: 0xABB91, size: 0x8, addend: 0x0, symName: __ZN5Eigen8internal9evaluatorIKNS_5BlockIKNS2_IKNS_9TransposeIKNS_6MatrixIdLin1ELin1ELi0ELin1ELin1EEEEELi1ELin1ELb1EEELi1ELin1ELb1EEEEC1ERSC_, symObjAddr: 0x13B58, symBinAddr: 0x10001BA68, symSize: 0x34 }
  - { offsetInCU: 0x981D9, offset: 0xABBC9, size: 0x8, addend: 0x0, symName: __ZN5Eigen8internal14evaluator_baseINS_9TransposeIKNS_5BlockIKNS3_IKNS2_IKNS_6MatrixIdLin1ELin1ELi0ELin1ELin1EEEEELi1ELin1ELb1EEELi1ELin1ELb1EEEEEED2Ev, symObjAddr: 0x13B8C, symBinAddr: 0x10001BA9C, symSize: 0x14 }
  - { offsetInCU: 0x98203, offset: 0xABBF3, size: 0x8, addend: 0x0, symName: __ZN5Eigen8internal9evaluatorIKNS_5BlockIKNS2_IKNS_9TransposeIKNS_6MatrixIdLin1ELin1ELi0ELin1ELin1EEEEELi1ELin1ELb1EEELi1ELin1ELb1EEEEC2ERSC_, symObjAddr: 0x13BA0, symBinAddr: 0x10001BAB0, symSize: 0x34 }
  - { offsetInCU: 0x9823B, offset: 0xABC2B, size: 0x8, addend: 0x0, symName: __ZN5Eigen8internal9evaluatorINS_5BlockIKNS2_IKNS_9TransposeIKNS_6MatrixIdLin1ELin1ELi0ELin1ELin1EEEEELi1ELin1ELb1EEELi1ELin1ELb1EEEEC2ERKSB_, symObjAddr: 0x13BD4, symBinAddr: 0x10001BAE4, symSize: 0x34 }
  - { offsetInCU: 0x98274, offset: 0xABC64, size: 0x8, addend: 0x0, symName: __ZN5Eigen8internal15block_evaluatorIKNS_5BlockIKNS_9TransposeIKNS_6MatrixIdLin1ELin1ELi0ELin1ELin1EEEEELi1ELin1ELb1EEELi1ELin1ELb1ELb1EEC2ERKNS2_ISA_Li1ELin1ELb1EEE, symObjAddr: 0x13C08, symBinAddr: 0x10001BB18, symSize: 0xDC }
  - { offsetInCU: 0x982AD, offset: 0xABC9D, size: 0x8, addend: 0x0, symName: __ZN5Eigen8internal17mapbase_evaluatorINS_5BlockIKNS2_IKNS_9TransposeIKNS_6MatrixIdLin1ELin1ELi0ELin1ELin1EEEEELi1ELin1ELb1EEELi1ELin1ELb1EEENS4_IdLi1ELin1ELi1ELi1ELin1EEEEC2ERKSB_, symObjAddr: 0x13CE4, symBinAddr: 0x10001BBF4, symSize: 0xB0 }
  - { offsetInCU: 0x982E6, offset: 0xABCD6, size: 0x8, addend: 0x0, symName: __ZNK5Eigen7MapBaseINS_5BlockIKNS1_IKNS_9TransposeIKNS_6MatrixIdLin1ELin1ELi0ELin1ELin1EEEEELi1ELin1ELb1EEELi1ELin1ELb1EEELi0EE4dataEv, symObjAddr: 0x13D94, symBinAddr: 0x10001BCA4, symSize: 0x18 }
  - { offsetInCU: 0x9830C, offset: 0xABCFC, size: 0x8, addend: 0x0, symName: __ZN5Eigen8internal17mapbase_evaluatorINS_5BlockIKNS2_IKNS_9TransposeIKNS_6MatrixIdLin1ELin1ELi0ELin1ELin1EEEEELi1ELin1ELb1EEELi1ELin1ELb1EEENS4_IdLi1ELin1ELi1ELi1ELin1EEEED2Ev, symObjAddr: 0x13DAC, symBinAddr: 0x10001BCBC, symSize: 0x2C }
  - { offsetInCU: 0x98339, offset: 0xABD29, size: 0x8, addend: 0x0, symName: __ZN5Eigen8internal14evaluator_baseINS_5BlockIKNS2_IKNS_9TransposeIKNS_6MatrixIdLin1ELin1ELi0ELin1ELin1EEEEELi1ELin1ELb1EEELi1ELin1ELb1EEEEC2Ev, symObjAddr: 0x13DD8, symBinAddr: 0x10001BCE8, symSize: 0x14 }
  - { offsetInCU: 0x98363, offset: 0xABD53, size: 0x8, addend: 0x0, symName: __ZNK5Eigen8internal15BlockImpl_denseIKNS_5BlockIKNS_9TransposeIKNS_6MatrixIdLin1ELin1ELi0ELin1ELin1EEEEELi1ELin1ELb1EEELi1ELin1ELb1ELb1EE11innerStrideEv, symObjAddr: 0x13DEC, symBinAddr: 0x10001BCFC, symSize: 0x28 }
  - { offsetInCU: 0x98389, offset: 0xABD79, size: 0x8, addend: 0x0, symName: __ZNK5Eigen8internal15BlockImpl_denseIKNS_5BlockIKNS_9TransposeIKNS_6MatrixIdLin1ELin1ELi0ELin1ELin1EEEEELi1ELin1ELb1EEELi1ELin1ELb1ELb1EE11outerStrideEv, symObjAddr: 0x13E14, symBinAddr: 0x10001BD24, symSize: 0x28 }
  - { offsetInCU: 0x983AF, offset: 0xABD9F, size: 0x8, addend: 0x0, symName: __ZN5Eigen8internal14evaluator_baseINS_5BlockIKNS2_IKNS_9TransposeIKNS_6MatrixIdLin1ELin1ELi0ELin1ELin1EEEEELi1ELin1ELb1EEELi1ELin1ELb1EEEED2Ev, symObjAddr: 0x13E3C, symBinAddr: 0x10001BD4C, symSize: 0x14 }
  - { offsetInCU: 0x983D9, offset: 0xABDC9, size: 0x8, addend: 0x0, symName: __ZN5Eigen8internal9evaluatorIKNS_9TransposeIKNS_5BlockIKNS3_IKNS2_IKNS_6MatrixIdLin1ELin1ELi0ELin1ELin1EEEEELi1ELin1ELb1EEELi1ELin1ELb1EEEEEED2Ev, symObjAddr: 0x13E50, symBinAddr: 0x10001BD60, symSize: 0x2C }
  - { offsetInCU: 0x98405, offset: 0xABDF5, size: 0x8, addend: 0x0, symName: __ZN5Eigen8internal9evaluatorINS_9TransposeIKNS_5BlockIKNS3_IKNS2_IKNS_6MatrixIdLin1ELin1ELi0ELin1ELin1EEEEELi1ELin1ELb1EEELi1ELin1ELb1EEEEEED2Ev, symObjAddr: 0x13E7C, symBinAddr: 0x10001BD8C, symSize: 0x2C }
  - { offsetInCU: 0x98431, offset: 0xABE21, size: 0x8, addend: 0x0, symName: __ZN5Eigen8internal15unary_evaluatorINS_9TransposeIKNS_5BlockIKNS3_IKNS2_IKNS_6MatrixIdLin1ELin1ELi0ELin1ELin1EEEEELi1ELin1ELb1EEELi1ELin1ELb1EEEEENS0_10IndexBasedEdED2Ev, symObjAddr: 0x13EA8, symBinAddr: 0x10001BDB8, symSize: 0x34 }
  - { offsetInCU: 0x9845D, offset: 0xABE4D, size: 0x8, addend: 0x0, symName: __ZN5Eigen8internal9evaluatorIKNS_5BlockIKNS2_IKNS_9TransposeIKNS_6MatrixIdLin1ELin1ELi0ELin1ELin1EEEEELi1ELin1ELb1EEELi1ELin1ELb1EEEED1Ev, symObjAddr: 0x13EDC, symBinAddr: 0x10001BDEC, symSize: 0x2C }
  - { offsetInCU: 0x98489, offset: 0xABE79, size: 0x8, addend: 0x0, symName: __ZN5Eigen8internal9evaluatorIKNS_5BlockIKNS2_IKNS_9TransposeIKNS_6MatrixIdLin1ELin1ELi0ELin1ELin1EEEEELi1ELin1ELb1EEELi1ELin1ELb1EEEED2Ev, symObjAddr: 0x13F08, symBinAddr: 0x10001BE18, symSize: 0x2C }
  - { offsetInCU: 0x984B5, offset: 0xABEA5, size: 0x8, addend: 0x0, symName: __ZN5Eigen8internal9evaluatorINS_5BlockIKNS2_IKNS_9TransposeIKNS_6MatrixIdLin1ELin1ELi0ELin1ELin1EEEEELi1ELin1ELb1EEELi1ELin1ELb1EEEED2Ev, symObjAddr: 0x13F34, symBinAddr: 0x10001BE44, symSize: 0x2C }
  - { offsetInCU: 0x984E2, offset: 0xABED2, size: 0x8, addend: 0x0, symName: __ZN5Eigen8internal15block_evaluatorIKNS_5BlockIKNS_9TransposeIKNS_6MatrixIdLin1ELin1ELi0ELin1ELin1EEEEELi1ELin1ELb1EEELi1ELin1ELb1ELb1EED2Ev, symObjAddr: 0x13F60, symBinAddr: 0x10001BE70, symSize: 0x2C }
  - { offsetInCU: 0x9850F, offset: 0xABEFF, size: 0x8, addend: 0x0, symName: __ZNK5Eigen8internal16binary_evaluatorINS_13CwiseBinaryOpINS0_22scalar_conj_product_opIddEEKNS_9TransposeIKNS_5BlockIKNS6_IKNS5_IKNS_6MatrixIdLin1ELin1ELi0ELin1ELin1EEEEELi1ELin1ELb1EEELi1ELin1ELb1EEEEEKNS6_IS9_Lin1ELi1ELb1EEEEENS0_10IndexBasedESL_ddE6packetILi0E19__simd128_float64_tEET0_l, symObjAddr: 0x13FB0, symBinAddr: 0x10001BEC0, symSize: 0x70 }
  - { offsetInCU: 0x98557, offset: 0xABF47, size: 0x8, addend: 0x0, symName: __ZNK5Eigen8internal16binary_evaluatorINS_13CwiseBinaryOpINS0_22scalar_conj_product_opIddEEKNS_9TransposeIKNS_5BlockIKNS6_IKNS5_IKNS_6MatrixIdLin1ELin1ELi0ELin1ELin1EEEEELi1ELin1ELb1EEELi1ELin1ELb1EEEEEKNS6_IS9_Lin1ELi1ELb1EEEEENS0_10IndexBasedESL_ddE5coeffEl, symObjAddr: 0x14020, symBinAddr: 0x10001BF30, symSize: 0x70 }
  - { offsetInCU: 0x9858C, offset: 0xABF7C, size: 0x8, addend: 0x0, symName: __ZN5Eigen8internal18first_aligned_implILi16ENS_13CwiseBinaryOpINS0_22scalar_conj_product_opIddEEKNS_9TransposeIKNS_5BlockIKNS6_IKNS5_IKNS_6MatrixIdLin1ELin1ELi0ELin1ELin1EEEEELi1ELin1ELb1EEELi1ELin1ELb1EEEEEKNS6_IS9_Lin1ELi1ELb1EEEEELb1EE3runERKSK_, symObjAddr: 0x140B8, symBinAddr: 0x10001BFC8, symSize: 0x14 }
  - { offsetInCU: 0x985AD, offset: 0xABF9D, size: 0x8, addend: 0x0, symName: __ZNK5Eigen8internal16binary_evaluatorINS_13CwiseBinaryOpINS0_22scalar_conj_product_opIddEEKNS_9TransposeIKNS_5BlockIKNS6_IKNS5_IKNS_6MatrixIdLin1ELin1ELi0ELin1ELin1EEEEELi1ELin1ELb1EEELi1ELin1ELb1EEEEEKNS6_IS9_Lin1ELi1ELb1EEEEENS0_10IndexBasedESL_ddE4Data4funcEv, symObjAddr: 0x140CC, symBinAddr: 0x10001BFDC, symSize: 0x14 }
  - { offsetInCU: 0x985D3, offset: 0xABFC3, size: 0x8, addend: 0x0, symName: __ZNK5Eigen8internal15unary_evaluatorINS_9TransposeIKNS_5BlockIKNS3_IKNS2_IKNS_6MatrixIdLin1ELin1ELi0ELin1ELin1EEEEELi1ELin1ELb1EEELi1ELin1ELb1EEEEENS0_10IndexBasedEdE6packetILi0E19__simd128_float64_tEET0_l, symObjAddr: 0x140E0, symBinAddr: 0x10001BFF0, symSize: 0x2C }
  - { offsetInCU: 0x9861B, offset: 0xAC00B, size: 0x8, addend: 0x0, symName: __ZNK5Eigen8internal17mapbase_evaluatorINS_5BlockIKNS2_IKNS_9TransposeIKNS_6MatrixIdLin1ELin1ELi0ELin1ELin1EEEEELi1ELin1ELb1EEELi1ELin1ELb1EEENS4_IdLi1ELin1ELi1ELi1ELin1EEEE6packetILi0E19__simd128_float64_tEET0_l, symObjAddr: 0x1410C, symBinAddr: 0x10001C01C, symSize: 0x54 }
  - { offsetInCU: 0x98683, offset: 0xAC073, size: 0x8, addend: 0x0, symName: __ZNK5Eigen8internal15unary_evaluatorINS_9TransposeIKNS_5BlockIKNS3_IKNS2_IKNS_6MatrixIdLin1ELin1ELi0ELin1ELin1EEEEELi1ELin1ELb1EEELi1ELin1ELb1EEEEENS0_10IndexBasedEdE5coeffEl, symObjAddr: 0x14160, symBinAddr: 0x10001C070, symSize: 0x2C }
  - { offsetInCU: 0x986B8, offset: 0xAC0A8, size: 0x8, addend: 0x0, symName: __ZNK5Eigen8internal17mapbase_evaluatorINS_5BlockIKNS2_IKNS_9TransposeIKNS_6MatrixIdLin1ELin1ELi0ELin1ELin1EEEEELi1ELin1ELb1EEELi1ELin1ELb1EEENS4_IdLi1ELin1ELi1ELi1ELin1EEEE5coeffEl, symObjAddr: 0x1418C, symBinAddr: 0x10001C09C, symSize: 0x48 }
  - { offsetInCU: 0x986ED, offset: 0xAC0DD, size: 0x8, addend: 0x0, symName: __ZN5Eigen8internal15redux_evaluatorINS_13CwiseBinaryOpINS0_22scalar_conj_product_opIddEEKNS_9TransposeIKNS_5BlockIKNS6_IKNS5_IKNS_6MatrixIdLin1ELin1ELi0ELin1ELin1EEEEELi1ELin1ELb1EEELi1ELin1ELb1EEEEEKNS6_IS9_Lin1ELi1ELb1EEEEEED2Ev, symObjAddr: 0x141D4, symBinAddr: 0x10001C0E4, symSize: 0x2C }
  - { offsetInCU: 0x9871A, offset: 0xAC10A, size: 0x8, addend: 0x0, symName: __ZN5Eigen8internal9evaluatorINS_13CwiseBinaryOpINS0_22scalar_conj_product_opIddEEKNS_9TransposeIKNS_5BlockIKNS6_IKNS5_IKNS_6MatrixIdLin1ELin1ELi0ELin1ELin1EEEEELi1ELin1ELb1EEELi1ELin1ELb1EEEEEKNS6_IS9_Lin1ELi1ELb1EEEEEED2Ev, symObjAddr: 0x14200, symBinAddr: 0x10001C110, symSize: 0x2C }
  - { offsetInCU: 0x98747, offset: 0xAC137, size: 0x8, addend: 0x0, symName: __ZN5Eigen8internal16binary_evaluatorINS_13CwiseBinaryOpINS0_22scalar_conj_product_opIddEEKNS_9TransposeIKNS_5BlockIKNS6_IKNS5_IKNS_6MatrixIdLin1ELin1ELi0ELin1ELin1EEEEELi1ELin1ELb1EEELi1ELin1ELb1EEEEEKNS6_IS9_Lin1ELi1ELb1EEEEENS0_10IndexBasedESL_ddED2Ev, symObjAddr: 0x1422C, symBinAddr: 0x10001C13C, symSize: 0x34 }
  - { offsetInCU: 0x98773, offset: 0xAC163, size: 0x8, addend: 0x0, symName: __ZN5Eigen8internal16binary_evaluatorINS_13CwiseBinaryOpINS0_22scalar_conj_product_opIddEEKNS_9TransposeIKNS_5BlockIKNS6_IKNS5_IKNS_6MatrixIdLin1ELin1ELi0ELin1ELin1EEEEELi1ELin1ELb1EEELi1ELin1ELb1EEEEEKNS6_IS9_Lin1ELi1ELb1EEEEENS0_10IndexBasedESL_ddE4DataD1Ev, symObjAddr: 0x14260, symBinAddr: 0x10001C170, symSize: 0x2C }
  - { offsetInCU: 0x987A0, offset: 0xAC190, size: 0x8, addend: 0x0, symName: __ZN5Eigen8internal16binary_evaluatorINS_13CwiseBinaryOpINS0_22scalar_conj_product_opIddEEKNS_9TransposeIKNS_5BlockIKNS6_IKNS5_IKNS_6MatrixIdLin1ELin1ELi0ELin1ELin1EEEEELi1ELin1ELb1EEELi1ELin1ELb1EEEEEKNS6_IS9_Lin1ELi1ELb1EEEEENS0_10IndexBasedESL_ddE4DataD2Ev, symObjAddr: 0x1428C, symBinAddr: 0x10001C19C, symSize: 0x3C }
  - { offsetInCU: 0x987CD, offset: 0xAC1BD, size: 0x8, addend: 0x0, symName: __ZNK5Eigen15DenseCoeffsBaseINS_5BlockINS_6MatrixIdLin1ELin1ELi0ELin1ELin1EEELi1ELin1ELb0EEELi3EE9colStrideEv, symObjAddr: 0x142C8, symBinAddr: 0x10001C1D8, symSize: 0x24 }
  - { offsetInCU: 0x987F3, offset: 0xAC1E3, size: 0x8, addend: 0x0, symName: __ZNK5Eigen15DenseCoeffsBaseINS_5BlockINS_6MatrixIdLin1ELin1ELi0ELin1ELin1EEELi1ELin1ELb0EEELi3EE9rowStrideEv, symObjAddr: 0x142EC, symBinAddr: 0x10001C1FC, symSize: 0x24 }
  - { offsetInCU: 0x98819, offset: 0xAC209, size: 0x8, addend: 0x0, symName: __ZNK5Eigen15DenseCoeffsBaseINS_5BlockINS_6MatrixIdLin1ELin1ELi0ELin1ELin1EEELi1ELin1ELb0EEELi3EE11innerStrideEv, symObjAddr: 0x14310, symBinAddr: 0x10001C220, symSize: 0x28 }
  - { offsetInCU: 0x9883F, offset: 0xAC22F, size: 0x8, addend: 0x0, symName: __ZNK5Eigen15DenseCoeffsBaseINS_5BlockINS_6MatrixIdLin1ELin1ELi0ELin1ELin1EEELi1ELin1ELb0EEELi3EE11outerStrideEv, symObjAddr: 0x14338, symBinAddr: 0x10001C248, symSize: 0x28 }
  - { offsetInCU: 0x98865, offset: 0xAC255, size: 0x8, addend: 0x0, symName: __ZN5Eigen9TransposeINS_5BlockINS_6MatrixIdLin1ELin1ELi0ELin1ELin1EEELi1ELin1ELb0EEEEC1ERS4_, symObjAddr: 0x14360, symBinAddr: 0x10001C270, symSize: 0x34 }
  - { offsetInCU: 0x988CC, offset: 0xAC2BC, size: 0x8, addend: 0x0, symName: __ZN5Eigen9TransposeINS_5BlockINS_6MatrixIdLin1ELin1ELi0ELin1ELin1EEELi1ELin1ELb0EEEEC2ERS4_, symObjAddr: 0x1480C, symBinAddr: 0x10001C71C, symSize: 0x40 }
  - { offsetInCU: 0x98904, offset: 0xAC2F4, size: 0x8, addend: 0x0, symName: __ZN5Eigen13TransposeImplINS_5BlockINS_6MatrixIdLin1ELin1ELi0ELin1ELin1EEELi1ELin1ELb0EEENS_5DenseEEC2Ev, symObjAddr: 0x1484C, symBinAddr: 0x10001C75C, symSize: 0x2C }
  - { offsetInCU: 0x9892E, offset: 0xAC31E, size: 0x8, addend: 0x0, symName: __ZN5Eigen10MatrixBaseINS_9TransposeINS_5BlockINS_6MatrixIdLin1ELin1ELi0ELin1ELin1EEELi1ELin1ELb0EEEEEEC2Ev, symObjAddr: 0x14878, symBinAddr: 0x10001C788, symSize: 0x2C }
  - { offsetInCU: 0x98958, offset: 0xAC348, size: 0x8, addend: 0x0, symName: __ZN5Eigen9DenseBaseINS_9TransposeINS_5BlockINS_6MatrixIdLin1ELin1ELi0ELin1ELin1EEELi1ELin1ELb0EEEEEEC2Ev, symObjAddr: 0x148A4, symBinAddr: 0x10001C7B4, symSize: 0x14 }
  - { offsetInCU: 0x98981, offset: 0xAC371, size: 0x8, addend: 0x0, symName: __ZN5Eigen8internal11blas_traitsINS_9TransposeIKNS_5BlockIKNS2_IKNS_6MatrixIdLin1ELin1ELi0ELin1ELin1EEEEELi1ELin1ELb1EEEEEE7extractERKSB_, symObjAddr: 0x148B8, symBinAddr: 0x10001C7C8, symSize: 0x38 }
  - { offsetInCU: 0x989A6, offset: 0xAC396, size: 0x8, addend: 0x0, symName: __ZNK5Eigen9EigenBaseINS_9TransposeIKNS_5BlockIKNS1_IKNS_6MatrixIdLin1ELin1ELi0ELin1ELin1EEEEELi1ELin1ELb1EEEEEE4sizeEv, symObjAddr: 0x148F0, symBinAddr: 0x10001C800, symSize: 0x44 }
  - { offsetInCU: 0x989CC, offset: 0xAC3BC, size: 0x8, addend: 0x0, symName: __ZNK5Eigen13TransposeImplIKNS_5BlockIKNS_9TransposeIKNS_6MatrixIdLin1ELin1ELi0ELin1ELin1EEEEELi1ELin1ELb1EEENS_5DenseEE4dataEv, symObjAddr: 0x14934, symBinAddr: 0x10001C844, symSize: 0x2C }
  - { offsetInCU: 0x989F2, offset: 0xAC3E2, size: 0x8, addend: 0x0, symName: __ZN5Eigen13TransposeImplINS_5BlockINS_6MatrixIdLin1ELin1ELi0ELin1ELin1EEELi1ELin1ELb0EEENS_5DenseEE4dataEv, symObjAddr: 0x14960, symBinAddr: 0x10001C870, symSize: 0x2C }
  - { offsetInCU: 0x98A18, offset: 0xAC408, size: 0x8, addend: 0x0, symName: __ZN5Eigen9DenseBaseINS_9TransposeINS_5BlockINS_6MatrixIdLin1ELin1ELi0ELin1ELin1EEELi1ELin1ELb0EEEEEE3colEl, symObjAddr: 0x1498C, symBinAddr: 0x10001C89C, symSize: 0x3C }
  - { offsetInCU: 0x98A4D, offset: 0xAC43D, size: 0x8, addend: 0x0, symName: __ZNK5Eigen8internal15BlockImpl_denseINS_9TransposeINS_5BlockINS_6MatrixIdLin1ELin1ELi0ELin1ELin1EEELi1ELin1ELb0EEEEELin1ELi1ELb1ELb1EE11innerStrideEv, symObjAddr: 0x149C8, symBinAddr: 0x10001C8D8, symSize: 0x38 }
  - { offsetInCU: 0x98A73, offset: 0xAC463, size: 0x8, addend: 0x0, symName: __ZN5Eigen8internal11blas_traitsINS_5BlockIKNS_9TransposeIKNS_6MatrixIdLin1ELin1ELi0ELin1ELin1EEEEELi1ELin1ELb1EEEE7extractERKS9_, symObjAddr: 0x14A00, symBinAddr: 0x10001C910, symSize: 0x14 }
  - { offsetInCU: 0x98A96, offset: 0xAC486, size: 0x8, addend: 0x0, symName: __ZN5Eigen8internal11blas_traitsINS_9TransposeIKNS_5BlockIKNS2_IKNS_6MatrixIdLin1ELin1ELi0ELin1ELin1EEEEELi1ELin1ELb1EEEEEE19extractScalarFactorERKSB_, symObjAddr: 0x14A14, symBinAddr: 0x10001C924, symSize: 0x28 }
  - { offsetInCU: 0x98ABB, offset: 0xAC4AB, size: 0x8, addend: 0x0, symName: __ZN5Eigen8internal11blas_traitsINS_5BlockIKNS_9TransposeIKNS_6MatrixIdLin1ELin1ELi0ELin1ELin1EEEEELi1ELin1ELb1EEEE19extractScalarFactorERKS9_, symObjAddr: 0x14A3C, symBinAddr: 0x10001C94C, symSize: 0x14 }
  - { offsetInCU: 0x98ADC, offset: 0xAC4CC, size: 0x8, addend: 0x0, symName: __ZNK5Eigen9EigenBaseINS_9TransposeIKNS_5BlockIKNS1_IKNS_6MatrixIdLin1ELin1ELi0ELin1ELin1EEEEELi1ELin1ELb1EEEEEE4rowsEv, symObjAddr: 0x14A50, symBinAddr: 0x10001C960, symSize: 0x28 }
  - { offsetInCU: 0x98B02, offset: 0xAC4F2, size: 0x8, addend: 0x0, symName: __ZNK5Eigen9EigenBaseINS_9TransposeIKNS_5BlockIKNS1_IKNS_6MatrixIdLin1ELin1ELi0ELin1ELin1EEEEELi1ELin1ELb1EEEEEE4colsEv, symObjAddr: 0x14A78, symBinAddr: 0x10001C988, symSize: 0x28 }
  - { offsetInCU: 0x98B28, offset: 0xAC518, size: 0x8, addend: 0x0, symName: __ZN5Eigen9EigenBaseINS_9TransposeINS_5BlockINS_6MatrixIdLin1ELin1ELi0ELin1ELin1EEELi1ELin1ELb0EEEEEE7derivedEv, symObjAddr: 0x14AA0, symBinAddr: 0x10001C9B0, symSize: 0x14 }
  - { offsetInCU: 0x98B4E, offset: 0xAC53E, size: 0x8, addend: 0x0, symName: __ZN5Eigen9TransposeINS_5BlockINS_6MatrixIdLin1ELin1ELi0ELin1ELin1EEELi1ELin1ELb0EEEE16nestedExpressionEv, symObjAddr: 0x14AB4, symBinAddr: 0x10001C9C4, symSize: 0x14 }
  - { offsetInCU: 0x98B74, offset: 0xAC564, size: 0x8, addend: 0x0, symName: __ZN5Eigen7MapBaseINS_5BlockINS_6MatrixIdLin1ELin1ELi0ELin1ELin1EEELi1ELin1ELb0EEELi1EE4dataEv, symObjAddr: 0x14AC8, symBinAddr: 0x10001C9D8, symSize: 0x18 }
  - { offsetInCU: 0x98B9A, offset: 0xAC58A, size: 0x8, addend: 0x0, symName: __ZN5Eigen5BlockINS_9TransposeINS0_INS_6MatrixIdLin1ELin1ELi0ELin1ELin1EEELi1ELin1ELb0EEEEELin1ELi1ELb1EEC1ERS5_l, symObjAddr: 0x14AE0, symBinAddr: 0x10001C9F0, symSize: 0x3C }
  - { offsetInCU: 0x98BE0, offset: 0xAC5D0, size: 0x8, addend: 0x0, symName: __ZN5Eigen5BlockINS_9TransposeINS0_INS_6MatrixIdLin1ELin1ELi0ELin1ELin1EEELi1ELin1ELb0EEEEELin1ELi1ELb1EEC2ERS5_l, symObjAddr: 0x14B1C, symBinAddr: 0x10001CA2C, symSize: 0xAC }
  - { offsetInCU: 0x98C26, offset: 0xAC616, size: 0x8, addend: 0x0, symName: __ZN5Eigen9BlockImplINS_9TransposeINS_5BlockINS_6MatrixIdLin1ELin1ELi0ELin1ELin1EEELi1ELin1ELb0EEEEELin1ELi1ELb1ENS_5DenseEEC2ERS6_l, symObjAddr: 0x14BC8, symBinAddr: 0x10001CAD8, symSize: 0x3C }
  - { offsetInCU: 0x98C6C, offset: 0xAC65C, size: 0x8, addend: 0x0, symName: __ZNK5Eigen9TransposeINS_5BlockINS_6MatrixIdLin1ELin1ELi0ELin1ELin1EEELi1ELin1ELb0EEEE4colsEv, symObjAddr: 0x14C04, symBinAddr: 0x10001CB14, symSize: 0x24 }
  - { offsetInCU: 0x98C92, offset: 0xAC682, size: 0x8, addend: 0x0, symName: __ZN5Eigen8internal15BlockImpl_denseINS_9TransposeINS_5BlockINS_6MatrixIdLin1ELin1ELi0ELin1ELin1EEELi1ELin1ELb0EEEEELin1ELi1ELb1ELb1EEC2ERS7_l, symObjAddr: 0x14C28, symBinAddr: 0x10001CB38, symSize: 0xB8 }
  - { offsetInCU: 0x98CDA, offset: 0xAC6CA, size: 0x8, addend: 0x0, symName: __ZNK5Eigen13TransposeImplINS_5BlockINS_6MatrixIdLin1ELin1ELi0ELin1ELin1EEELi1ELin1ELb0EEENS_5DenseEE11outerStrideEv, symObjAddr: 0x14CE0, symBinAddr: 0x10001CBF0, symSize: 0x2C }
  - { offsetInCU: 0x98D00, offset: 0xAC6F0, size: 0x8, addend: 0x0, symName: __ZNK5Eigen9TransposeINS_5BlockINS_6MatrixIdLin1ELin1ELi0ELin1ELin1EEELi1ELin1ELb0EEEE4rowsEv, symObjAddr: 0x14D0C, symBinAddr: 0x10001CC1C, symSize: 0x24 }
  - { offsetInCU: 0x98D26, offset: 0xAC716, size: 0x8, addend: 0x0, symName: __ZN5Eigen7MapBaseINS_5BlockINS_9TransposeINS1_INS_6MatrixIdLin1ELin1ELi0ELin1ELin1EEELi1ELin1ELb0EEEEELin1ELi1ELb1EEELi1EEC2EPdll, symObjAddr: 0x14D30, symBinAddr: 0x10001CC40, symSize: 0x44 }
  - { offsetInCU: 0x98D7D, offset: 0xAC76D, size: 0x8, addend: 0x0, symName: __ZN5Eigen8internal15BlockImpl_denseINS_9TransposeINS_5BlockINS_6MatrixIdLin1ELin1ELi0ELin1ELin1EEELi1ELin1ELb0EEEEELin1ELi1ELb1ELb1EE4initEv, symObjAddr: 0x14D74, symBinAddr: 0x10001CC84, symSize: 0x34 }
  - { offsetInCU: 0x98DA3, offset: 0xAC793, size: 0x8, addend: 0x0, symName: __ZNK5Eigen9EigenBaseINS_9TransposeINS_5BlockINS_6MatrixIdLin1ELin1ELi0ELin1ELin1EEELi1ELin1ELb0EEEEEE7derivedEv, symObjAddr: 0x14DA8, symBinAddr: 0x10001CCB8, symSize: 0x14 }
  - { offsetInCU: 0x98DC9, offset: 0xAC7B9, size: 0x8, addend: 0x0, symName: __ZNK5Eigen9TransposeINS_5BlockINS_6MatrixIdLin1ELin1ELi0ELin1ELin1EEELi1ELin1ELb0EEEE16nestedExpressionEv, symObjAddr: 0x14DBC, symBinAddr: 0x10001CCCC, symSize: 0x14 }
  - { offsetInCU: 0x98DEF, offset: 0xAC7DF, size: 0x8, addend: 0x0, symName: __ZN5Eigen7MapBaseINS_5BlockINS_9TransposeINS1_INS_6MatrixIdLin1ELin1ELi0ELin1ELin1EEELi1ELin1ELb0EEEEELin1ELi1ELb1EEELi0EEC2EPdll, symObjAddr: 0x14DD0, symBinAddr: 0x10001CCE0, symSize: 0x11C }
  - { offsetInCU: 0x98E43, offset: 0xAC833, size: 0x8, addend: 0x0, symName: __ZN5Eigen10MatrixBaseINS_5BlockINS_9TransposeINS1_INS_6MatrixIdLin1ELin1ELi0ELin1ELin1EEELi1ELin1ELb0EEEEELin1ELi1ELb1EEEEC2Ev, symObjAddr: 0x14EEC, symBinAddr: 0x10001CDFC, symSize: 0x2C }
  - { offsetInCU: 0x98E6D, offset: 0xAC85D, size: 0x8, addend: 0x0, symName: __ZNK5Eigen7MapBaseINS_5BlockINS_9TransposeINS1_INS_6MatrixIdLin1ELin1ELi0ELin1ELin1EEELi1ELin1ELb0EEEEELin1ELi1ELb1EEELi0EE11checkSanityIS7_EEvNS_8internal9enable_ifIXeqsr8internal6traitsIT_EE9AlignmentLi0EEPvE4typeE, symObjAddr: 0x14F18, symBinAddr: 0x10001CE28, symSize: 0x14 }
  - { offsetInCU: 0x98EA7, offset: 0xAC897, size: 0x8, addend: 0x0, symName: __ZN5Eigen9DenseBaseINS_5BlockINS_9TransposeINS1_INS_6MatrixIdLin1ELin1ELi0ELin1ELin1EEELi1ELin1ELb0EEEEELin1ELi1ELb1EEEEC2Ev, symObjAddr: 0x14F2C, symBinAddr: 0x10001CE3C, symSize: 0x14 }
  - { offsetInCU: 0x98ED1, offset: 0xAC8C1, size: 0x8, addend: 0x0, symName: __ZNK5Eigen13TransposeImplINS_5BlockINS_6MatrixIdLin1ELin1ELi0ELin1ELin1EEELi1ELin1ELb0EEENS_5DenseEE11innerStrideEv, symObjAddr: 0x14F40, symBinAddr: 0x10001CE50, symSize: 0x2C }
  - { offsetInCU: 0x98EF7, offset: 0xAC8E7, size: 0x8, addend: 0x0, symName: __ZN5Eigen8internal19gemm_blocking_spaceILi0EddLin1ELin1ELin1ELi1ELb0EEC2Ellllb, symObjAddr: 0x14F6C, symBinAddr: 0x10001CE7C, symSize: 0xDC }
  - { offsetInCU: 0x98F89, offset: 0xAC979, size: 0x8, addend: 0x0, symName: __ZN5Eigen8internal15level3_blockingIddEC2Ev, symObjAddr: 0x15048, symBinAddr: 0x10001CF58, symSize: 0x28 }
  - { offsetInCU: 0x98FB3, offset: 0xAC9A3, size: 0x8, addend: 0x0, symName: __ZN5Eigen8internal10CacheSizesC1Ev, symObjAddr: 0x15A6C, symBinAddr: 0x10001D97C, symSize: 0x2C }
  - { offsetInCU: 0x98FDD, offset: 0xAC9CD, size: 0x8, addend: 0x0, symName: __ZN5Eigen8internal10CacheSizesC2Ev, symObjAddr: 0x15A98, symBinAddr: 0x10001D9A8, symSize: 0x88 }
  - { offsetInCU: 0x9903F, offset: 0xACA2F, size: 0x8, addend: 0x0, symName: __ZNK5Eigen8internal12gemm_functorIdlNS0_29general_matrix_matrix_productIldLi1ELb0EdLi0ELb0ELi0ELi1EEENS_9TransposeIKNS_6MatrixIdLin1ELin1ELi0ELin1ELin1EEEEES6_S6_NS0_19gemm_blocking_spaceILi0EddLin1ELin1ELin1ELi1ELb0EEEEclEllllPNS0_16GemmParallelInfoIlEE, symObjAddr: 0x15CDC, symBinAddr: 0x10001DB38, symSize: 0x158 }
  - { offsetInCU: 0x991F6, offset: 0xACBE6, size: 0x8, addend: 0x0, symName: __ZN5Eigen8internal29general_matrix_matrix_productIldLi1ELb0EdLi0ELb0ELi0ELi1EE3runElllPKdlS4_lPdlldRNS0_15level3_blockingIddEEPNS0_16GemmParallelInfoIlEE, symObjAddr: 0x15E34, symBinAddr: 0x10001DC90, symSize: 0xBAC }
  - { offsetInCU: 0x99974, offset: 0xAD364, size: 0x8, addend: 0x0, symName: __ZNK5Eigen13TransposeImplIKNS_6MatrixIdLin1ELin1ELi0ELin1ELin1EEENS_5DenseEE8coeffRefEll, symObjAddr: 0x169E0, symBinAddr: 0x10001E83C, symSize: 0x3C }
  - { offsetInCU: 0x999B6, offset: 0xAD3A6, size: 0x8, addend: 0x0, symName: __ZNK5Eigen15PlainObjectBaseINS_6MatrixIdLin1ELin1ELi0ELin1ELin1EEEE8coeffRefEll, symObjAddr: 0x16A1C, symBinAddr: 0x10001E878, symSize: 0x6C }
  - { offsetInCU: 0x999F8, offset: 0xAD3E8, size: 0x8, addend: 0x0, symName: __ZN5Eigen15PlainObjectBaseINS_6MatrixIdLin1ELin1ELi0ELin1ELin1EEEE8coeffRefEll, symObjAddr: 0x16A88, symBinAddr: 0x10001E8E4, symSize: 0x6C }
  - { offsetInCU: 0x99A3A, offset: 0xAD42A, size: 0x8, addend: 0x0, symName: __ZNK5Eigen8internal15level3_blockingIddE2kcEv, symObjAddr: 0x16AF4, symBinAddr: 0x10001E950, symSize: 0x18 }
  - { offsetInCU: 0x99A60, offset: 0xAD450, size: 0x8, addend: 0x0, symName: __ZNK5Eigen8internal15level3_blockingIddE2mcEv, symObjAddr: 0x16B0C, symBinAddr: 0x10001E968, symSize: 0x18 }
  - { offsetInCU: 0x99A86, offset: 0xAD476, size: 0x8, addend: 0x0, symName: __ZNK5Eigen8internal15level3_blockingIddE2ncEv, symObjAddr: 0x16B24, symBinAddr: 0x10001E980, symSize: 0x18 }
  - { offsetInCU: 0x99AAC, offset: 0xAD49C, size: 0x8, addend: 0x0, symName: __ZN5Eigen8internal15level3_blockingIddE6blockAEv, symObjAddr: 0x16B4C, symBinAddr: 0x10001E9A8, symSize: 0x18 }
  - { offsetInCU: 0x99AD2, offset: 0xAD4C2, size: 0x8, addend: 0x0, symName: __ZN5Eigen8internal15level3_blockingIddE6blockBEv, symObjAddr: 0x16B64, symBinAddr: 0x10001E9C0, symSize: 0x18 }
  - { offsetInCU: 0x99BEC, offset: 0xAD5DC, size: 0x8, addend: 0x0, symName: __ZN5Eigen8internal13gemm_pack_rhsIdlNS0_22const_blas_data_mapperIdlLi0EEELi4ELi0ELb0ELb0EEclEPdRKS3_llll, symObjAddr: 0x173F4, symBinAddr: 0x10001F250, symSize: 0x710 }
  - { offsetInCU: 0x9A3C1, offset: 0xADDB1, size: 0x8, addend: 0x0, symName: __ZNK5Eigen8internal7conj_ifILb0EEclIdEERKT_S6_, symObjAddr: 0x1CFC0, symBinAddr: 0x100024E1C, symSize: 0x18 }
  - { offsetInCU: 0x9A3FE, offset: 0xADDEE, size: 0x8, addend: 0x0, symName: __ZN5Eigen8internal11gebp_traitsIddLb0ELb0ELi0ELi0EE7initAccER19__simd128_float64_t, symObjAddr: 0x1CFF0, symBinAddr: 0x100024E4C, symSize: 0x38 }
  - { offsetInCU: 0x9A442, offset: 0xADE32, size: 0x8, addend: 0x0, symName: __ZNK5Eigen8internal11gebp_traitsIddLb0ELb0ELi0ELi0EE7loadLhsI19__simd128_float64_tEEvPKdRT_, symObjAddr: 0x1D028, symBinAddr: 0x100024E84, symSize: 0x34 }
  - { offsetInCU: 0x9A4C1, offset: 0xADEB1, size: 0x8, addend: 0x0, symName: __ZNK5Eigen8internal11gebp_traitsIddLb0ELb0ELi4ELi0EE7loadRhsEPKdRNS2_11RhsPacketx4E, symObjAddr: 0x1D05C, symBinAddr: 0x100024EB8, symSize: 0x58 }
  - { offsetInCU: 0x9A53E, offset: 0xADF2E, size: 0x8, addend: 0x0, symName: __ZNK5Eigen8internal11gebp_traitsIddLb0ELb0ELi4ELi0EE4maddERK19__simd128_float64_tRKNS2_11RhsPacketx4ERS3_RdRKNS0_8FixedIntILi0EEE, symObjAddr: 0x1D0B4, symBinAddr: 0x100024F10, symSize: 0x44 }
  - { offsetInCU: 0x9A5A4, offset: 0xADF94, size: 0x8, addend: 0x0, symName: __ZNK5Eigen8internal11gebp_traitsIddLb0ELb0ELi4ELi0EE9updateRhsEPKdRNS2_11RhsPacketx4E, symObjAddr: 0x1D0F8, symBinAddr: 0x100024F54, symSize: 0x18 }
  - { offsetInCU: 0x9A5E0, offset: 0xADFD0, size: 0x8, addend: 0x0, symName: __ZNK5Eigen8internal11gebp_traitsIddLb0ELb0ELi4ELi0EE4maddERK19__simd128_float64_tRKNS2_11RhsPacketx4ERS3_RdRKNS0_8FixedIntILi1EEE, symObjAddr: 0x1D110, symBinAddr: 0x100024F6C, symSize: 0x44 }
  - { offsetInCU: 0x9A646, offset: 0xAE036, size: 0x8, addend: 0x0, symName: __ZNK5Eigen8internal11gebp_traitsIddLb0ELb0ELi4ELi0EE4maddERK19__simd128_float64_tRKNS2_11RhsPacketx4ERS3_RdRKNS0_8FixedIntILi2EEE, symObjAddr: 0x1D154, symBinAddr: 0x100024FB0, symSize: 0x44 }
  - { offsetInCU: 0x9A6AC, offset: 0xAE09C, size: 0x8, addend: 0x0, symName: __ZNK5Eigen8internal11gebp_traitsIddLb0ELb0ELi4ELi0EE4maddERK19__simd128_float64_tRKNS2_11RhsPacketx4ERS3_RdRKNS0_8FixedIntILi3EEE, symObjAddr: 0x1D198, symBinAddr: 0x100024FF4, symSize: 0x44 }
  - { offsetInCU: 0x9A712, offset: 0xAE102, size: 0x8, addend: 0x0, symName: __ZNK5Eigen8internal11gebp_traitsIddLb0ELb0ELi0ELi0EE3accERK19__simd128_float64_tS5_RS3_, symObjAddr: 0x1D1DC, symBinAddr: 0x100025038, symSize: 0x40 }
  - { offsetInCU: 0x9A765, offset: 0xAE155, size: 0x8, addend: 0x0, symName: __ZNK5Eigen8internal11gebp_traitsIddLb0ELb0ELi4ELi0EE7loadRhsEPKdRd, symObjAddr: 0x1D21C, symBinAddr: 0x100025078, symSize: 0x28 }
  - { offsetInCU: 0x9A7A7, offset: 0xAE197, size: 0x8, addend: 0x0, symName: __ZNK5Eigen8internal11gebp_traitsIddLb0ELb0ELi4ELi0EE4maddERK19__simd128_float64_tRKdRS3_RdRKNS0_8FixedIntILi0EEE, symObjAddr: 0x1D244, symBinAddr: 0x1000250A0, symSize: 0xA4 }
  - { offsetInCU: 0x9A81C, offset: 0xAE20C, size: 0x8, addend: 0x0, symName: __ZN5Eigen8internal22lhs_process_one_packetILi4ELl2ELl1Eddd19__simd128_float64_tS2_dS2_NS0_11gebp_traitsIddLb0ELb0ELi4ELi0EEENS0_16BlasLinearMapperIdlLi0ELi1EEENS0_16blas_data_mapperIdlLi0ELi0ELi1EEEEclERKS8_PKdSD_dllllllilllll, symObjAddr: 0x1D2E8, symBinAddr: 0x100025144, symSize: 0x1134 }
  - { offsetInCU: 0x9B52E, offset: 0xAEF1E, size: 0x8, addend: 0x0, symName: __ZNK5Eigen8internal11conj_helperIddLb0ELb0EE5pmaddERKdS4_S4_, symObjAddr: 0x1E41C, symBinAddr: 0x100026278, symSize: 0x54 }
  - { offsetInCU: 0x9B57E, offset: 0xAEF6E, size: 0x8, addend: 0x0, symName: __ZNK5Eigen8internal11gebp_traitsIddLb0ELb0ELi4ELi0EE11madd_helperILi0EEEvRK19__simd128_float64_tRKNS2_11RhsPacketx4ERS4_, symObjAddr: 0x1E498, symBinAddr: 0x1000262F4, symSize: 0x68 }
  - { offsetInCU: 0x9B623, offset: 0xAF013, size: 0x8, addend: 0x0, symName: __ZNK5Eigen8internal11gebp_traitsIddLb0ELb0ELi4ELi0EE11madd_helperILi1EEEvRK19__simd128_float64_tRKNS2_11RhsPacketx4ERS4_, symObjAddr: 0x1E500, symBinAddr: 0x10002635C, symSize: 0x68 }
  - { offsetInCU: 0x9B6C8, offset: 0xAF0B8, size: 0x8, addend: 0x0, symName: __ZNK5Eigen8internal11gebp_traitsIddLb0ELb0ELi4ELi0EE11madd_helperILi2EEEvRK19__simd128_float64_tRKNS2_11RhsPacketx4ERS4_, symObjAddr: 0x1E568, symBinAddr: 0x1000263C4, symSize: 0x68 }
  - { offsetInCU: 0x9B76D, offset: 0xAF15D, size: 0x8, addend: 0x0, symName: __ZNK5Eigen8internal11gebp_traitsIddLb0ELb0ELi4ELi0EE11madd_helperILi3EEEvRK19__simd128_float64_tRKNS2_11RhsPacketx4ERS4_, symObjAddr: 0x1E5D0, symBinAddr: 0x10002642C, symSize: 0x68 }
  - { offsetInCU: 0x9B812, offset: 0xAF202, size: 0x8, addend: 0x0, symName: __ZN5Eigen8internal22lhs_process_one_packetILi4ELl2ELl1Eddd19__simd128_float64_tS2_dS2_NS0_11gebp_traitsIddLb0ELb0ELi4ELi0EEENS0_16BlasLinearMapperIdlLi0ELi1EEENS0_16blas_data_mapperIdlLi0ELi0ELi1EEEE17peeled_kc_onestepElPKdSB_S4_PS2_PNS4_11RhsPacketx4EPdSC_SC_SC_SC_, symObjAddr: 0x1E664, symBinAddr: 0x1000264C0, symSize: 0x124 }
  - { offsetInCU: 0x9B8DD, offset: 0xAF2CD, size: 0x8, addend: 0x0, symName: __ZNK5Eigen8internal11gebp_traitsIddLb0ELb0ELi0ELi0EE16loadLhsUnalignedI19__simd128_float64_tEEvPKdRT_, symObjAddr: 0x1E788, symBinAddr: 0x1000265E4, symSize: 0x34 }
  - { offsetInCU: 0x9B92A, offset: 0xAF31A, size: 0x8, addend: 0x0, symName: __ZN5Eigen8internal12gemm_functorIdlNS0_29general_matrix_matrix_productIldLi1ELb0EdLi0ELb0ELi0ELi1EEENS_9TransposeIKNS_6MatrixIdLin1ELin1ELi0ELin1ELin1EEEEES6_S6_NS0_19gemm_blocking_spaceILi0EddLin1ELin1ELin1ELi1ELb0EEEEC2ERKS8_RS7_RS6_RKdRSA_, symObjAddr: 0x1E824, symBinAddr: 0x100026680, symSize: 0x54 }
  - { offsetInCU: 0x9B99A, offset: 0xAF38A, size: 0x8, addend: 0x0, symName: __ZN5Eigen8internal19gemm_blocking_spaceILi0EddLin1ELin1ELin1ELi1ELb0EED2Ev, symObjAddr: 0x1E878, symBinAddr: 0x1000266D4, symSize: 0x50 }
  - { offsetInCU: 0x9B9C4, offset: 0xAF3B4, size: 0x8, addend: 0x0, symName: __ZN5Eigen8internal9evaluatorIKNS_14CwiseNullaryOpINS0_18scalar_constant_opIdEEKNS_6MatrixIdLin1ELin1ELi0ELin1ELin1EEEEEEC2ERS9_, symObjAddr: 0x1E950, symBinAddr: 0x1000267AC, symSize: 0x34 }
  - { offsetInCU: 0x9B9FC, offset: 0xAF3EC, size: 0x8, addend: 0x0, symName: __ZN5Eigen8internal9evaluatorINS_14CwiseNullaryOpINS0_18scalar_constant_opIdEEKNS_6MatrixIdLin1ELin1ELi0ELin1ELin1EEEEEEC2ERKS8_, symObjAddr: 0x1E984, symBinAddr: 0x1000267E0, symSize: 0x74 }
  - { offsetInCU: 0x9BA35, offset: 0xAF425, size: 0x8, addend: 0x0, symName: __ZN5Eigen8internal14evaluator_baseINS_14CwiseNullaryOpINS0_18scalar_constant_opIdEEKNS_6MatrixIdLin1ELin1ELi0ELin1ELin1EEEEEEC2Ev, symObjAddr: 0x1E9F8, symBinAddr: 0x100026854, symSize: 0x14 }
  - { offsetInCU: 0x9BA5F, offset: 0xAF44F, size: 0x8, addend: 0x0, symName: __ZNK5Eigen14CwiseNullaryOpINS_8internal18scalar_constant_opIdEEKNS_6MatrixIdLin1ELin1ELi0ELin1ELin1EEEE7functorEv, symObjAddr: 0x1EA0C, symBinAddr: 0x100026868, symSize: 0x18 }
  - { offsetInCU: 0x9BA85, offset: 0xAF475, size: 0x8, addend: 0x0, symName: __ZN5Eigen8internal14evaluator_baseINS_14CwiseNullaryOpINS0_18scalar_constant_opIdEEKNS_6MatrixIdLin1ELin1ELi0ELin1ELin1EEEEEED2Ev, symObjAddr: 0x1EA24, symBinAddr: 0x100026880, symSize: 0x14 }
  - { offsetInCU: 0x9BAAF, offset: 0xAF49F, size: 0x8, addend: 0x0, symName: __ZN5Eigen8internal9evaluatorIKNS_7ProductINS_9TransposeIKNS_6MatrixIdLin1ELin1ELi0ELin1ELin1EEEEES5_Li0EEEED2Ev, symObjAddr: 0x1EA38, symBinAddr: 0x100026894, symSize: 0x2C }
  - { offsetInCU: 0x9BADB, offset: 0xAF4CB, size: 0x8, addend: 0x0, symName: __ZN5Eigen8internal9evaluatorINS_7ProductINS_9TransposeIKNS_6MatrixIdLin1ELin1ELi0ELin1ELin1EEEEES5_Li0EEEED2Ev, symObjAddr: 0x1EA64, symBinAddr: 0x1000268C0, symSize: 0x2C }
  - { offsetInCU: 0x9BB07, offset: 0xAF4F7, size: 0x8, addend: 0x0, symName: __ZN5Eigen8internal17product_evaluatorINS_7ProductINS_9TransposeIKNS_6MatrixIdLin1ELin1ELi0ELin1ELin1EEEEES5_Li0EEELi8ENS_10DenseShapeES9_ddED2Ev, symObjAddr: 0x1EA90, symBinAddr: 0x1000268EC, symSize: 0x38 }
  - { offsetInCU: 0x9BB33, offset: 0xAF523, size: 0x8, addend: 0x0, symName: __ZN5Eigen8internal31generic_dense_assignment_kernelINS0_9evaluatorINS_6MatrixIdLin1ELin1ELi0ELin1ELin1EEEEENS2_INS_13CwiseBinaryOpINS0_18scalar_quotient_opIddEEKNS_7ProductINS_9TransposeIKS4_EES4_Li0EEEKNS_14CwiseNullaryOpINS0_18scalar_constant_opIdEESB_EEEEEENS0_9assign_opIddEELi0EEC2ERS5_RKSL_RKSN_RS4_, symObjAddr: 0x1EAC8, symBinAddr: 0x100026924, symSize: 0x44 }
  - { offsetInCU: 0x9BB99, offset: 0xAF589, size: 0x8, addend: 0x0, symName: __ZNK5Eigen8internal31generic_dense_assignment_kernelINS0_9evaluatorINS_6MatrixIdLin1ELin1ELi0ELin1ELin1EEEEENS2_INS_13CwiseBinaryOpINS0_18scalar_quotient_opIddEEKNS_7ProductINS_9TransposeIKS4_EES4_Li0EEEKNS_14CwiseNullaryOpINS0_18scalar_constant_opIdEESB_EEEEEENS0_9assign_opIddEELi0EE4sizeEv, symObjAddr: 0x1EB0C, symBinAddr: 0x100026968, symSize: 0x28 }
  - { offsetInCU: 0x9BBBF, offset: 0xAF5AF, size: 0x8, addend: 0x0, symName: __ZN5Eigen8internal31unaligned_dense_assignment_loopILb1EE3runINS0_31generic_dense_assignment_kernelINS0_9evaluatorINS_6MatrixIdLin1ELin1ELi0ELin1ELin1EEEEENS5_INS_13CwiseBinaryOpINS0_18scalar_quotient_opIddEEKNS_7ProductINS_9TransposeIKS7_EES7_Li0EEEKNS_14CwiseNullaryOpINS0_18scalar_constant_opIdEESE_EEEEEENS0_9assign_opIddEELi0EEEEEvRT_ll, symObjAddr: 0x1EB34, symBinAddr: 0x100026990, symSize: 0x18 }
  - { offsetInCU: 0x9BC01, offset: 0xAF5F1, size: 0x8, addend: 0x0, symName: __ZN5Eigen8internal31generic_dense_assignment_kernelINS0_9evaluatorINS_6MatrixIdLin1ELin1ELi0ELin1ELin1EEEEENS2_INS_13CwiseBinaryOpINS0_18scalar_quotient_opIddEEKNS_7ProductINS_9TransposeIKS4_EES4_Li0EEEKNS_14CwiseNullaryOpINS0_18scalar_constant_opIdEESB_EEEEEENS0_9assign_opIddEELi0EE12assignPacketILi16ELi16E19__simd128_float64_tEEvl, symObjAddr: 0x1EB4C, symBinAddr: 0x1000269A8, symSize: 0x64 }
  - { offsetInCU: 0x9BC52, offset: 0xAF642, size: 0x8, addend: 0x0, symName: __ZN5Eigen8internal31unaligned_dense_assignment_loopILb0EE3runINS0_31generic_dense_assignment_kernelINS0_9evaluatorINS_6MatrixIdLin1ELin1ELi0ELin1ELin1EEEEENS5_INS_13CwiseBinaryOpINS0_18scalar_quotient_opIddEEKNS_7ProductINS_9TransposeIKS7_EES7_Li0EEEKNS_14CwiseNullaryOpINS0_18scalar_constant_opIdEESE_EEEEEENS0_9assign_opIddEELi0EEEEEvRT_ll, symObjAddr: 0x1EBB0, symBinAddr: 0x100026A0C, symSize: 0x68 }
  - { offsetInCU: 0x9BCBB, offset: 0xAF6AB, size: 0x8, addend: 0x0, symName: __ZNK5Eigen8internal9assign_opIddE12assignPacketILi16E19__simd128_float64_tEEvPdRKT0_, symObjAddr: 0x1EC18, symBinAddr: 0x100026A74, symSize: 0x40 }
  - { offsetInCU: 0x9BD38, offset: 0xAF728, size: 0x8, addend: 0x0, symName: __ZN5Eigen8internal9evaluatorINS_15PlainObjectBaseINS_6MatrixIdLin1ELin1ELi0ELin1ELin1EEEEEE8coeffRefEl, symObjAddr: 0x1EC58, symBinAddr: 0x100026AB4, symSize: 0x24 }
  - { offsetInCU: 0x9BD6C, offset: 0xAF75C, size: 0x8, addend: 0x0, symName: __ZNK5Eigen8internal16binary_evaluatorINS_13CwiseBinaryOpINS0_18scalar_quotient_opIddEEKNS_7ProductINS_9TransposeIKNS_6MatrixIdLin1ELin1ELi0ELin1ELin1EEEEES8_Li0EEEKNS_14CwiseNullaryOpINS0_18scalar_constant_opIdEES9_EEEENS0_10IndexBasedESJ_ddE6packetILi16E19__simd128_float64_tEET0_l, symObjAddr: 0x1EC7C, symBinAddr: 0x100026AD8, symSize: 0x70 }
  - { offsetInCU: 0x9BDB4, offset: 0xAF7A4, size: 0x8, addend: 0x0, symName: __ZNK5Eigen8internal16binary_evaluatorINS_13CwiseBinaryOpINS0_18scalar_quotient_opIddEEKNS_7ProductINS_9TransposeIKNS_6MatrixIdLin1ELin1ELi0ELin1ELin1EEEEES8_Li0EEEKNS_14CwiseNullaryOpINS0_18scalar_constant_opIdEES9_EEEENS0_10IndexBasedESJ_ddE4Data4funcEv, symObjAddr: 0x1ECEC, symBinAddr: 0x100026B48, symSize: 0x14 }
  - { offsetInCU: 0x9BDDA, offset: 0xAF7CA, size: 0x8, addend: 0x0, symName: __ZNK5Eigen8internal18scalar_quotient_opIddE8packetOpI19__simd128_float64_tEEKT_RS6_S7_, symObjAddr: 0x1ED00, symBinAddr: 0x100026B5C, symSize: 0x30 }
  - { offsetInCU: 0x9BE27, offset: 0xAF817, size: 0x8, addend: 0x0, symName: __ZNK5Eigen8internal9evaluatorINS_15PlainObjectBaseINS_6MatrixIdLin1ELin1ELi0ELin1ELin1EEEEEE6packetILi16E19__simd128_float64_tEET0_l, symObjAddr: 0x1ED30, symBinAddr: 0x100026B8C, symSize: 0x3C }
  - { offsetInCU: 0x9BE97, offset: 0xAF887, size: 0x8, addend: 0x0, symName: __ZNK5Eigen8internal9evaluatorINS_14CwiseNullaryOpINS0_18scalar_constant_opIdEEKNS_6MatrixIdLin1ELin1ELi0ELin1ELin1EEEEEE6packetILi16E19__simd128_float64_tlEET0_T1_, symObjAddr: 0x1ED6C, symBinAddr: 0x100026BC8, symSize: 0x38 }
  - { offsetInCU: 0x9BEE8, offset: 0xAF8D8, size: 0x8, addend: 0x0, symName: __ZNK5Eigen8internal15nullary_wrapperIdNS0_18scalar_constant_opIdEELb1ELb0ELb0EE8packetOpI19__simd128_float64_tlEET_RKS3_T0_SA_, symObjAddr: 0x1EDE4, symBinAddr: 0x100026C40, symSize: 0x30 }
  - { offsetInCU: 0x9BF47, offset: 0xAF937, size: 0x8, addend: 0x0, symName: __ZNK5Eigen8internal18scalar_constant_opIdE8packetOpI19__simd128_float64_tEEKT_v, symObjAddr: 0x1EE14, symBinAddr: 0x100026C70, symSize: 0x24 }
  - { offsetInCU: 0x9BF76, offset: 0xAF966, size: 0x8, addend: 0x0, symName: __ZN5Eigen8internal31generic_dense_assignment_kernelINS0_9evaluatorINS_6MatrixIdLin1ELin1ELi0ELin1ELin1EEEEENS2_INS_13CwiseBinaryOpINS0_18scalar_quotient_opIddEEKNS_7ProductINS_9TransposeIKS4_EES4_Li0EEEKNS_14CwiseNullaryOpINS0_18scalar_constant_opIdEESB_EEEEEENS0_9assign_opIddEELi0EE11assignCoeffEl, symObjAddr: 0x1EE38, symBinAddr: 0x100026C94, symSize: 0x64 }
  - { offsetInCU: 0x9BFAB, offset: 0xAF99B, size: 0x8, addend: 0x0, symName: __ZNK5Eigen8internal16binary_evaluatorINS_13CwiseBinaryOpINS0_18scalar_quotient_opIddEEKNS_7ProductINS_9TransposeIKNS_6MatrixIdLin1ELin1ELi0ELin1ELin1EEEEES8_Li0EEEKNS_14CwiseNullaryOpINS0_18scalar_constant_opIdEES9_EEEENS0_10IndexBasedESJ_ddE5coeffEl, symObjAddr: 0x1EE9C, symBinAddr: 0x100026CF8, symSize: 0x68 }
  - { offsetInCU: 0x9BFE0, offset: 0xAF9D0, size: 0x8, addend: 0x0, symName: __ZNK5Eigen8internal9evaluatorINS_15PlainObjectBaseINS_6MatrixIdLin1ELin1ELi0ELin1ELin1EEEEEE5coeffEl, symObjAddr: 0x1EF04, symBinAddr: 0x100026D60, symSize: 0x24 }
  - { offsetInCU: 0x9C014, offset: 0xAFA04, size: 0x8, addend: 0x0, symName: __ZNK5Eigen8internal9evaluatorINS_14CwiseNullaryOpINS0_18scalar_constant_opIdEEKNS_6MatrixIdLin1ELin1ELi0ELin1ELin1EEEEEE5coeffIlEEdT_, symObjAddr: 0x1EF28, symBinAddr: 0x100026D84, symSize: 0x38 }
  - { offsetInCU: 0x9C052, offset: 0xAFA42, size: 0x8, addend: 0x0, symName: __ZN5Eigen8internal9evaluatorINS_13CwiseBinaryOpINS0_18scalar_quotient_opIddEEKNS_7ProductINS_9TransposeIKNS_6MatrixIdLin1ELin1ELi0ELin1ELin1EEEEES8_Li0EEEKNS_14CwiseNullaryOpINS0_18scalar_constant_opIdEES9_EEEEED2Ev, symObjAddr: 0x1EF60, symBinAddr: 0x100026DBC, symSize: 0x2C }
  - { offsetInCU: 0x9C07F, offset: 0xAFA6F, size: 0x8, addend: 0x0, symName: __ZN5Eigen8internal16binary_evaluatorINS_13CwiseBinaryOpINS0_18scalar_quotient_opIddEEKNS_7ProductINS_9TransposeIKNS_6MatrixIdLin1ELin1ELi0ELin1ELin1EEEEES8_Li0EEEKNS_14CwiseNullaryOpINS0_18scalar_constant_opIdEES9_EEEENS0_10IndexBasedESJ_ddED2Ev, symObjAddr: 0x1EF8C, symBinAddr: 0x100026DE8, symSize: 0x34 }
  - { offsetInCU: 0x9C0AB, offset: 0xAFA9B, size: 0x8, addend: 0x0, symName: __ZN5Eigen8internal16binary_evaluatorINS_13CwiseBinaryOpINS0_18scalar_quotient_opIddEEKNS_7ProductINS_9TransposeIKNS_6MatrixIdLin1ELin1ELi0ELin1ELin1EEEEES8_Li0EEEKNS_14CwiseNullaryOpINS0_18scalar_constant_opIdEES9_EEEENS0_10IndexBasedESJ_ddE4DataD1Ev, symObjAddr: 0x1EFC0, symBinAddr: 0x100026E1C, symSize: 0x2C }
  - { offsetInCU: 0x9C0D8, offset: 0xAFAC8, size: 0x8, addend: 0x0, symName: __ZN5Eigen8internal16binary_evaluatorINS_13CwiseBinaryOpINS0_18scalar_quotient_opIddEEKNS_7ProductINS_9TransposeIKNS_6MatrixIdLin1ELin1ELi0ELin1ELin1EEEEES8_Li0EEEKNS_14CwiseNullaryOpINS0_18scalar_constant_opIdEES9_EEEENS0_10IndexBasedESJ_ddE4DataD2Ev, symObjAddr: 0x1EFEC, symBinAddr: 0x100026E48, symSize: 0x3C }
  - { offsetInCU: 0x9C105, offset: 0xAFAF5, size: 0x8, addend: 0x0, symName: __ZN5Eigen8internal9evaluatorIKNS_14CwiseNullaryOpINS0_18scalar_constant_opIdEEKNS_6MatrixIdLin1ELin1ELi0ELin1ELin1EEEEEED1Ev, symObjAddr: 0x1F028, symBinAddr: 0x100026E84, symSize: 0x2C }
  - { offsetInCU: 0x9C131, offset: 0xAFB21, size: 0x8, addend: 0x0, symName: __ZN5Eigen8internal9evaluatorIKNS_14CwiseNullaryOpINS0_18scalar_constant_opIdEEKNS_6MatrixIdLin1ELin1ELi0ELin1ELin1EEEEEED2Ev, symObjAddr: 0x1F054, symBinAddr: 0x100026EB0, symSize: 0x2C }
  - { offsetInCU: 0x9C15D, offset: 0xAFB4D, size: 0x8, addend: 0x0, symName: __ZN5Eigen8internal9evaluatorINS_14CwiseNullaryOpINS0_18scalar_constant_opIdEEKNS_6MatrixIdLin1ELin1ELi0ELin1ELin1EEEEEED2Ev, symObjAddr: 0x1F080, symBinAddr: 0x100026EDC, symSize: 0x2C }
  - { offsetInCU: 0x9C189, offset: 0xAFB79, size: 0x8, addend: 0x0, symName: __ZN5Eigen8internal8FixedIntILi0EEC2Ev, symObjAddr: 0x1F0AC, symBinAddr: 0x100026F08, symSize: 0x14 }
  - { offsetInCU: 0x9C1B3, offset: 0xAFBA3, size: 0x8, addend: 0x0, symName: __ZN5Eigen8internal8FixedIntILi2EEC2Ev, symObjAddr: 0x1F0C0, symBinAddr: 0x100026F1C, symSize: 0x14 }
  - { offsetInCU: 0x9C1DD, offset: 0xAFBCD, size: 0x8, addend: 0x0, symName: __ZN5Eigen8internal8FixedIntILi3EEC2Ev, symObjAddr: 0x1F0D4, symBinAddr: 0x100026F30, symSize: 0x14 }
  - { offsetInCU: 0x9C207, offset: 0xAFBF7, size: 0x8, addend: 0x0, symName: __ZN5Eigen12ArrayWrapperINS_6MatrixIdLin1ELin1ELi0ELin1ELin1EEEEC1ERS2_, symObjAddr: 0x1F0E8, symBinAddr: 0x100026F44, symSize: 0x34 }
  - { offsetInCU: 0x9C23F, offset: 0xAFC2F, size: 0x8, addend: 0x0, symName: __ZN5Eigen12ArrayWrapperINS_6MatrixIdLin1ELin1ELi0ELin1ELin1EEEEC2ERS2_, symObjAddr: 0x1F11C, symBinAddr: 0x100026F78, symSize: 0x38 }
  - { offsetInCU: 0x9C277, offset: 0xAFC67, size: 0x8, addend: 0x0, symName: __ZN5Eigen9ArrayBaseINS_12ArrayWrapperINS_6MatrixIdLin1ELin1ELi0ELin1ELin1EEEEEEC2Ev, symObjAddr: 0x1F154, symBinAddr: 0x100026FB0, symSize: 0x2C }
  - { offsetInCU: 0x9C2A1, offset: 0xAFC91, size: 0x8, addend: 0x0, symName: __ZN5Eigen9DenseBaseINS_12ArrayWrapperINS_6MatrixIdLin1ELin1ELi0ELin1ELin1EEEEEEC2Ev, symObjAddr: 0x1F180, symBinAddr: 0x100026FDC, symSize: 0x14 }
  - { offsetInCU: 0x9C2CB, offset: 0xAFCBB, size: 0x8, addend: 0x0, symName: __ZNK5Eigen9EigenBaseINS_12ArrayWrapperINS_6MatrixIdLin1ELin1ELi0ELin1ELin1EEEEEE7derivedEv, symObjAddr: 0x1F194, symBinAddr: 0x100026FF0, symSize: 0x14 }
  - { offsetInCU: 0x9C2F1, offset: 0xAFCE1, size: 0x8, addend: 0x0, symName: __ZN5Eigen8internal16scalar_square_opIdEC1Ev, symObjAddr: 0x1F1A8, symBinAddr: 0x100027004, symSize: 0x2C }
  - { offsetInCU: 0x9C31B, offset: 0xAFD0B, size: 0x8, addend: 0x0, symName: __ZN5Eigen12CwiseUnaryOpINS_8internal16scalar_square_opIdEEKNS_12ArrayWrapperINS_6MatrixIdLin1ELin1ELi0ELin1ELin1EEEEEEC1ERS8_RKS3_, symObjAddr: 0x1F1D4, symBinAddr: 0x100027030, symSize: 0x3C }
  - { offsetInCU: 0x9C361, offset: 0xAFD51, size: 0x8, addend: 0x0, symName: __ZN5Eigen8internal16scalar_square_opIdEC2Ev, symObjAddr: 0x1F210, symBinAddr: 0x10002706C, symSize: 0x14 }
  - { offsetInCU: 0x9C38B, offset: 0xAFD7B, size: 0x8, addend: 0x0, symName: __ZN5Eigen12CwiseUnaryOpINS_8internal16scalar_square_opIdEEKNS_12ArrayWrapperINS_6MatrixIdLin1ELin1ELi0ELin1ELin1EEEEEEC2ERS8_RKS3_, symObjAddr: 0x1F224, symBinAddr: 0x100027080, symSize: 0x50 }
  - { offsetInCU: 0x9C3D6, offset: 0xAFDC6, size: 0x8, addend: 0x0, symName: __ZN5Eigen16CwiseUnaryOpImplINS_8internal16scalar_square_opIdEEKNS_12ArrayWrapperINS_6MatrixIdLin1ELin1ELi0ELin1ELin1EEEEENS_5DenseEEC2Ev, symObjAddr: 0x1F274, symBinAddr: 0x1000270D0, symSize: 0x2C }
  - { offsetInCU: 0x9C402, offset: 0xAFDF2, size: 0x8, addend: 0x0, symName: __ZN5Eigen8internal16scalar_square_opIdEC1ERKS2_, symObjAddr: 0x1F2A0, symBinAddr: 0x1000270FC, symSize: 0x34 }
  - { offsetInCU: 0x9C438, offset: 0xAFE28, size: 0x8, addend: 0x0, symName: __ZN5Eigen9ArrayBaseINS_12CwiseUnaryOpINS_8internal16scalar_square_opIdEEKNS_12ArrayWrapperINS_6MatrixIdLin1ELin1ELi0ELin1ELin1EEEEEEEEC2Ev, symObjAddr: 0x1F2D4, symBinAddr: 0x100027130, symSize: 0x2C }
  - { offsetInCU: 0x9C462, offset: 0xAFE52, size: 0x8, addend: 0x0, symName: __ZN5Eigen9DenseBaseINS_12CwiseUnaryOpINS_8internal16scalar_square_opIdEEKNS_12ArrayWrapperINS_6MatrixIdLin1ELin1ELi0ELin1ELin1EEEEEEEEC2Ev, symObjAddr: 0x1F300, symBinAddr: 0x10002715C, symSize: 0x14 }
  - { offsetInCU: 0x9C48C, offset: 0xAFE7C, size: 0x8, addend: 0x0, symName: __ZN5Eigen8internal16scalar_square_opIdEC2ERKS2_, symObjAddr: 0x1F314, symBinAddr: 0x100027170, symSize: 0x18 }
  - { offsetInCU: 0x9C4C2, offset: 0xAFEB2, size: 0x8, addend: 0x0, symName: __ZNK5Eigen9EigenBaseINS_12CwiseUnaryOpINS_8internal16scalar_square_opIdEEKNS_12ArrayWrapperINS_6MatrixIdLin1ELin1ELi0ELin1ELin1EEEEEEEE7derivedEv, symObjAddr: 0x1F32C, symBinAddr: 0x100027188, symSize: 0x14 }
  - { offsetInCU: 0x9C4E8, offset: 0xAFED8, size: 0x8, addend: 0x0, symName: __ZN5Eigen12VectorwiseOpIKNS_12CwiseUnaryOpINS_8internal16scalar_square_opIdEEKNS_12ArrayWrapperINS_6MatrixIdLin1ELin1ELi0ELin1ELin1EEEEEEELi0EEC1ERSB_, symObjAddr: 0x1F340, symBinAddr: 0x10002719C, symSize: 0x34 }
  - { offsetInCU: 0x9C521, offset: 0xAFF11, size: 0x8, addend: 0x0, symName: __ZN5Eigen12VectorwiseOpIKNS_12CwiseUnaryOpINS_8internal16scalar_square_opIdEEKNS_12ArrayWrapperINS_6MatrixIdLin1ELin1ELi0ELin1ELin1EEEEEEELi0EEC2ERSB_, symObjAddr: 0x1F374, symBinAddr: 0x1000271D0, symSize: 0x34 }
  - { offsetInCU: 0x9C55A, offset: 0xAFF4A, size: 0x8, addend: 0x0, symName: __ZN5Eigen12CwiseUnaryOpINS_8internal16scalar_square_opIdEEKNS_12ArrayWrapperINS_6MatrixIdLin1ELin1ELi0ELin1ELin1EEEEEEC1ERKS9_, symObjAddr: 0x1F3A8, symBinAddr: 0x100027204, symSize: 0x34 }
  - { offsetInCU: 0x9C58F, offset: 0xAFF7F, size: 0x8, addend: 0x0, symName: __ZN5Eigen12CwiseUnaryOpINS_8internal16scalar_square_opIdEEKNS_12ArrayWrapperINS_6MatrixIdLin1ELin1ELi0ELin1ELin1EEEEEEC2ERKS9_, symObjAddr: 0x1F3DC, symBinAddr: 0x100027238, symSize: 0x48 }
  - { offsetInCU: 0x9C5C4, offset: 0xAFFB4, size: 0x8, addend: 0x0, symName: __ZNK5Eigen12VectorwiseOpIKNS_12CwiseUnaryOpINS_8internal16scalar_square_opIdEEKNS_12ArrayWrapperINS_6MatrixIdLin1ELin1ELi0ELin1ELin1EEEEEEELi0EE11_expressionEv, symObjAddr: 0x1F424, symBinAddr: 0x100027280, symSize: 0x14 }
  - { offsetInCU: 0x9C5EA, offset: 0xAFFDA, size: 0x8, addend: 0x0, symName: __ZN5Eigen16PartialReduxExprIKNS_12CwiseUnaryOpINS_8internal16scalar_square_opIdEEKNS_12ArrayWrapperINS_6MatrixIdLin1ELin1ELi0ELin1ELin1EEEEEEENS2_10member_sumIddEELi0EEC1ERSB_RKSD_, symObjAddr: 0x1F438, symBinAddr: 0x100027294, symSize: 0x3C }
  - { offsetInCU: 0x9C630, offset: 0xB0020, size: 0x8, addend: 0x0, symName: __ZN5Eigen16PartialReduxExprIKNS_12CwiseUnaryOpINS_8internal16scalar_square_opIdEEKNS_12ArrayWrapperINS_6MatrixIdLin1ELin1ELi0ELin1ELin1EEEEEEENS2_10member_sumIddEELi0EEC2ERSB_RKSD_, symObjAddr: 0x1F474, symBinAddr: 0x1000272D0, symSize: 0x54 }
  - { offsetInCU: 0x9C676, offset: 0xB0066, size: 0x8, addend: 0x0, symName: __ZN5Eigen9ArrayBaseINS_16PartialReduxExprIKNS_12CwiseUnaryOpINS_8internal16scalar_square_opIdEEKNS_12ArrayWrapperINS_6MatrixIdLin1ELin1ELi0ELin1ELin1EEEEEEENS3_10member_sumIddEELi0EEEEC2Ev, symObjAddr: 0x1F4C8, symBinAddr: 0x100027324, symSize: 0x2C }
  - { offsetInCU: 0x9C6A0, offset: 0xB0090, size: 0x8, addend: 0x0, symName: __ZN5Eigen9DenseBaseINS_16PartialReduxExprIKNS_12CwiseUnaryOpINS_8internal16scalar_square_opIdEEKNS_12ArrayWrapperINS_6MatrixIdLin1ELin1ELi0ELin1ELin1EEEEEEENS3_10member_sumIddEELi0EEEEC2Ev, symObjAddr: 0x1F4F4, symBinAddr: 0x100027350, symSize: 0x14 }
  - { offsetInCU: 0x9C6CA, offset: 0xB00BA, size: 0x8, addend: 0x0, symName: __ZNK5Eigen9EigenBaseINS_16PartialReduxExprIKNS_12CwiseUnaryOpINS_8internal16scalar_square_opIdEEKNS_12ArrayWrapperINS_6MatrixIdLin1ELin1ELi0ELin1ELin1EEEEEEENS3_10member_sumIddEELi0EEEE7derivedEv, symObjAddr: 0x1F508, symBinAddr: 0x100027364, symSize: 0x14 }
  - { offsetInCU: 0x9C6F0, offset: 0xB00E0, size: 0x8, addend: 0x0, symName: __ZNK5Eigen16PartialReduxExprIKNS_12CwiseUnaryOpINS_8internal16scalar_square_opIdEEKNS_12ArrayWrapperINS_6MatrixIdLin1ELin1ELi0ELin1ELin1EEEEEEENS2_10member_sumIddEELi0EE4rowsEv, symObjAddr: 0x1F51C, symBinAddr: 0x100027378, symSize: 0x14 }
  - { offsetInCU: 0x9C716, offset: 0xB0106, size: 0x8, addend: 0x0, symName: __ZNK5Eigen16PartialReduxExprIKNS_12CwiseUnaryOpINS_8internal16scalar_square_opIdEEKNS_12ArrayWrapperINS_6MatrixIdLin1ELin1ELi0ELin1ELin1EEEEEEENS2_10member_sumIddEELi0EE4colsEv, symObjAddr: 0x1F530, symBinAddr: 0x10002738C, symSize: 0x28 }
  - { offsetInCU: 0x9C73C, offset: 0xB012C, size: 0x8, addend: 0x0, symName: __ZN5Eigen14CwiseNullaryOpINS_8internal18scalar_constant_opIdEEKNS_5ArrayIdLi1ELin1ELi1ELi1ELin1EEEEC1EllRKS3_, symObjAddr: 0x1F558, symBinAddr: 0x1000273B4, symSize: 0x44 }
  - { offsetInCU: 0x9C790, offset: 0xB0180, size: 0x8, addend: 0x0, symName: __ZN5Eigen13CwiseBinaryOpINS_8internal18scalar_quotient_opIddEEKNS_16PartialReduxExprIKNS_12CwiseUnaryOpINS1_16scalar_square_opIdEEKNS_12ArrayWrapperINS_6MatrixIdLin1ELin1ELi0ELin1ELin1EEEEEEENS1_10member_sumIddEELi0EEEKNS_14CwiseNullaryOpINS1_18scalar_constant_opIdEEKNS_5ArrayIdLi1ELin1ELi1ELi1ELin1EEEEEEC1ERSI_RSQ_RKS3_, symObjAddr: 0x1F59C, symBinAddr: 0x1000273F8, symSize: 0x44 }
  - { offsetInCU: 0x9C7E4, offset: 0xB01D4, size: 0x8, addend: 0x0, symName: __ZNK5Eigen12CwiseUnaryOpINS_8internal16scalar_square_opIdEEKNS_12ArrayWrapperINS_6MatrixIdLin1ELin1ELi0ELin1ELin1EEEEEE4colsEv, symObjAddr: 0x1F5E0, symBinAddr: 0x10002743C, symSize: 0x24 }
  - { offsetInCU: 0x9C80A, offset: 0xB01FA, size: 0x8, addend: 0x0, symName: __ZNK5Eigen12ArrayWrapperINS_6MatrixIdLin1ELin1ELi0ELin1ELin1EEEE4colsEv, symObjAddr: 0x1F604, symBinAddr: 0x100027460, symSize: 0x28 }
  - { offsetInCU: 0x9C830, offset: 0xB0220, size: 0x8, addend: 0x0, symName: __ZN5Eigen14CwiseNullaryOpINS_8internal18scalar_constant_opIdEEKNS_5ArrayIdLi1ELin1ELi1ELi1ELin1EEEEC2EllRKS3_, symObjAddr: 0x1F62C, symBinAddr: 0x100027488, symSize: 0xFC }
  - { offsetInCU: 0x9C884, offset: 0xB0274, size: 0x8, addend: 0x0, symName: __ZN5Eigen9ArrayBaseINS_14CwiseNullaryOpINS_8internal18scalar_constant_opIdEEKNS_5ArrayIdLi1ELin1ELi1ELi1ELin1EEEEEEC2Ev, symObjAddr: 0x1F728, symBinAddr: 0x100027584, symSize: 0x2C }
  - { offsetInCU: 0x9C8AE, offset: 0xB029E, size: 0x8, addend: 0x0, symName: __ZN5Eigen9DenseBaseINS_14CwiseNullaryOpINS_8internal18scalar_constant_opIdEEKNS_5ArrayIdLi1ELin1ELi1ELi1ELin1EEEEEEC2Ev, symObjAddr: 0x1F754, symBinAddr: 0x1000275B0, symSize: 0x14 }
  - { offsetInCU: 0x9C8D8, offset: 0xB02C8, size: 0x8, addend: 0x0, symName: __ZN5Eigen13CwiseBinaryOpINS_8internal18scalar_quotient_opIddEEKNS_16PartialReduxExprIKNS_12CwiseUnaryOpINS1_16scalar_square_opIdEEKNS_12ArrayWrapperINS_6MatrixIdLin1ELin1ELi0ELin1ELin1EEEEEEENS1_10member_sumIddEELi0EEEKNS_14CwiseNullaryOpINS1_18scalar_constant_opIdEEKNS_5ArrayIdLi1ELin1ELi1ELi1ELin1EEEEEEC2ERSI_RSQ_RKS3_, symObjAddr: 0x1F768, symBinAddr: 0x1000275C4, symSize: 0xFC }
  - { offsetInCU: 0x9C931, offset: 0xB0321, size: 0x8, addend: 0x0, symName: __ZN5Eigen17CwiseBinaryOpImplINS_8internal18scalar_quotient_opIddEEKNS_16PartialReduxExprIKNS_12CwiseUnaryOpINS1_16scalar_square_opIdEEKNS_12ArrayWrapperINS_6MatrixIdLin1ELin1ELi0ELin1ELin1EEEEEEENS1_10member_sumIddEELi0EEEKNS_14CwiseNullaryOpINS1_18scalar_constant_opIdEEKNS_5ArrayIdLi1ELin1ELi1ELi1ELin1EEEEENS_5DenseEEC2Ev, symObjAddr: 0x1F864, symBinAddr: 0x1000276C0, symSize: 0x2C }
  - { offsetInCU: 0x9C95D, offset: 0xB034D, size: 0x8, addend: 0x0, symName: __ZN5Eigen16PartialReduxExprIKNS_12CwiseUnaryOpINS_8internal16scalar_square_opIdEEKNS_12ArrayWrapperINS_6MatrixIdLin1ELin1ELi0ELin1ELin1EEEEEEENS2_10member_sumIddEELi0EEC1ERKSE_, symObjAddr: 0x1F890, symBinAddr: 0x1000276EC, symSize: 0x34 }
  - { offsetInCU: 0x9C992, offset: 0xB0382, size: 0x8, addend: 0x0, symName: __ZN5Eigen14CwiseNullaryOpINS_8internal18scalar_constant_opIdEEKNS_5ArrayIdLi1ELin1ELi1ELi1ELin1EEEEC1ERKS7_, symObjAddr: 0x1F8C4, symBinAddr: 0x100027720, symSize: 0x34 }
  - { offsetInCU: 0x9C9C7, offset: 0xB03B7, size: 0x8, addend: 0x0, symName: __ZNK5Eigen14CwiseNullaryOpINS_8internal18scalar_constant_opIdEEKNS_5ArrayIdLi1ELin1ELi1ELi1ELin1EEEE4rowsEv, symObjAddr: 0x1F8F8, symBinAddr: 0x100027754, symSize: 0x20 }
  - { offsetInCU: 0x9C9ED, offset: 0xB03DD, size: 0x8, addend: 0x0, symName: __ZNK5Eigen14CwiseNullaryOpINS_8internal18scalar_constant_opIdEEKNS_5ArrayIdLi1ELin1ELi1ELi1ELin1EEEE4colsEv, symObjAddr: 0x1F918, symBinAddr: 0x100027774, symSize: 0x28 }
  - { offsetInCU: 0x9CA13, offset: 0xB0403, size: 0x8, addend: 0x0, symName: __ZN5Eigen9ArrayBaseINS_13CwiseBinaryOpINS_8internal18scalar_quotient_opIddEEKNS_16PartialReduxExprIKNS_12CwiseUnaryOpINS2_16scalar_square_opIdEEKNS_12ArrayWrapperINS_6MatrixIdLin1ELin1ELi0ELin1ELin1EEEEEEENS2_10member_sumIddEELi0EEEKNS_14CwiseNullaryOpINS2_18scalar_constant_opIdEEKNS_5ArrayIdLi1ELin1ELi1ELi1ELin1EEEEEEEEC2Ev, symObjAddr: 0x1F940, symBinAddr: 0x10002779C, symSize: 0x2C }
  - { offsetInCU: 0x9CA3D, offset: 0xB042D, size: 0x8, addend: 0x0, symName: __ZN5Eigen9DenseBaseINS_13CwiseBinaryOpINS_8internal18scalar_quotient_opIddEEKNS_16PartialReduxExprIKNS_12CwiseUnaryOpINS2_16scalar_square_opIdEEKNS_12ArrayWrapperINS_6MatrixIdLin1ELin1ELi0ELin1ELin1EEEEEEENS2_10member_sumIddEELi0EEEKNS_14CwiseNullaryOpINS2_18scalar_constant_opIdEEKNS_5ArrayIdLi1ELin1ELi1ELi1ELin1EEEEEEEEC2Ev, symObjAddr: 0x1F96C, symBinAddr: 0x1000277C8, symSize: 0x14 }
  - { offsetInCU: 0x9CA67, offset: 0xB0457, size: 0x8, addend: 0x0, symName: __ZN5Eigen16PartialReduxExprIKNS_12CwiseUnaryOpINS_8internal16scalar_square_opIdEEKNS_12ArrayWrapperINS_6MatrixIdLin1ELin1ELi0ELin1ELin1EEEEEEENS2_10member_sumIddEELi0EEC2ERKSE_, symObjAddr: 0x1F980, symBinAddr: 0x1000277DC, symSize: 0x50 }
  - { offsetInCU: 0x9CA9C, offset: 0xB048C, size: 0x8, addend: 0x0, symName: __ZN5Eigen14CwiseNullaryOpINS_8internal18scalar_constant_opIdEEKNS_5ArrayIdLi1ELin1ELi1ELi1ELin1EEEEC2ERKS7_, symObjAddr: 0x1F9D0, symBinAddr: 0x10002782C, symSize: 0x48 }
  - { offsetInCU: 0x9CAD1, offset: 0xB04C1, size: 0x8, addend: 0x0, symName: __ZNK5Eigen9EigenBaseINS_13CwiseBinaryOpINS_8internal18scalar_quotient_opIddEEKNS_16PartialReduxExprIKNS_12CwiseUnaryOpINS2_16scalar_square_opIdEEKNS_12ArrayWrapperINS_6MatrixIdLin1ELin1ELi0ELin1ELin1EEEEEEENS2_10member_sumIddEELi0EEEKNS_14CwiseNullaryOpINS2_18scalar_constant_opIdEEKNS_5ArrayIdLi1ELin1ELi1ELi1ELin1EEEEEEEE7derivedEv, symObjAddr: 0x1FA18, symBinAddr: 0x100027874, symSize: 0x14 }
  - { offsetInCU: 0x9CAF7, offset: 0xB04E7, size: 0x8, addend: 0x0, symName: __ZN5Eigen8internal14scalar_sqrt_opIdEC1Ev, symObjAddr: 0x1FA2C, symBinAddr: 0x100027888, symSize: 0x2C }
  - { offsetInCU: 0x9CB21, offset: 0xB0511, size: 0x8, addend: 0x0, symName: __ZN5Eigen12CwiseUnaryOpINS_8internal14scalar_sqrt_opIdEEKNS_13CwiseBinaryOpINS1_18scalar_quotient_opIddEEKNS_16PartialReduxExprIKNS0_INS1_16scalar_square_opIdEEKNS_12ArrayWrapperINS_6MatrixIdLin1ELin1ELi0ELin1ELin1EEEEEEENS1_10member_sumIddEELi0EEEKNS_14CwiseNullaryOpINS1_18scalar_constant_opIdEEKNS_5ArrayIdLi1ELin1ELi1ELi1ELin1EEEEEEEEC1ERSU_RKS3_, symObjAddr: 0x1FA58, symBinAddr: 0x1000278B4, symSize: 0x3C }
  - { offsetInCU: 0x9CB67, offset: 0xB0557, size: 0x8, addend: 0x0, symName: __ZN5Eigen8internal14scalar_sqrt_opIdEC2Ev, symObjAddr: 0x1FA94, symBinAddr: 0x1000278F0, symSize: 0x14 }
  - { offsetInCU: 0x9CB91, offset: 0xB0581, size: 0x8, addend: 0x0, symName: __ZN5Eigen12CwiseUnaryOpINS_8internal14scalar_sqrt_opIdEEKNS_13CwiseBinaryOpINS1_18scalar_quotient_opIddEEKNS_16PartialReduxExprIKNS0_INS1_16scalar_square_opIdEEKNS_12ArrayWrapperINS_6MatrixIdLin1ELin1ELi0ELin1ELin1EEEEEEENS1_10member_sumIddEELi0EEEKNS_14CwiseNullaryOpINS1_18scalar_constant_opIdEEKNS_5ArrayIdLi1ELin1ELi1ELi1ELin1EEEEEEEEC2ERSU_RKS3_, symObjAddr: 0x1FAA8, symBinAddr: 0x100027904, symSize: 0x54 }
  - { offsetInCU: 0x9CBDC, offset: 0xB05CC, size: 0x8, addend: 0x0, symName: __ZN5Eigen16CwiseUnaryOpImplINS_8internal14scalar_sqrt_opIdEEKNS_13CwiseBinaryOpINS1_18scalar_quotient_opIddEEKNS_16PartialReduxExprIKNS_12CwiseUnaryOpINS1_16scalar_square_opIdEEKNS_12ArrayWrapperINS_6MatrixIdLin1ELin1ELi0ELin1ELin1EEEEEEENS1_10member_sumIddEELi0EEEKNS_14CwiseNullaryOpINS1_18scalar_constant_opIdEEKNS_5ArrayIdLi1ELin1ELi1ELi1ELin1EEEEEEENS_5DenseEEC2Ev, symObjAddr: 0x1FAFC, symBinAddr: 0x100027958, symSize: 0x2C }
  - { offsetInCU: 0x9CC08, offset: 0xB05F8, size: 0x8, addend: 0x0, symName: __ZN5Eigen13CwiseBinaryOpINS_8internal18scalar_quotient_opIddEEKNS_16PartialReduxExprIKNS_12CwiseUnaryOpINS1_16scalar_square_opIdEEKNS_12ArrayWrapperINS_6MatrixIdLin1ELin1ELi0ELin1ELin1EEEEEEENS1_10member_sumIddEELi0EEEKNS_14CwiseNullaryOpINS1_18scalar_constant_opIdEEKNS_5ArrayIdLi1ELin1ELi1ELi1ELin1EEEEEEC1ERKSR_, symObjAddr: 0x1FB28, symBinAddr: 0x100027984, symSize: 0x34 }
  - { offsetInCU: 0x9CC3D, offset: 0xB062D, size: 0x8, addend: 0x0, symName: __ZN5Eigen8internal14scalar_sqrt_opIdEC1ERKS2_, symObjAddr: 0x1FB5C, symBinAddr: 0x1000279B8, symSize: 0x34 }
  - { offsetInCU: 0x9CC73, offset: 0xB0663, size: 0x8, addend: 0x0, symName: __ZN5Eigen9ArrayBaseINS_12CwiseUnaryOpINS_8internal14scalar_sqrt_opIdEEKNS_13CwiseBinaryOpINS2_18scalar_quotient_opIddEEKNS_16PartialReduxExprIKNS1_INS2_16scalar_square_opIdEEKNS_12ArrayWrapperINS_6MatrixIdLin1ELin1ELi0ELin1ELin1EEEEEEENS2_10member_sumIddEELi0EEEKNS_14CwiseNullaryOpINS2_18scalar_constant_opIdEEKNS_5ArrayIdLi1ELin1ELi1ELi1ELin1EEEEEEEEEEC2Ev, symObjAddr: 0x1FB90, symBinAddr: 0x1000279EC, symSize: 0x2C }
  - { offsetInCU: 0x9CC9D, offset: 0xB068D, size: 0x8, addend: 0x0, symName: __ZN5Eigen9DenseBaseINS_12CwiseUnaryOpINS_8internal14scalar_sqrt_opIdEEKNS_13CwiseBinaryOpINS2_18scalar_quotient_opIddEEKNS_16PartialReduxExprIKNS1_INS2_16scalar_square_opIdEEKNS_12ArrayWrapperINS_6MatrixIdLin1ELin1ELi0ELin1ELin1EEEEEEENS2_10member_sumIddEELi0EEEKNS_14CwiseNullaryOpINS2_18scalar_constant_opIdEEKNS_5ArrayIdLi1ELin1ELi1ELi1ELin1EEEEEEEEEEC2Ev, symObjAddr: 0x1FBBC, symBinAddr: 0x100027A18, symSize: 0x14 }
  - { offsetInCU: 0x9CCC7, offset: 0xB06B7, size: 0x8, addend: 0x0, symName: __ZN5Eigen13CwiseBinaryOpINS_8internal18scalar_quotient_opIddEEKNS_16PartialReduxExprIKNS_12CwiseUnaryOpINS1_16scalar_square_opIdEEKNS_12ArrayWrapperINS_6MatrixIdLin1ELin1ELi0ELin1ELin1EEEEEEENS1_10member_sumIddEELi0EEEKNS_14CwiseNullaryOpINS1_18scalar_constant_opIdEEKNS_5ArrayIdLi1ELin1ELi1ELi1ELin1EEEEEEC2ERKSR_, symObjAddr: 0x1FBD0, symBinAddr: 0x100027A2C, symSize: 0x64 }
  - { offsetInCU: 0x9CCFC, offset: 0xB06EC, size: 0x8, addend: 0x0, symName: __ZN5Eigen8internal14scalar_sqrt_opIdEC2ERKS2_, symObjAddr: 0x1FC34, symBinAddr: 0x100027A90, symSize: 0x18 }
  - { offsetInCU: 0x9CD32, offset: 0xB0722, size: 0x8, addend: 0x0, symName: __ZN5Eigen6MatrixIdLin1ELi1ELi0ELin1ELi1EEC2INS_12CwiseUnaryOpINS_8internal14scalar_sqrt_opIdEEKNS_13CwiseBinaryOpINS4_18scalar_quotient_opIddEEKNS_16PartialReduxExprIKNS3_INS4_16scalar_square_opIdEEKNS_12ArrayWrapperINS0_IdLin1ELin1ELi0ELin1ELin1EEEEEEENS4_10member_sumIddEELi0EEEKNS_14CwiseNullaryOpINS4_18scalar_constant_opIdEEKNS_5ArrayIdLi1ELin1ELi1ELi1ELin1EEEEEEEEEEERKNS_9EigenBaseIT_EE, symObjAddr: 0x1FC4C, symBinAddr: 0x100027AA8, symSize: 0x40 }
  - { offsetInCU: 0x9CD74, offset: 0xB0764, size: 0x8, addend: 0x0, symName: __ZNK5Eigen9EigenBaseINS_12CwiseUnaryOpINS_8internal14scalar_sqrt_opIdEEKNS_13CwiseBinaryOpINS2_18scalar_quotient_opIddEEKNS_16PartialReduxExprIKNS1_INS2_16scalar_square_opIdEEKNS_12ArrayWrapperINS_6MatrixIdLin1ELin1ELi0ELin1ELin1EEEEEEENS2_10member_sumIddEELi0EEEKNS_14CwiseNullaryOpINS2_18scalar_constant_opIdEEKNS_5ArrayIdLi1ELin1ELi1ELi1ELin1EEEEEEEEEE7derivedEv, symObjAddr: 0x1FC8C, symBinAddr: 0x100027AE8, symSize: 0x14 }
  - { offsetInCU: 0x9CD9A, offset: 0xB078A, size: 0x8, addend: 0x0, symName: __ZN5Eigen15PlainObjectBaseINS_6MatrixIdLin1ELi1ELi0ELin1ELi1EEEEC2INS_12CwiseUnaryOpINS_8internal14scalar_sqrt_opIdEEKNS_13CwiseBinaryOpINS6_18scalar_quotient_opIddEEKNS_16PartialReduxExprIKNS5_INS6_16scalar_square_opIdEEKNS_12ArrayWrapperINS1_IdLin1ELin1ELi0ELin1ELin1EEEEEEENS6_10member_sumIddEELi0EEEKNS_14CwiseNullaryOpINS6_18scalar_constant_opIdEEKNS_5ArrayIdLi1ELin1ELi1ELi1ELin1EEEEEEEEEEERKNS_9DenseBaseIT_EE, symObjAddr: 0x1FCA0, symBinAddr: 0x100027AFC, symSize: 0x80 }
  - { offsetInCU: 0x9CDDC, offset: 0xB07CC, size: 0x8, addend: 0x0, symName: __ZN5Eigen15PlainObjectBaseINS_6MatrixIdLin1ELi1ELi0ELin1ELi1EEEE10resizeLikeINS_12CwiseUnaryOpINS_8internal14scalar_sqrt_opIdEEKNS_13CwiseBinaryOpINS6_18scalar_quotient_opIddEEKNS_16PartialReduxExprIKNS5_INS6_16scalar_square_opIdEEKNS_12ArrayWrapperINS1_IdLin1ELin1ELi0ELin1ELin1EEEEEEENS6_10member_sumIddEELi0EEEKNS_14CwiseNullaryOpINS6_18scalar_constant_opIdEEKNS_5ArrayIdLi1ELin1ELi1ELi1ELin1EEEEEEEEEEEvRKNS_9EigenBaseIT_EE, symObjAddr: 0x1FD20, symBinAddr: 0x100027B7C, symSize: 0x170 }
  - { offsetInCU: 0x9CE73, offset: 0xB0863, size: 0x8, addend: 0x0, symName: __ZN5Eigen15PlainObjectBaseINS_6MatrixIdLin1ELi1ELi0ELin1ELi1EEEE12_set_noaliasINS_12CwiseUnaryOpINS_8internal14scalar_sqrt_opIdEEKNS_13CwiseBinaryOpINS6_18scalar_quotient_opIddEEKNS_16PartialReduxExprIKNS5_INS6_16scalar_square_opIdEEKNS_12ArrayWrapperINS1_IdLin1ELin1ELi0ELin1ELin1EEEEEEENS6_10member_sumIddEELi0EEEKNS_14CwiseNullaryOpINS6_18scalar_constant_opIdEEKNS_5ArrayIdLi1ELin1ELi1ELi1ELin1EEEEEEEEEEERS2_RKNS_9DenseBaseIT_EE, symObjAddr: 0x1FE90, symBinAddr: 0x100027CEC, symSize: 0x60 }
  - { offsetInCU: 0x9CEB1, offset: 0xB08A1, size: 0x8, addend: 0x0, symName: __ZNK5Eigen12CwiseUnaryOpINS_8internal14scalar_sqrt_opIdEEKNS_13CwiseBinaryOpINS1_18scalar_quotient_opIddEEKNS_16PartialReduxExprIKNS0_INS1_16scalar_square_opIdEEKNS_12ArrayWrapperINS_6MatrixIdLin1ELin1ELi0ELin1ELin1EEEEEEENS1_10member_sumIddEELi0EEEKNS_14CwiseNullaryOpINS1_18scalar_constant_opIdEEKNS_5ArrayIdLi1ELin1ELi1ELi1ELin1EEEEEEEE4rowsEv, symObjAddr: 0x1FEF0, symBinAddr: 0x100027D4C, symSize: 0x28 }
  - { offsetInCU: 0x9CED7, offset: 0xB08C7, size: 0x8, addend: 0x0, symName: __ZNK5Eigen12CwiseUnaryOpINS_8internal14scalar_sqrt_opIdEEKNS_13CwiseBinaryOpINS1_18scalar_quotient_opIddEEKNS_16PartialReduxExprIKNS0_INS1_16scalar_square_opIdEEKNS_12ArrayWrapperINS_6MatrixIdLin1ELin1ELi0ELin1ELin1EEEEEEENS1_10member_sumIddEELi0EEEKNS_14CwiseNullaryOpINS1_18scalar_constant_opIdEEKNS_5ArrayIdLi1ELin1ELi1ELi1ELin1EEEEEEEE4colsEv, symObjAddr: 0x1FF18, symBinAddr: 0x100027D74, symSize: 0x28 }
  - { offsetInCU: 0x9CEFD, offset: 0xB08ED, size: 0x8, addend: 0x0, symName: __ZNK5Eigen13CwiseBinaryOpINS_8internal18scalar_quotient_opIddEEKNS_16PartialReduxExprIKNS_12CwiseUnaryOpINS1_16scalar_square_opIdEEKNS_12ArrayWrapperINS_6MatrixIdLin1ELin1ELi0ELin1ELin1EEEEEEENS1_10member_sumIddEELi0EEEKNS_14CwiseNullaryOpINS1_18scalar_constant_opIdEEKNS_5ArrayIdLi1ELin1ELi1ELi1ELin1EEEEEE4rowsEv, symObjAddr: 0x1FF40, symBinAddr: 0x100027D9C, symSize: 0x28 }
  - { offsetInCU: 0x9CF23, offset: 0xB0913, size: 0x8, addend: 0x0, symName: __ZNK5Eigen13CwiseBinaryOpINS_8internal18scalar_quotient_opIddEEKNS_16PartialReduxExprIKNS_12CwiseUnaryOpINS1_16scalar_square_opIdEEKNS_12ArrayWrapperINS_6MatrixIdLin1ELin1ELi0ELin1ELin1EEEEEEENS1_10member_sumIddEELi0EEEKNS_14CwiseNullaryOpINS1_18scalar_constant_opIdEEKNS_5ArrayIdLi1ELin1ELi1ELi1ELin1EEEEEE4colsEv, symObjAddr: 0x1FF68, symBinAddr: 0x100027DC4, symSize: 0x28 }
  - { offsetInCU: 0x9CF48, offset: 0xB0938, size: 0x8, addend: 0x0, symName: __ZN5Eigen8internal10AssignmentINS_9TransposeINS_6MatrixIdLin1ELi1ELi0ELin1ELi1EEEEENS_12CwiseUnaryOpINS0_14scalar_sqrt_opIdEEKNS_13CwiseBinaryOpINS0_18scalar_quotient_opIddEEKNS_16PartialReduxExprIKNS6_INS0_16scalar_square_opIdEEKNS_12ArrayWrapperINS3_IdLin1ELin1ELi0ELin1ELin1EEEEEEENS0_10member_sumIddEELi0EEEKNS_14CwiseNullaryOpINS0_18scalar_constant_opIdEEKNS_5ArrayIdLi1ELin1ELi1ELi1ELin1EEEEEEEEENS0_9assign_opIddEENS0_11Dense2DenseEvE3runERS5_RKSZ_RKS11_, symObjAddr: 0x1FFD4, symBinAddr: 0x100027E30, symSize: 0x40 }
  - { offsetInCU: 0x9D062, offset: 0xB0A52, size: 0x8, addend: 0x0, symName: __ZN5Eigen8internal9evaluatorINS_12CwiseUnaryOpINS0_14scalar_sqrt_opIdEEKNS_13CwiseBinaryOpINS0_18scalar_quotient_opIddEEKNS_16PartialReduxExprIKNS2_INS0_16scalar_square_opIdEEKNS_12ArrayWrapperINS_6MatrixIdLin1ELin1ELi0ELin1ELin1EEEEEEENS0_10member_sumIddEELi0EEEKNS_14CwiseNullaryOpINS0_18scalar_constant_opIdEEKNS_5ArrayIdLi1ELin1ELi1ELi1ELin1EEEEEEEEEEC1ERKSW_, symObjAddr: 0x20100, symBinAddr: 0x100027F5C, symSize: 0x34 }
  - { offsetInCU: 0x9D0C7, offset: 0xB0AB7, size: 0x8, addend: 0x0, symName: __ZN5Eigen8internal31generic_dense_assignment_kernelINS0_9evaluatorINS_9TransposeINS_6MatrixIdLin1ELi1ELi0ELin1ELi1EEEEEEENS2_INS_12CwiseUnaryOpINS0_14scalar_sqrt_opIdEEKNS_13CwiseBinaryOpINS0_18scalar_quotient_opIddEEKNS_16PartialReduxExprIKNS8_INS0_16scalar_square_opIdEEKNS_12ArrayWrapperINS4_IdLin1ELin1ELi0ELin1ELin1EEEEEEENS0_10member_sumIddEELi0EEEKNS_14CwiseNullaryOpINS0_18scalar_constant_opIdEEKNS_5ArrayIdLi1ELin1ELi1ELi1ELin1EEEEEEEEEEENS0_9assign_opIddEELi0EEC1ERS7_RKS12_RKS14_RS6_, symObjAddr: 0x2022C, symBinAddr: 0x100028088, symSize: 0x4C }
  - { offsetInCU: 0x9D131, offset: 0xB0B21, size: 0x8, addend: 0x0, symName: __ZN5Eigen8internal21dense_assignment_loopINS0_31generic_dense_assignment_kernelINS0_9evaluatorINS_9TransposeINS_6MatrixIdLin1ELi1ELi0ELin1ELi1EEEEEEENS3_INS_12CwiseUnaryOpINS0_14scalar_sqrt_opIdEEKNS_13CwiseBinaryOpINS0_18scalar_quotient_opIddEEKNS_16PartialReduxExprIKNS9_INS0_16scalar_square_opIdEEKNS_12ArrayWrapperINS5_IdLin1ELin1ELi0ELin1ELin1EEEEEEENS0_10member_sumIddEELi0EEEKNS_14CwiseNullaryOpINS0_18scalar_constant_opIdEEKNS_5ArrayIdLi1ELin1ELi1ELi1ELin1EEEEEEEEEEENS0_9assign_opIddEELi0EEELi1ELi0EE3runERS16_, symObjAddr: 0x20278, symBinAddr: 0x1000280D4, symSize: 0x68 }
  - { offsetInCU: 0x9D182, offset: 0xB0B72, size: 0x8, addend: 0x0, symName: __ZN5Eigen8internal9evaluatorINS_12CwiseUnaryOpINS0_14scalar_sqrt_opIdEEKNS_13CwiseBinaryOpINS0_18scalar_quotient_opIddEEKNS_16PartialReduxExprIKNS2_INS0_16scalar_square_opIdEEKNS_12ArrayWrapperINS_6MatrixIdLin1ELin1ELi0ELin1ELin1EEEEEEENS0_10member_sumIddEELi0EEEKNS_14CwiseNullaryOpINS0_18scalar_constant_opIdEEKNS_5ArrayIdLi1ELin1ELi1ELi1ELin1EEEEEEEEEED1Ev, symObjAddr: 0x202E0, symBinAddr: 0x10002813C, symSize: 0x2C }
  - { offsetInCU: 0x9D1AE, offset: 0xB0B9E, size: 0x8, addend: 0x0, symName: __ZN5Eigen8internal9evaluatorINS_12CwiseUnaryOpINS0_14scalar_sqrt_opIdEEKNS_13CwiseBinaryOpINS0_18scalar_quotient_opIddEEKNS_16PartialReduxExprIKNS2_INS0_16scalar_square_opIdEEKNS_12ArrayWrapperINS_6MatrixIdLin1ELin1ELi0ELin1ELin1EEEEEEENS0_10member_sumIddEELi0EEEKNS_14CwiseNullaryOpINS0_18scalar_constant_opIdEEKNS_5ArrayIdLi1ELin1ELi1ELi1ELin1EEEEEEEEEEC2ERKSW_, symObjAddr: 0x2030C, symBinAddr: 0x100028168, symSize: 0x34 }
  - { offsetInCU: 0x9D1E6, offset: 0xB0BD6, size: 0x8, addend: 0x0, symName: __ZN5Eigen8internal15unary_evaluatorINS_12CwiseUnaryOpINS0_14scalar_sqrt_opIdEEKNS_13CwiseBinaryOpINS0_18scalar_quotient_opIddEEKNS_16PartialReduxExprIKNS2_INS0_16scalar_square_opIdEEKNS_12ArrayWrapperINS_6MatrixIdLin1ELin1ELi0ELin1ELin1EEEEEEENS0_10member_sumIddEELi0EEEKNS_14CwiseNullaryOpINS0_18scalar_constant_opIdEEKNS_5ArrayIdLi1ELin1ELi1ELi1ELin1EEEEEEEEENS0_10IndexBasedEdEC2ERKSW_, symObjAddr: 0x20340, symBinAddr: 0x10002819C, symSize: 0x64 }
  - { offsetInCU: 0x9D21F, offset: 0xB0C0F, size: 0x8, addend: 0x0, symName: __ZN5Eigen8internal14evaluator_baseINS_12CwiseUnaryOpINS0_14scalar_sqrt_opIdEEKNS_13CwiseBinaryOpINS0_18scalar_quotient_opIddEEKNS_16PartialReduxExprIKNS2_INS0_16scalar_square_opIdEEKNS_12ArrayWrapperINS_6MatrixIdLin1ELin1ELi0ELin1ELin1EEEEEEENS0_10member_sumIddEELi0EEEKNS_14CwiseNullaryOpINS0_18scalar_constant_opIdEEKNS_5ArrayIdLi1ELin1ELi1ELi1ELin1EEEEEEEEEEC2Ev, symObjAddr: 0x203A4, symBinAddr: 0x100028200, symSize: 0x14 }
  - { offsetInCU: 0x9D249, offset: 0xB0C39, size: 0x8, addend: 0x0, symName: __ZN5Eigen8internal15unary_evaluatorINS_12CwiseUnaryOpINS0_14scalar_sqrt_opIdEEKNS_13CwiseBinaryOpINS0_18scalar_quotient_opIddEEKNS_16PartialReduxExprIKNS2_INS0_16scalar_square_opIdEEKNS_12ArrayWrapperINS_6MatrixIdLin1ELin1ELi0ELin1ELin1EEEEEEENS0_10member_sumIddEELi0EEEKNS_14CwiseNullaryOpINS0_18scalar_constant_opIdEEKNS_5ArrayIdLi1ELin1ELi1ELi1ELin1EEEEEEEEENS0_10IndexBasedEdE4DataC1ERKSW_, symObjAddr: 0x203B8, symBinAddr: 0x100028214, symSize: 0x34 }
  - { offsetInCU: 0x9D282, offset: 0xB0C72, size: 0x8, addend: 0x0, symName: __ZN5Eigen8internal14evaluator_baseINS_12CwiseUnaryOpINS0_14scalar_sqrt_opIdEEKNS_13CwiseBinaryOpINS0_18scalar_quotient_opIddEEKNS_16PartialReduxExprIKNS2_INS0_16scalar_square_opIdEEKNS_12ArrayWrapperINS_6MatrixIdLin1ELin1ELi0ELin1ELin1EEEEEEENS0_10member_sumIddEELi0EEEKNS_14CwiseNullaryOpINS0_18scalar_constant_opIdEEKNS_5ArrayIdLi1ELin1ELi1ELi1ELin1EEEEEEEEEED2Ev, symObjAddr: 0x203EC, symBinAddr: 0x100028248, symSize: 0x14 }
  - { offsetInCU: 0x9D2AC, offset: 0xB0C9C, size: 0x8, addend: 0x0, symName: __ZN5Eigen8internal15unary_evaluatorINS_12CwiseUnaryOpINS0_14scalar_sqrt_opIdEEKNS_13CwiseBinaryOpINS0_18scalar_quotient_opIddEEKNS_16PartialReduxExprIKNS2_INS0_16scalar_square_opIdEEKNS_12ArrayWrapperINS_6MatrixIdLin1ELin1ELi0ELin1ELin1EEEEEEENS0_10member_sumIddEELi0EEEKNS_14CwiseNullaryOpINS0_18scalar_constant_opIdEEKNS_5ArrayIdLi1ELin1ELi1ELi1ELin1EEEEEEEEENS0_10IndexBasedEdE4DataC2ERKSW_, symObjAddr: 0x20400, symBinAddr: 0x10002825C, symSize: 0x58 }
  - { offsetInCU: 0x9D2E5, offset: 0xB0CD5, size: 0x8, addend: 0x0, symName: __ZNK5Eigen12CwiseUnaryOpINS_8internal14scalar_sqrt_opIdEEKNS_13CwiseBinaryOpINS1_18scalar_quotient_opIddEEKNS_16PartialReduxExprIKNS0_INS1_16scalar_square_opIdEEKNS_12ArrayWrapperINS_6MatrixIdLin1ELin1ELi0ELin1ELin1EEEEEEENS1_10member_sumIddEELi0EEEKNS_14CwiseNullaryOpINS1_18scalar_constant_opIdEEKNS_5ArrayIdLi1ELin1ELi1ELi1ELin1EEEEEEEE7functorEv, symObjAddr: 0x20458, symBinAddr: 0x1000282B4, symSize: 0x18 }
  - { offsetInCU: 0x9D30B, offset: 0xB0CFB, size: 0x8, addend: 0x0, symName: __ZNK5Eigen12CwiseUnaryOpINS_8internal14scalar_sqrt_opIdEEKNS_13CwiseBinaryOpINS1_18scalar_quotient_opIddEEKNS_16PartialReduxExprIKNS0_INS1_16scalar_square_opIdEEKNS_12ArrayWrapperINS_6MatrixIdLin1ELin1ELi0ELin1ELin1EEEEEEENS1_10member_sumIddEELi0EEEKNS_14CwiseNullaryOpINS1_18scalar_constant_opIdEEKNS_5ArrayIdLi1ELin1ELi1ELi1ELin1EEEEEEEE16nestedExpressionEv, symObjAddr: 0x20470, symBinAddr: 0x1000282CC, symSize: 0x18 }
  - { offsetInCU: 0x9D331, offset: 0xB0D21, size: 0x8, addend: 0x0, symName: __ZN5Eigen8internal9evaluatorIKNS_13CwiseBinaryOpINS0_18scalar_quotient_opIddEEKNS_16PartialReduxExprIKNS_12CwiseUnaryOpINS0_16scalar_square_opIdEEKNS_12ArrayWrapperINS_6MatrixIdLin1ELin1ELi0ELin1ELin1EEEEEEENS0_10member_sumIddEELi0EEEKNS_14CwiseNullaryOpINS0_18scalar_constant_opIdEEKNS_5ArrayIdLi1ELin1ELi1ELi1ELin1EEEEEEEEC1ERST_, symObjAddr: 0x20488, symBinAddr: 0x1000282E4, symSize: 0x34 }
  - { offsetInCU: 0x9D369, offset: 0xB0D59, size: 0x8, addend: 0x0, symName: __ZN5Eigen8internal9evaluatorIKNS_13CwiseBinaryOpINS0_18scalar_quotient_opIddEEKNS_16PartialReduxExprIKNS_12CwiseUnaryOpINS0_16scalar_square_opIdEEKNS_12ArrayWrapperINS_6MatrixIdLin1ELin1ELi0ELin1ELin1EEEEEEENS0_10member_sumIddEELi0EEEKNS_14CwiseNullaryOpINS0_18scalar_constant_opIdEEKNS_5ArrayIdLi1ELin1ELi1ELi1ELin1EEEEEEEEC2ERST_, symObjAddr: 0x204BC, symBinAddr: 0x100028318, symSize: 0x34 }
  - { offsetInCU: 0x9D3A1, offset: 0xB0D91, size: 0x8, addend: 0x0, symName: __ZN5Eigen8internal9evaluatorINS_13CwiseBinaryOpINS0_18scalar_quotient_opIddEEKNS_16PartialReduxExprIKNS_12CwiseUnaryOpINS0_16scalar_square_opIdEEKNS_12ArrayWrapperINS_6MatrixIdLin1ELin1ELi0ELin1ELin1EEEEEEENS0_10member_sumIddEELi0EEEKNS_14CwiseNullaryOpINS0_18scalar_constant_opIdEEKNS_5ArrayIdLi1ELin1ELi1ELi1ELin1EEEEEEEEC2ERKSS_, symObjAddr: 0x204F0, symBinAddr: 0x10002834C, symSize: 0x34 }
  - { offsetInCU: 0x9D3DA, offset: 0xB0DCA, size: 0x8, addend: 0x0, symName: __ZN5Eigen8internal16binary_evaluatorINS_13CwiseBinaryOpINS0_18scalar_quotient_opIddEEKNS_16PartialReduxExprIKNS_12CwiseUnaryOpINS0_16scalar_square_opIdEEKNS_12ArrayWrapperINS_6MatrixIdLin1ELin1ELi0ELin1ELin1EEEEEEENS0_10member_sumIddEELi0EEEKNS_14CwiseNullaryOpINS0_18scalar_constant_opIdEEKNS_5ArrayIdLi1ELin1ELi1ELi1ELin1EEEEEEENS0_10IndexBasedEST_ddEC2ERKSS_, symObjAddr: 0x20524, symBinAddr: 0x100028380, symSize: 0x64 }
  - { offsetInCU: 0x9D413, offset: 0xB0E03, size: 0x8, addend: 0x0, symName: __ZN5Eigen8internal14evaluator_baseINS_13CwiseBinaryOpINS0_18scalar_quotient_opIddEEKNS_16PartialReduxExprIKNS_12CwiseUnaryOpINS0_16scalar_square_opIdEEKNS_12ArrayWrapperINS_6MatrixIdLin1ELin1ELi0ELin1ELin1EEEEEEENS0_10member_sumIddEELi0EEEKNS_14CwiseNullaryOpINS0_18scalar_constant_opIdEEKNS_5ArrayIdLi1ELin1ELi1ELi1ELin1EEEEEEEEC2Ev, symObjAddr: 0x20588, symBinAddr: 0x1000283E4, symSize: 0x14 }
  - { offsetInCU: 0x9D43D, offset: 0xB0E2D, size: 0x8, addend: 0x0, symName: __ZN5Eigen8internal16binary_evaluatorINS_13CwiseBinaryOpINS0_18scalar_quotient_opIddEEKNS_16PartialReduxExprIKNS_12CwiseUnaryOpINS0_16scalar_square_opIdEEKNS_12ArrayWrapperINS_6MatrixIdLin1ELin1ELi0ELin1ELin1EEEEEEENS0_10member_sumIddEELi0EEEKNS_14CwiseNullaryOpINS0_18scalar_constant_opIdEEKNS_5ArrayIdLi1ELin1ELi1ELi1ELin1EEEEEEENS0_10IndexBasedEST_ddE4DataC1ERKSS_, symObjAddr: 0x2059C, symBinAddr: 0x1000283F8, symSize: 0x34 }
  - { offsetInCU: 0x9D476, offset: 0xB0E66, size: 0x8, addend: 0x0, symName: __ZN5Eigen8internal14evaluator_baseINS_13CwiseBinaryOpINS0_18scalar_quotient_opIddEEKNS_16PartialReduxExprIKNS_12CwiseUnaryOpINS0_16scalar_square_opIdEEKNS_12ArrayWrapperINS_6MatrixIdLin1ELin1ELi0ELin1ELin1EEEEEEENS0_10member_sumIddEELi0EEEKNS_14CwiseNullaryOpINS0_18scalar_constant_opIdEEKNS_5ArrayIdLi1ELin1ELi1ELi1ELin1EEEEEEEED2Ev, symObjAddr: 0x205D0, symBinAddr: 0x10002842C, symSize: 0x14 }
  - { offsetInCU: 0x9D4A0, offset: 0xB0E90, size: 0x8, addend: 0x0, symName: __ZN5Eigen8internal16binary_evaluatorINS_13CwiseBinaryOpINS0_18scalar_quotient_opIddEEKNS_16PartialReduxExprIKNS_12CwiseUnaryOpINS0_16scalar_square_opIdEEKNS_12ArrayWrapperINS_6MatrixIdLin1ELin1ELi0ELin1ELin1EEEEEEENS0_10member_sumIddEELi0EEEKNS_14CwiseNullaryOpINS0_18scalar_constant_opIdEEKNS_5ArrayIdLi1ELin1ELi1ELi1ELin1EEEEEEENS0_10IndexBasedEST_ddE4DataC2ERKSS_, symObjAddr: 0x205E4, symBinAddr: 0x100028440, symSize: 0xA8 }
  - { offsetInCU: 0x9D4D9, offset: 0xB0EC9, size: 0x8, addend: 0x0, symName: __ZNK5Eigen13CwiseBinaryOpINS_8internal18scalar_quotient_opIddEEKNS_16PartialReduxExprIKNS_12CwiseUnaryOpINS1_16scalar_square_opIdEEKNS_12ArrayWrapperINS_6MatrixIdLin1ELin1ELi0ELin1ELin1EEEEEEENS1_10member_sumIddEELi0EEEKNS_14CwiseNullaryOpINS1_18scalar_constant_opIdEEKNS_5ArrayIdLi1ELin1ELi1ELi1ELin1EEEEEE7functorEv, symObjAddr: 0x2068C, symBinAddr: 0x1000284E8, symSize: 0x18 }
  - { offsetInCU: 0x9D4FF, offset: 0xB0EEF, size: 0x8, addend: 0x0, symName: __ZNK5Eigen13CwiseBinaryOpINS_8internal18scalar_quotient_opIddEEKNS_16PartialReduxExprIKNS_12CwiseUnaryOpINS1_16scalar_square_opIdEEKNS_12ArrayWrapperINS_6MatrixIdLin1ELin1ELi0ELin1ELin1EEEEEEENS1_10member_sumIddEELi0EEEKNS_14CwiseNullaryOpINS1_18scalar_constant_opIdEEKNS_5ArrayIdLi1ELin1ELi1ELi1ELin1EEEEEE3lhsEv, symObjAddr: 0x206A4, symBinAddr: 0x100028500, symSize: 0x18 }
  - { offsetInCU: 0x9D525, offset: 0xB0F15, size: 0x8, addend: 0x0, symName: __ZN5Eigen8internal9evaluatorIKNS_16PartialReduxExprIKNS_12CwiseUnaryOpINS0_16scalar_square_opIdEEKNS_12ArrayWrapperINS_6MatrixIdLin1ELin1ELi0ELin1ELin1EEEEEEENS0_10member_sumIddEELi0EEEEC1ERSG_, symObjAddr: 0x206BC, symBinAddr: 0x100028518, symSize: 0x34 }
  - { offsetInCU: 0x9D55D, offset: 0xB0F4D, size: 0x8, addend: 0x0, symName: __ZNK5Eigen13CwiseBinaryOpINS_8internal18scalar_quotient_opIddEEKNS_16PartialReduxExprIKNS_12CwiseUnaryOpINS1_16scalar_square_opIdEEKNS_12ArrayWrapperINS_6MatrixIdLin1ELin1ELi0ELin1ELin1EEEEEEENS1_10member_sumIddEELi0EEEKNS_14CwiseNullaryOpINS1_18scalar_constant_opIdEEKNS_5ArrayIdLi1ELin1ELi1ELi1ELin1EEEEEE3rhsEv, symObjAddr: 0x206F0, symBinAddr: 0x10002854C, symSize: 0x18 }
  - { offsetInCU: 0x9D583, offset: 0xB0F73, size: 0x8, addend: 0x0, symName: __ZN5Eigen8internal9evaluatorIKNS_14CwiseNullaryOpINS0_18scalar_constant_opIdEEKNS_5ArrayIdLi1ELin1ELi1ELi1ELin1EEEEEEC1ERS9_, symObjAddr: 0x20708, symBinAddr: 0x100028564, symSize: 0x34 }
  - { offsetInCU: 0x9D5BB, offset: 0xB0FAB, size: 0x8, addend: 0x0, symName: __ZN5Eigen8internal9evaluatorIKNS_16PartialReduxExprIKNS_12CwiseUnaryOpINS0_16scalar_square_opIdEEKNS_12ArrayWrapperINS_6MatrixIdLin1ELin1ELi0ELin1ELin1EEEEEEENS0_10member_sumIddEELi0EEEED1Ev, symObjAddr: 0x2073C, symBinAddr: 0x100028598, symSize: 0x2C }
  - { offsetInCU: 0x9D5E7, offset: 0xB0FD7, size: 0x8, addend: 0x0, symName: __ZN5Eigen8internal9evaluatorIKNS_16PartialReduxExprIKNS_12CwiseUnaryOpINS0_16scalar_square_opIdEEKNS_12ArrayWrapperINS_6MatrixIdLin1ELin1ELi0ELin1ELin1EEEEEEENS0_10member_sumIddEELi0EEEEC2ERSG_, symObjAddr: 0x20768, symBinAddr: 0x1000285C4, symSize: 0x7C }
  - { offsetInCU: 0x9D61F, offset: 0xB100F, size: 0x8, addend: 0x0, symName: __ZN5Eigen8internal9evaluatorINS_16PartialReduxExprIKNS_12CwiseUnaryOpINS0_16scalar_square_opIdEEKNS_12ArrayWrapperINS_6MatrixIdLin1ELin1ELi0ELin1ELin1EEEEEEENS0_10member_sumIddEELi0EEEEC2ESF_, symObjAddr: 0x207E4, symBinAddr: 0x100028640, symSize: 0x94 }
  - { offsetInCU: 0x9D658, offset: 0xB1048, size: 0x8, addend: 0x0, symName: __ZN5Eigen8internal14evaluator_baseINS_16PartialReduxExprIKNS_12CwiseUnaryOpINS0_16scalar_square_opIdEEKNS_12ArrayWrapperINS_6MatrixIdLin1ELin1ELi0ELin1ELin1EEEEEEENS0_10member_sumIddEELi0EEEEC2Ev, symObjAddr: 0x20878, symBinAddr: 0x1000286D4, symSize: 0x14 }
  - { offsetInCU: 0x9D682, offset: 0xB1072, size: 0x8, addend: 0x0, symName: __ZNK5Eigen16PartialReduxExprIKNS_12CwiseUnaryOpINS_8internal16scalar_square_opIdEEKNS_12ArrayWrapperINS_6MatrixIdLin1ELin1ELi0ELin1ELin1EEEEEEENS2_10member_sumIddEELi0EE16nestedExpressionEv, symObjAddr: 0x2088C, symBinAddr: 0x1000286E8, symSize: 0x3C }
  - { offsetInCU: 0x9D6A8, offset: 0xB1098, size: 0x8, addend: 0x0, symName: __ZNK5Eigen16PartialReduxExprIKNS_12CwiseUnaryOpINS_8internal16scalar_square_opIdEEKNS_12ArrayWrapperINS_6MatrixIdLin1ELin1ELi0ELin1ELin1EEEEEEENS2_10member_sumIddEELi0EE7functorEv, symObjAddr: 0x208C8, symBinAddr: 0x100028724, symSize: 0x18 }
  - { offsetInCU: 0x9D6CE, offset: 0xB10BE, size: 0x8, addend: 0x0, symName: __ZN5Eigen8internal14evaluator_baseINS_16PartialReduxExprIKNS_12CwiseUnaryOpINS0_16scalar_square_opIdEEKNS_12ArrayWrapperINS_6MatrixIdLin1ELin1ELi0ELin1ELin1EEEEEEENS0_10member_sumIddEELi0EEEED2Ev, symObjAddr: 0x208E0, symBinAddr: 0x10002873C, symSize: 0x14 }
  - { offsetInCU: 0x9D6F8, offset: 0xB10E8, size: 0x8, addend: 0x0, symName: __ZN5Eigen8internal9evaluatorIKNS_14CwiseNullaryOpINS0_18scalar_constant_opIdEEKNS_5ArrayIdLi1ELin1ELi1ELi1ELin1EEEEEEC2ERS9_, symObjAddr: 0x208F4, symBinAddr: 0x100028750, symSize: 0x34 }
  - { offsetInCU: 0x9D730, offset: 0xB1120, size: 0x8, addend: 0x0, symName: __ZN5Eigen8internal9evaluatorINS_14CwiseNullaryOpINS0_18scalar_constant_opIdEEKNS_5ArrayIdLi1ELin1ELi1ELi1ELin1EEEEEEC2ERKS8_, symObjAddr: 0x20928, symBinAddr: 0x100028784, symSize: 0x74 }
  - { offsetInCU: 0x9D769, offset: 0xB1159, size: 0x8, addend: 0x0, symName: __ZN5Eigen8internal14evaluator_baseINS_14CwiseNullaryOpINS0_18scalar_constant_opIdEEKNS_5ArrayIdLi1ELin1ELi1ELi1ELin1EEEEEEC2Ev, symObjAddr: 0x2099C, symBinAddr: 0x1000287F8, symSize: 0x14 }
  - { offsetInCU: 0x9D793, offset: 0xB1183, size: 0x8, addend: 0x0, symName: __ZNK5Eigen14CwiseNullaryOpINS_8internal18scalar_constant_opIdEEKNS_5ArrayIdLi1ELin1ELi1ELi1ELin1EEEE7functorEv, symObjAddr: 0x209B0, symBinAddr: 0x10002880C, symSize: 0x18 }
  - { offsetInCU: 0x9D7B9, offset: 0xB11A9, size: 0x8, addend: 0x0, symName: __ZN5Eigen8internal14evaluator_baseINS_14CwiseNullaryOpINS0_18scalar_constant_opIdEEKNS_5ArrayIdLi1ELin1ELi1ELi1ELin1EEEEEED2Ev, symObjAddr: 0x209C8, symBinAddr: 0x100028824, symSize: 0x14 }
  - { offsetInCU: 0x9D7E3, offset: 0xB11D3, size: 0x8, addend: 0x0, symName: __ZN5Eigen8internal9evaluatorIKNS_16PartialReduxExprIKNS_12CwiseUnaryOpINS0_16scalar_square_opIdEEKNS_12ArrayWrapperINS_6MatrixIdLin1ELin1ELi0ELin1ELin1EEEEEEENS0_10member_sumIddEELi0EEEED2Ev, symObjAddr: 0x209DC, symBinAddr: 0x100028838, symSize: 0x2C }
  - { offsetInCU: 0x9D80F, offset: 0xB11FF, size: 0x8, addend: 0x0, symName: __ZN5Eigen8internal9evaluatorINS_16PartialReduxExprIKNS_12CwiseUnaryOpINS0_16scalar_square_opIdEEKNS_12ArrayWrapperINS_6MatrixIdLin1ELin1ELi0ELin1ELin1EEEEEEENS0_10member_sumIddEELi0EEEED2Ev, symObjAddr: 0x20A08, symBinAddr: 0x100028864, symSize: 0x2C }
  - { offsetInCU: 0x9D83B, offset: 0xB122B, size: 0x8, addend: 0x0, symName: __ZN5Eigen8internal31generic_dense_assignment_kernelINS0_9evaluatorINS_9TransposeINS_6MatrixIdLin1ELi1ELi0ELin1ELi1EEEEEEENS2_INS_12CwiseUnaryOpINS0_14scalar_sqrt_opIdEEKNS_13CwiseBinaryOpINS0_18scalar_quotient_opIddEEKNS_16PartialReduxExprIKNS8_INS0_16scalar_square_opIdEEKNS_12ArrayWrapperINS4_IdLin1ELin1ELi0ELin1ELin1EEEEEEENS0_10member_sumIddEELi0EEEKNS_14CwiseNullaryOpINS0_18scalar_constant_opIdEEKNS_5ArrayIdLi1ELin1ELi1ELi1ELin1EEEEEEEEEEENS0_9assign_opIddEELi0EEC2ERS7_RKS12_RKS14_RS6_, symObjAddr: 0x20A34, symBinAddr: 0x100028890, symSize: 0x44 }
  - { offsetInCU: 0x9D8A1, offset: 0xB1291, size: 0x8, addend: 0x0, symName: __ZNK5Eigen8internal31generic_dense_assignment_kernelINS0_9evaluatorINS_9TransposeINS_6MatrixIdLin1ELi1ELi0ELin1ELi1EEEEEEENS2_INS_12CwiseUnaryOpINS0_14scalar_sqrt_opIdEEKNS_13CwiseBinaryOpINS0_18scalar_quotient_opIddEEKNS_16PartialReduxExprIKNS8_INS0_16scalar_square_opIdEEKNS_12ArrayWrapperINS4_IdLin1ELin1ELi0ELin1ELin1EEEEEEENS0_10member_sumIddEELi0EEEKNS_14CwiseNullaryOpINS0_18scalar_constant_opIdEEKNS_5ArrayIdLi1ELin1ELi1ELi1ELin1EEEEEEEEEEENS0_9assign_opIddEELi0EE4sizeEv, symObjAddr: 0x20A78, symBinAddr: 0x1000288D4, symSize: 0x28 }
  - { offsetInCU: 0x9D8C7, offset: 0xB12B7, size: 0x8, addend: 0x0, symName: __ZN5Eigen8internal31generic_dense_assignment_kernelINS0_9evaluatorINS_9TransposeINS_6MatrixIdLin1ELi1ELi0ELin1ELi1EEEEEEENS2_INS_12CwiseUnaryOpINS0_14scalar_sqrt_opIdEEKNS_13CwiseBinaryOpINS0_18scalar_quotient_opIddEEKNS_16PartialReduxExprIKNS8_INS0_16scalar_square_opIdEEKNS_12ArrayWrapperINS4_IdLin1ELin1ELi0ELin1ELin1EEEEEEENS0_10member_sumIddEELi0EEEKNS_14CwiseNullaryOpINS0_18scalar_constant_opIdEEKNS_5ArrayIdLi1ELin1ELi1ELi1ELin1EEEEEEEEEEENS0_9assign_opIddEELi0EE11assignCoeffEl, symObjAddr: 0x20AA0, symBinAddr: 0x1000288FC, symSize: 0x64 }
  - { offsetInCU: 0x9D8FC, offset: 0xB12EC, size: 0x8, addend: 0x0, symName: __ZNK5Eigen8internal15unary_evaluatorINS_12CwiseUnaryOpINS0_14scalar_sqrt_opIdEEKNS_13CwiseBinaryOpINS0_18scalar_quotient_opIddEEKNS_16PartialReduxExprIKNS2_INS0_16scalar_square_opIdEEKNS_12ArrayWrapperINS_6MatrixIdLin1ELin1ELi0ELin1ELin1EEEEEEENS0_10member_sumIddEELi0EEEKNS_14CwiseNullaryOpINS0_18scalar_constant_opIdEEKNS_5ArrayIdLi1ELin1ELi1ELi1ELin1EEEEEEEEENS0_10IndexBasedEdE5coeffEl, symObjAddr: 0x20B04, symBinAddr: 0x100028960, symSize: 0x50 }
  - { offsetInCU: 0x9D931, offset: 0xB1321, size: 0x8, addend: 0x0, symName: __ZNK5Eigen8internal15unary_evaluatorINS_12CwiseUnaryOpINS0_14scalar_sqrt_opIdEEKNS_13CwiseBinaryOpINS0_18scalar_quotient_opIddEEKNS_16PartialReduxExprIKNS2_INS0_16scalar_square_opIdEEKNS_12ArrayWrapperINS_6MatrixIdLin1ELin1ELi0ELin1ELin1EEEEEEENS0_10member_sumIddEELi0EEEKNS_14CwiseNullaryOpINS0_18scalar_constant_opIdEEKNS_5ArrayIdLi1ELin1ELi1ELi1ELin1EEEEEEEEENS0_10IndexBasedEdE4Data4funcEv, symObjAddr: 0x20B54, symBinAddr: 0x1000289B0, symSize: 0x14 }
  - { offsetInCU: 0x9D987, offset: 0xB1377, size: 0x8, addend: 0x0, symName: __ZNK5Eigen8internal14scalar_sqrt_opIdEclERKd, symObjAddr: 0x20B68, symBinAddr: 0x1000289C4, symSize: 0x30 }
  - { offsetInCU: 0x9DA04, offset: 0xB13F4, size: 0x8, addend: 0x0, symName: __ZNK5Eigen8internal16binary_evaluatorINS_13CwiseBinaryOpINS0_18scalar_quotient_opIddEEKNS_16PartialReduxExprIKNS_12CwiseUnaryOpINS0_16scalar_square_opIdEEKNS_12ArrayWrapperINS_6MatrixIdLin1ELin1ELi0ELin1ELin1EEEEEEENS0_10member_sumIddEELi0EEEKNS_14CwiseNullaryOpINS0_18scalar_constant_opIdEEKNS_5ArrayIdLi1ELin1ELi1ELi1ELin1EEEEEEENS0_10IndexBasedEST_ddE5coeffEl, symObjAddr: 0x20B98, symBinAddr: 0x1000289F4, symSize: 0x70 }
  - { offsetInCU: 0x9DA39, offset: 0xB1429, size: 0x8, addend: 0x0, symName: __ZNK5Eigen8internal16binary_evaluatorINS_13CwiseBinaryOpINS0_18scalar_quotient_opIddEEKNS_16PartialReduxExprIKNS_12CwiseUnaryOpINS0_16scalar_square_opIdEEKNS_12ArrayWrapperINS_6MatrixIdLin1ELin1ELi0ELin1ELin1EEEEEEENS0_10member_sumIddEELi0EEEKNS_14CwiseNullaryOpINS0_18scalar_constant_opIdEEKNS_5ArrayIdLi1ELin1ELi1ELi1ELin1EEEEEEENS0_10IndexBasedEST_ddE4Data4funcEv, symObjAddr: 0x20C08, symBinAddr: 0x100028A64, symSize: 0x14 }
  - { offsetInCU: 0x9DA5F, offset: 0xB144F, size: 0x8, addend: 0x0, symName: __ZNK5Eigen8internal9evaluatorINS_16PartialReduxExprIKNS_12CwiseUnaryOpINS0_16scalar_square_opIdEEKNS_12ArrayWrapperINS_6MatrixIdLin1ELin1ELi0ELin1ELin1EEEEEEENS0_10member_sumIddEELi0EEEE5coeffEl, symObjAddr: 0x20C1C, symBinAddr: 0x100028A78, symSize: 0x48 }
  - { offsetInCU: 0x9DA9D, offset: 0xB148D, size: 0x8, addend: 0x0, symName: __ZNK5Eigen8internal9evaluatorINS_14CwiseNullaryOpINS0_18scalar_constant_opIdEEKNS_5ArrayIdLi1ELin1ELi1ELi1ELin1EEEEEE5coeffIlEEdT_, symObjAddr: 0x20C64, symBinAddr: 0x100028AC0, symSize: 0x38 }
  - { offsetInCU: 0x9DADB, offset: 0xB14CB, size: 0x8, addend: 0x0, symName: __ZNK5Eigen8internal10member_sumIddEclINS_5BlockIKNS_12CwiseUnaryOpINS0_16scalar_square_opIdEEKNS_12ArrayWrapperINS_6MatrixIdLin1ELin1ELi0ELin1ELin1EEEEEEELin1ELi1ELb1EEEEEdRKT_, symObjAddr: 0x20C9C, symBinAddr: 0x100028AF8, symSize: 0x28 }
  - { offsetInCU: 0x9DB18, offset: 0xB1508, size: 0x8, addend: 0x0, symName: __ZNK5Eigen9DenseBaseINS_12CwiseUnaryOpINS_8internal16scalar_square_opIdEEKNS_12ArrayWrapperINS_6MatrixIdLin1ELin1ELi0ELin1ELin1EEEEEEEE9subVectorILNS_13DirectionTypeE0EEENS2_11conditionalIXeqT_LSD_0EEKNS_5BlockIKSA_Lin1ELi1ELb1EEEKNSF_ISG_Li1ELin1ELb0EEEE4typeEl, symObjAddr: 0x20CC4, symBinAddr: 0x100028B20, symSize: 0x40 }
  - { offsetInCU: 0x9DB57, offset: 0xB1547, size: 0x8, addend: 0x0, symName: __ZNK5Eigen9DenseBaseINS_5BlockIKNS_12CwiseUnaryOpINS_8internal16scalar_square_opIdEEKNS_12ArrayWrapperINS_6MatrixIdLin1ELin1ELi0ELin1ELin1EEEEEEELin1ELi1ELb1EEEE3sumEv, symObjAddr: 0x20D04, symBinAddr: 0x100028B60, symSize: 0x74 }
  - { offsetInCU: 0x9DB80, offset: 0xB1570, size: 0x8, addend: 0x0, symName: __ZNK5Eigen9EigenBaseINS_5BlockIKNS_12CwiseUnaryOpINS_8internal16scalar_square_opIdEEKNS_12ArrayWrapperINS_6MatrixIdLin1ELin1ELi0ELin1ELin1EEEEEEELin1ELi1ELb1EEEE4sizeEv, symObjAddr: 0x20D78, symBinAddr: 0x100028BD4, symSize: 0x44 }
  - { offsetInCU: 0x9DBA6, offset: 0xB1596, size: 0x8, addend: 0x0, symName: __ZNK5Eigen9EigenBaseINS_5BlockIKNS_12CwiseUnaryOpINS_8internal16scalar_square_opIdEEKNS_12ArrayWrapperINS_6MatrixIdLin1ELin1ELi0ELin1ELin1EEEEEEELin1ELi1ELb1EEEE7derivedEv, symObjAddr: 0x20DBC, symBinAddr: 0x100028C18, symSize: 0x14 }
  - { offsetInCU: 0x9DBCC, offset: 0xB15BC, size: 0x8, addend: 0x0, symName: __ZNK5Eigen9DenseBaseINS_5BlockIKNS_12CwiseUnaryOpINS_8internal16scalar_square_opIdEEKNS_12ArrayWrapperINS_6MatrixIdLin1ELin1ELi0ELin1ELin1EEEEEEELin1ELi1ELb1EEEE5reduxINS3_13scalar_sum_opIddEEEEdRKT_, symObjAddr: 0x20DD0, symBinAddr: 0x100028C2C, symSize: 0x10C }
  - { offsetInCU: 0x9DC28, offset: 0xB1618, size: 0x8, addend: 0x0, symName: __ZNK5Eigen9EigenBaseINS_5BlockIKNS_12CwiseUnaryOpINS_8internal16scalar_square_opIdEEKNS_12ArrayWrapperINS_6MatrixIdLin1ELin1ELi0ELin1ELin1EEEEEEELin1ELi1ELb1EEEE4rowsEv, symObjAddr: 0x20EDC, symBinAddr: 0x100028D38, symSize: 0x44 }
  - { offsetInCU: 0x9DC4E, offset: 0xB163E, size: 0x8, addend: 0x0, symName: __ZNK5Eigen9EigenBaseINS_5BlockIKNS_12CwiseUnaryOpINS_8internal16scalar_square_opIdEEKNS_12ArrayWrapperINS_6MatrixIdLin1ELin1ELi0ELin1ELin1EEEEEEELin1ELi1ELb1EEEE4colsEv, symObjAddr: 0x20F20, symBinAddr: 0x100028D7C, symSize: 0x44 }
  - { offsetInCU: 0x9DC74, offset: 0xB1664, size: 0x8, addend: 0x0, symName: __ZNK5Eigen8internal15BlockImpl_denseIKNS_12CwiseUnaryOpINS0_16scalar_square_opIdEEKNS_12ArrayWrapperINS_6MatrixIdLin1ELin1ELi0ELin1ELin1EEEEEEELin1ELi1ELb1ELb0EE4rowsEv, symObjAddr: 0x20F64, symBinAddr: 0x100028DC0, symSize: 0x28 }
  - { offsetInCU: 0x9DC9A, offset: 0xB168A, size: 0x8, addend: 0x0, symName: __ZNK5Eigen8internal15BlockImpl_denseIKNS_12CwiseUnaryOpINS0_16scalar_square_opIdEEKNS_12ArrayWrapperINS_6MatrixIdLin1ELin1ELi0ELin1ELin1EEEEEEELin1ELi1ELb1ELb0EE4colsEv, symObjAddr: 0x20F8C, symBinAddr: 0x100028DE8, symSize: 0x20 }
  - { offsetInCU: 0x9DDAB, offset: 0xB179B, size: 0x8, addend: 0x0, symName: __ZN5Eigen8internal15redux_evaluatorINS_5BlockIKNS_12CwiseUnaryOpINS0_16scalar_square_opIdEEKNS_12ArrayWrapperINS_6MatrixIdLin1ELin1ELi0ELin1ELin1EEEEEEELin1ELi1ELb1EEEEC1ERKSD_, symObjAddr: 0x20FAC, symBinAddr: 0x100028E08, symSize: 0x34 }
  - { offsetInCU: 0x9DDE8, offset: 0xB17D8, size: 0x8, addend: 0x0, symName: __ZN5Eigen8internal10redux_implINS0_13scalar_sum_opIddEENS0_15redux_evaluatorINS_5BlockIKNS_12CwiseUnaryOpINS0_16scalar_square_opIdEEKNS_12ArrayWrapperINS_6MatrixIdLin1ELin1ELi0ELin1ELin1EEEEEEELin1ELi1ELb1EEEEELi3ELi0EE3runISG_EEdRKSH_RKS3_RKT_, symObjAddr: 0x20FE0, symBinAddr: 0x100028E3C, symSize: 0x348 }
  - { offsetInCU: 0x9DF66, offset: 0xB1956, size: 0x8, addend: 0x0, symName: __ZN5Eigen8internal15redux_evaluatorINS_5BlockIKNS_12CwiseUnaryOpINS0_16scalar_square_opIdEEKNS_12ArrayWrapperINS_6MatrixIdLin1ELin1ELi0ELin1ELin1EEEEEEELin1ELi1ELb1EEEED1Ev, symObjAddr: 0x21328, symBinAddr: 0x100029184, symSize: 0x2C }
  - { offsetInCU: 0x9DF93, offset: 0xB1983, size: 0x8, addend: 0x0, symName: __ZN5Eigen8internal15redux_evaluatorINS_5BlockIKNS_12CwiseUnaryOpINS0_16scalar_square_opIdEEKNS_12ArrayWrapperINS_6MatrixIdLin1ELin1ELi0ELin1ELin1EEEEEEELin1ELi1ELb1EEEEC2ERKSD_, symObjAddr: 0x21354, symBinAddr: 0x1000291B0, symSize: 0x34 }
  - { offsetInCU: 0x9DFCC, offset: 0xB19BC, size: 0x8, addend: 0x0, symName: __ZN5Eigen8internal9evaluatorINS_5BlockIKNS_12CwiseUnaryOpINS0_16scalar_square_opIdEEKNS_12ArrayWrapperINS_6MatrixIdLin1ELin1ELi0ELin1ELin1EEEEEEELin1ELi1ELb1EEEEC2ERKSD_, symObjAddr: 0x21388, symBinAddr: 0x1000291E4, symSize: 0x34 }
  - { offsetInCU: 0x9E005, offset: 0xB19F5, size: 0x8, addend: 0x0, symName: __ZN5Eigen8internal15block_evaluatorIKNS_12CwiseUnaryOpINS0_16scalar_square_opIdEEKNS_12ArrayWrapperINS_6MatrixIdLin1ELin1ELi0ELin1ELin1EEEEEEELin1ELi1ELb1ELb0EEC2ERKNS_5BlockISB_Lin1ELi1ELb1EEE, symObjAddr: 0x213BC, symBinAddr: 0x100029218, symSize: 0x34 }
  - { offsetInCU: 0x9E03E, offset: 0xB1A2E, size: 0x8, addend: 0x0, symName: __ZN5Eigen8internal15unary_evaluatorINS_5BlockIKNS_12CwiseUnaryOpINS0_16scalar_square_opIdEEKNS_12ArrayWrapperINS_6MatrixIdLin1ELin1ELi0ELin1ELin1EEEEEEELin1ELi1ELb1EEENS0_10IndexBasedEdEC2ERKSD_, symObjAddr: 0x213F0, symBinAddr: 0x10002924C, symSize: 0x128 }
  - { offsetInCU: 0x9E077, offset: 0xB1A67, size: 0x8, addend: 0x0, symName: __ZN5Eigen8internal14evaluator_baseINS_5BlockIKNS_12CwiseUnaryOpINS0_16scalar_square_opIdEEKNS_12ArrayWrapperINS_6MatrixIdLin1ELin1ELi0ELin1ELin1EEEEEEELin1ELi1ELb1EEEEC2Ev, symObjAddr: 0x21518, symBinAddr: 0x100029374, symSize: 0x14 }
  - { offsetInCU: 0x9E0A1, offset: 0xB1A91, size: 0x8, addend: 0x0, symName: __ZNK5Eigen8internal15BlockImpl_denseIKNS_12CwiseUnaryOpINS0_16scalar_square_opIdEEKNS_12ArrayWrapperINS_6MatrixIdLin1ELin1ELi0ELin1ELin1EEEEEEELin1ELi1ELb1ELb0EE16nestedExpressionEv, symObjAddr: 0x2152C, symBinAddr: 0x100029388, symSize: 0x14 }
  - { offsetInCU: 0x9E0C7, offset: 0xB1AB7, size: 0x8, addend: 0x0, symName: __ZN5Eigen8internal9evaluatorIKNS_12CwiseUnaryOpINS0_16scalar_square_opIdEEKNS_12ArrayWrapperINS_6MatrixIdLin1ELin1ELi0ELin1ELin1EEEEEEEEC1ERSB_, symObjAddr: 0x21540, symBinAddr: 0x10002939C, symSize: 0x34 }
  - { offsetInCU: 0x9E0FF, offset: 0xB1AEF, size: 0x8, addend: 0x0, symName: __ZNK5Eigen8internal15BlockImpl_denseIKNS_12CwiseUnaryOpINS0_16scalar_square_opIdEEKNS_12ArrayWrapperINS_6MatrixIdLin1ELin1ELi0ELin1ELin1EEEEEEELin1ELi1ELb1ELb0EE8startRowEv, symObjAddr: 0x21574, symBinAddr: 0x1000293D0, symSize: 0x28 }
  - { offsetInCU: 0x9E125, offset: 0xB1B15, size: 0x8, addend: 0x0, symName: __ZNK5Eigen8internal15BlockImpl_denseIKNS_12CwiseUnaryOpINS0_16scalar_square_opIdEEKNS_12ArrayWrapperINS_6MatrixIdLin1ELin1ELi0ELin1ELin1EEEEEEELin1ELi1ELb1ELb0EE8startColEv, symObjAddr: 0x2159C, symBinAddr: 0x1000293F8, symSize: 0x28 }
  - { offsetInCU: 0x9E14B, offset: 0xB1B3B, size: 0x8, addend: 0x0, symName: __ZNK5Eigen12CwiseUnaryOpINS_8internal16scalar_square_opIdEEKNS_12ArrayWrapperINS_6MatrixIdLin1ELin1ELi0ELin1ELin1EEEEEE4rowsEv, symObjAddr: 0x215C4, symBinAddr: 0x100029420, symSize: 0x24 }
  - { offsetInCU: 0x9E171, offset: 0xB1B61, size: 0x8, addend: 0x0, symName: __ZN5Eigen8internal9evaluatorIKNS_12CwiseUnaryOpINS0_16scalar_square_opIdEEKNS_12ArrayWrapperINS_6MatrixIdLin1ELin1ELi0ELin1ELin1EEEEEEEED1Ev, symObjAddr: 0x215E8, symBinAddr: 0x100029444, symSize: 0x2C }
  - { offsetInCU: 0x9E19D, offset: 0xB1B8D, size: 0x8, addend: 0x0, symName: __ZN5Eigen8internal14evaluator_baseINS_5BlockIKNS_12CwiseUnaryOpINS0_16scalar_square_opIdEEKNS_12ArrayWrapperINS_6MatrixIdLin1ELin1ELi0ELin1ELin1EEEEEEELin1ELi1ELb1EEEED2Ev, symObjAddr: 0x21614, symBinAddr: 0x100029470, symSize: 0x14 }
  - { offsetInCU: 0x9E1C7, offset: 0xB1BB7, size: 0x8, addend: 0x0, symName: __ZN5Eigen8internal9evaluatorIKNS_12CwiseUnaryOpINS0_16scalar_square_opIdEEKNS_12ArrayWrapperINS_6MatrixIdLin1ELin1ELi0ELin1ELin1EEEEEEEEC2ERSB_, symObjAddr: 0x21628, symBinAddr: 0x100029484, symSize: 0x34 }
  - { offsetInCU: 0x9E1FF, offset: 0xB1BEF, size: 0x8, addend: 0x0, symName: __ZN5Eigen8internal9evaluatorINS_12CwiseUnaryOpINS0_16scalar_square_opIdEEKNS_12ArrayWrapperINS_6MatrixIdLin1ELin1ELi0ELin1ELin1EEEEEEEEC2ERKSA_, symObjAddr: 0x2165C, symBinAddr: 0x1000294B8, symSize: 0x34 }
  - { offsetInCU: 0x9E237, offset: 0xB1C27, size: 0x8, addend: 0x0, symName: __ZN5Eigen8internal15unary_evaluatorINS_12CwiseUnaryOpINS0_16scalar_square_opIdEEKNS_12ArrayWrapperINS_6MatrixIdLin1ELin1ELi0ELin1ELin1EEEEEEENS0_10IndexBasedEdEC2ERKSA_, symObjAddr: 0x21690, symBinAddr: 0x1000294EC, symSize: 0x64 }
  - { offsetInCU: 0x9E270, offset: 0xB1C60, size: 0x8, addend: 0x0, symName: __ZN5Eigen8internal14evaluator_baseINS_12CwiseUnaryOpINS0_16scalar_square_opIdEEKNS_12ArrayWrapperINS_6MatrixIdLin1ELin1ELi0ELin1ELin1EEEEEEEEC2Ev, symObjAddr: 0x216F4, symBinAddr: 0x100029550, symSize: 0x14 }
  - { offsetInCU: 0x9E29A, offset: 0xB1C8A, size: 0x8, addend: 0x0, symName: __ZN5Eigen8internal15unary_evaluatorINS_12CwiseUnaryOpINS0_16scalar_square_opIdEEKNS_12ArrayWrapperINS_6MatrixIdLin1ELin1ELi0ELin1ELin1EEEEEEENS0_10IndexBasedEdE4DataC1ERKSA_, symObjAddr: 0x21708, symBinAddr: 0x100029564, symSize: 0x34 }
  - { offsetInCU: 0x9E2D3, offset: 0xB1CC3, size: 0x8, addend: 0x0, symName: __ZN5Eigen8internal14evaluator_baseINS_12CwiseUnaryOpINS0_16scalar_square_opIdEEKNS_12ArrayWrapperINS_6MatrixIdLin1ELin1ELi0ELin1ELin1EEEEEEEED2Ev, symObjAddr: 0x2173C, symBinAddr: 0x100029598, symSize: 0x14 }
  - { offsetInCU: 0x9E2FD, offset: 0xB1CED, size: 0x8, addend: 0x0, symName: __ZN5Eigen8internal15unary_evaluatorINS_12CwiseUnaryOpINS0_16scalar_square_opIdEEKNS_12ArrayWrapperINS_6MatrixIdLin1ELin1ELi0ELin1ELin1EEEEEEENS0_10IndexBasedEdE4DataC2ERKSA_, symObjAddr: 0x21750, symBinAddr: 0x1000295AC, symSize: 0x58 }
  - { offsetInCU: 0x9E336, offset: 0xB1D26, size: 0x8, addend: 0x0, symName: __ZNK5Eigen12CwiseUnaryOpINS_8internal16scalar_square_opIdEEKNS_12ArrayWrapperINS_6MatrixIdLin1ELin1ELi0ELin1ELin1EEEEEE7functorEv, symObjAddr: 0x217A8, symBinAddr: 0x100029604, symSize: 0x18 }
  - { offsetInCU: 0x9E35C, offset: 0xB1D4C, size: 0x8, addend: 0x0, symName: __ZNK5Eigen12CwiseUnaryOpINS_8internal16scalar_square_opIdEEKNS_12ArrayWrapperINS_6MatrixIdLin1ELin1ELi0ELin1ELin1EEEEEE16nestedExpressionEv, symObjAddr: 0x217C0, symBinAddr: 0x10002961C, symSize: 0x14 }
  - { offsetInCU: 0x9E382, offset: 0xB1D72, size: 0x8, addend: 0x0, symName: __ZN5Eigen8internal9evaluatorIKNS_12ArrayWrapperINS_6MatrixIdLin1ELin1ELi0ELin1ELin1EEEEEEC1ERS6_, symObjAddr: 0x217D4, symBinAddr: 0x100029630, symSize: 0x34 }
  - { offsetInCU: 0x9E3BA, offset: 0xB1DAA, size: 0x8, addend: 0x0, symName: __ZN5Eigen8internal9evaluatorIKNS_12ArrayWrapperINS_6MatrixIdLin1ELin1ELi0ELin1ELin1EEEEEEC2ERS6_, symObjAddr: 0x21808, symBinAddr: 0x100029664, symSize: 0x34 }
  - { offsetInCU: 0x9E3F2, offset: 0xB1DE2, size: 0x8, addend: 0x0, symName: __ZN5Eigen8internal9evaluatorINS_12ArrayWrapperINS_6MatrixIdLin1ELin1ELi0ELin1ELin1EEEEEEC2ERKS5_, symObjAddr: 0x2183C, symBinAddr: 0x100029698, symSize: 0x34 }
  - { offsetInCU: 0x9E42A, offset: 0xB1E1A, size: 0x8, addend: 0x0, symName: __ZN5Eigen8internal15unary_evaluatorINS_12ArrayWrapperINS_6MatrixIdLin1ELin1ELi0ELin1ELin1EEEEENS0_10IndexBasedEdEC2ERKS5_, symObjAddr: 0x21870, symBinAddr: 0x1000296CC, symSize: 0x40 }
  - { offsetInCU: 0x9E463, offset: 0xB1E53, size: 0x8, addend: 0x0, symName: __ZNK5Eigen12ArrayWrapperINS_6MatrixIdLin1ELin1ELi0ELin1ELin1EEEE16nestedExpressionEv, symObjAddr: 0x218B0, symBinAddr: 0x10002970C, symSize: 0x18 }
  - { offsetInCU: 0x9E489, offset: 0xB1E79, size: 0x8, addend: 0x0, symName: __ZN5Eigen8internal22evaluator_wrapper_baseINS_12ArrayWrapperINS_6MatrixIdLin1ELin1ELi0ELin1ELin1EEEEEEC2ERKS4_, symObjAddr: 0x218C8, symBinAddr: 0x100029724, symSize: 0x64 }
  - { offsetInCU: 0x9E4C2, offset: 0xB1EB2, size: 0x8, addend: 0x0, symName: __ZN5Eigen8internal14evaluator_baseINS_12ArrayWrapperINS_6MatrixIdLin1ELin1ELi0ELin1ELin1EEEEEEC2Ev, symObjAddr: 0x2192C, symBinAddr: 0x100029788, symSize: 0x14 }
  - { offsetInCU: 0x9E4EC, offset: 0xB1EDC, size: 0x8, addend: 0x0, symName: __ZN5Eigen8internal14evaluator_baseINS_12ArrayWrapperINS_6MatrixIdLin1ELin1ELi0ELin1ELin1EEEEEED2Ev, symObjAddr: 0x21940, symBinAddr: 0x10002979C, symSize: 0x14 }
  - { offsetInCU: 0x9E516, offset: 0xB1F06, size: 0x8, addend: 0x0, symName: __ZNK5Eigen12ArrayWrapperINS_6MatrixIdLin1ELin1ELi0ELin1ELin1EEEE4rowsEv, symObjAddr: 0x21954, symBinAddr: 0x1000297B0, symSize: 0x28 }
  - { offsetInCU: 0x9E53C, offset: 0xB1F2C, size: 0x8, addend: 0x0, symName: __ZN5Eigen8internal9evaluatorIKNS_12CwiseUnaryOpINS0_16scalar_square_opIdEEKNS_12ArrayWrapperINS_6MatrixIdLin1ELin1ELi0ELin1ELin1EEEEEEEED2Ev, symObjAddr: 0x2197C, symBinAddr: 0x1000297D8, symSize: 0x2C }
  - { offsetInCU: 0x9E568, offset: 0xB1F58, size: 0x8, addend: 0x0, symName: __ZN5Eigen8internal9evaluatorINS_12CwiseUnaryOpINS0_16scalar_square_opIdEEKNS_12ArrayWrapperINS_6MatrixIdLin1ELin1ELi0ELin1ELin1EEEEEEEED2Ev, symObjAddr: 0x219A8, symBinAddr: 0x100029804, symSize: 0x2C }
  - { offsetInCU: 0x9E594, offset: 0xB1F84, size: 0x8, addend: 0x0, symName: __ZN5Eigen8internal15unary_evaluatorINS_12CwiseUnaryOpINS0_16scalar_square_opIdEEKNS_12ArrayWrapperINS_6MatrixIdLin1ELin1ELi0ELin1ELin1EEEEEEENS0_10IndexBasedEdED2Ev, symObjAddr: 0x219D4, symBinAddr: 0x100029830, symSize: 0x34 }
  - { offsetInCU: 0x9E5C0, offset: 0xB1FB0, size: 0x8, addend: 0x0, symName: __ZN5Eigen8internal15unary_evaluatorINS_12CwiseUnaryOpINS0_16scalar_square_opIdEEKNS_12ArrayWrapperINS_6MatrixIdLin1ELin1ELi0ELin1ELin1EEEEEEENS0_10IndexBasedEdE4DataD1Ev, symObjAddr: 0x21A08, symBinAddr: 0x100029864, symSize: 0x2C }
  - { offsetInCU: 0x9E5ED, offset: 0xB1FDD, size: 0x8, addend: 0x0, symName: __ZN5Eigen8internal15unary_evaluatorINS_12CwiseUnaryOpINS0_16scalar_square_opIdEEKNS_12ArrayWrapperINS_6MatrixIdLin1ELin1ELi0ELin1ELin1EEEEEEENS0_10IndexBasedEdE4DataD2Ev, symObjAddr: 0x21A34, symBinAddr: 0x100029890, symSize: 0x30 }
  - { offsetInCU: 0x9E61A, offset: 0xB200A, size: 0x8, addend: 0x0, symName: __ZN5Eigen8internal9evaluatorIKNS_12ArrayWrapperINS_6MatrixIdLin1ELin1ELi0ELin1ELin1EEEEEED1Ev, symObjAddr: 0x21A64, symBinAddr: 0x1000298C0, symSize: 0x2C }
  - { offsetInCU: 0x9E646, offset: 0xB2036, size: 0x8, addend: 0x0, symName: __ZN5Eigen8internal9evaluatorIKNS_12ArrayWrapperINS_6MatrixIdLin1ELin1ELi0ELin1ELin1EEEEEED2Ev, symObjAddr: 0x21A90, symBinAddr: 0x1000298EC, symSize: 0x2C }
  - { offsetInCU: 0x9E672, offset: 0xB2062, size: 0x8, addend: 0x0, symName: __ZN5Eigen8internal9evaluatorINS_12ArrayWrapperINS_6MatrixIdLin1ELin1ELi0ELin1ELin1EEEEEED2Ev, symObjAddr: 0x21ABC, symBinAddr: 0x100029918, symSize: 0x2C }
  - { offsetInCU: 0x9E69E, offset: 0xB208E, size: 0x8, addend: 0x0, symName: __ZN5Eigen8internal15unary_evaluatorINS_12ArrayWrapperINS_6MatrixIdLin1ELin1ELi0ELin1ELin1EEEEENS0_10IndexBasedEdED2Ev, symObjAddr: 0x21AE8, symBinAddr: 0x100029944, symSize: 0x2C }
  - { offsetInCU: 0x9E6CB, offset: 0xB20BB, size: 0x8, addend: 0x0, symName: __ZN5Eigen8internal22evaluator_wrapper_baseINS_12ArrayWrapperINS_6MatrixIdLin1ELin1ELi0ELin1ELin1EEEEEED2Ev, symObjAddr: 0x21B14, symBinAddr: 0x100029970, symSize: 0x34 }
  - { offsetInCU: 0x9E6F8, offset: 0xB20E8, size: 0x8, addend: 0x0, symName: __ZNK5Eigen8internal15unary_evaluatorINS_5BlockIKNS_12CwiseUnaryOpINS0_16scalar_square_opIdEEKNS_12ArrayWrapperINS_6MatrixIdLin1ELin1ELi0ELin1ELin1EEEEEEELin1ELi1ELb1EEENS0_10IndexBasedEdE6packetILi0E19__simd128_float64_tEET0_l, symObjAddr: 0x21B6C, symBinAddr: 0x1000299C8, symSize: 0x44 }
  - { offsetInCU: 0x9E740, offset: 0xB2130, size: 0x8, addend: 0x0, symName: __ZNK5Eigen8internal15unary_evaluatorINS_5BlockIKNS_12CwiseUnaryOpINS0_16scalar_square_opIdEEKNS_12ArrayWrapperINS_6MatrixIdLin1ELin1ELi0ELin1ELin1EEEEEEELin1ELi1ELb1EEENS0_10IndexBasedEdE5coeffEl, symObjAddr: 0x21BB0, symBinAddr: 0x100029A0C, symSize: 0x2C }
  - { offsetInCU: 0x9E775, offset: 0xB2165, size: 0x8, addend: 0x0, symName: __ZN5Eigen8internal18first_aligned_implILi16ENS_5BlockIKNS_12CwiseUnaryOpINS0_16scalar_square_opIdEEKNS_12ArrayWrapperINS_6MatrixIdLin1ELin1ELi0ELin1ELin1EEEEEEELin1ELi1ELb1EEELb1EE3runERKSD_, symObjAddr: 0x21C04, symBinAddr: 0x100029A60, symSize: 0x14 }
  - { offsetInCU: 0x9E796, offset: 0xB2186, size: 0x8, addend: 0x0, symName: __ZNK5Eigen8internal15unary_evaluatorINS_12CwiseUnaryOpINS0_16scalar_square_opIdEEKNS_12ArrayWrapperINS_6MatrixIdLin1ELin1ELi0ELin1ELin1EEEEEEENS0_10IndexBasedEdE6packetILi0E19__simd128_float64_tEET0_l, symObjAddr: 0x21C18, symBinAddr: 0x100029A74, symSize: 0x50 }
  - { offsetInCU: 0x9E7DE, offset: 0xB21CE, size: 0x8, addend: 0x0, symName: __ZNK5Eigen8internal15unary_evaluatorINS_12CwiseUnaryOpINS0_16scalar_square_opIdEEKNS_12ArrayWrapperINS_6MatrixIdLin1ELin1ELi0ELin1ELin1EEEEEEENS0_10IndexBasedEdE4Data4funcEv, symObjAddr: 0x21C68, symBinAddr: 0x100029AC4, symSize: 0x14 }
  - { offsetInCU: 0x9E804, offset: 0xB21F4, size: 0x8, addend: 0x0, symName: __ZNK5Eigen8internal16scalar_square_opIdE8packetOpI19__simd128_float64_tEEKT_RS6_, symObjAddr: 0x21C7C, symBinAddr: 0x100029AD8, symSize: 0x2C }
  - { offsetInCU: 0x9E842, offset: 0xB2232, size: 0x8, addend: 0x0, symName: __ZNK5Eigen8internal22evaluator_wrapper_baseINS_12ArrayWrapperINS_6MatrixIdLin1ELin1ELi0ELin1ELin1EEEEEE6packetILi0E19__simd128_float64_tEET0_l, symObjAddr: 0x21CA8, symBinAddr: 0x100029B04, symSize: 0x2C }
  - { offsetInCU: 0x9E88A, offset: 0xB227A, size: 0x8, addend: 0x0, symName: __ZNK5Eigen8internal9evaluatorINS_15PlainObjectBaseINS_6MatrixIdLin1ELin1ELi0ELin1ELin1EEEEEE6packetILi0E19__simd128_float64_tEET0_l, symObjAddr: 0x21CD4, symBinAddr: 0x100029B30, symSize: 0x3C }
  - { offsetInCU: 0x9E8F0, offset: 0xB22E0, size: 0x8, addend: 0x0, symName: __ZNK5Eigen8internal15unary_evaluatorINS_5BlockIKNS_12CwiseUnaryOpINS0_16scalar_square_opIdEEKNS_12ArrayWrapperINS_6MatrixIdLin1ELin1ELi0ELin1ELin1EEEEEEELin1ELi1ELb1EEENS0_10IndexBasedEdE17linear_coeff_implElNS0_9true_typeE, symObjAddr: 0x21D10, symBinAddr: 0x100029B6C, symSize: 0x44 }
  - { offsetInCU: 0x9E931, offset: 0xB2321, size: 0x8, addend: 0x0, symName: __ZNK5Eigen8internal15unary_evaluatorINS_12CwiseUnaryOpINS0_16scalar_square_opIdEEKNS_12ArrayWrapperINS_6MatrixIdLin1ELin1ELi0ELin1ELin1EEEEEEENS0_10IndexBasedEdE5coeffEl, symObjAddr: 0x21D54, symBinAddr: 0x100029BB0, symSize: 0x4C }
  - { offsetInCU: 0x9E966, offset: 0xB2356, size: 0x8, addend: 0x0, symName: __ZNK5Eigen8internal16scalar_square_opIdEclERKd, symObjAddr: 0x21DA0, symBinAddr: 0x100029BFC, symSize: 0x28 }
  - { offsetInCU: 0x9E99B, offset: 0xB238B, size: 0x8, addend: 0x0, symName: __ZNK5Eigen8internal22evaluator_wrapper_baseINS_12ArrayWrapperINS_6MatrixIdLin1ELin1ELi0ELin1ELin1EEEEEE5coeffEl, symObjAddr: 0x21DC8, symBinAddr: 0x100029C24, symSize: 0x2C }
  - { offsetInCU: 0x9E9D0, offset: 0xB23C0, size: 0x8, addend: 0x0, symName: __ZN5Eigen8internal15redux_evaluatorINS_5BlockIKNS_12CwiseUnaryOpINS0_16scalar_square_opIdEEKNS_12ArrayWrapperINS_6MatrixIdLin1ELin1ELi0ELin1ELin1EEEEEEELin1ELi1ELb1EEEED2Ev, symObjAddr: 0x21DF4, symBinAddr: 0x100029C50, symSize: 0x2C }
  - { offsetInCU: 0x9E9FD, offset: 0xB23ED, size: 0x8, addend: 0x0, symName: __ZN5Eigen8internal9evaluatorINS_5BlockIKNS_12CwiseUnaryOpINS0_16scalar_square_opIdEEKNS_12ArrayWrapperINS_6MatrixIdLin1ELin1ELi0ELin1ELin1EEEEEEELin1ELi1ELb1EEEED2Ev, symObjAddr: 0x21E20, symBinAddr: 0x100029C7C, symSize: 0x2C }
  - { offsetInCU: 0x9EA2A, offset: 0xB241A, size: 0x8, addend: 0x0, symName: __ZN5Eigen8internal15block_evaluatorIKNS_12CwiseUnaryOpINS0_16scalar_square_opIdEEKNS_12ArrayWrapperINS_6MatrixIdLin1ELin1ELi0ELin1ELin1EEEEEEELin1ELi1ELb1ELb0EED2Ev, symObjAddr: 0x21E4C, symBinAddr: 0x100029CA8, symSize: 0x2C }
  - { offsetInCU: 0x9EA57, offset: 0xB2447, size: 0x8, addend: 0x0, symName: __ZN5Eigen8internal15unary_evaluatorINS_5BlockIKNS_12CwiseUnaryOpINS0_16scalar_square_opIdEEKNS_12ArrayWrapperINS_6MatrixIdLin1ELin1ELi0ELin1ELin1EEEEEEELin1ELi1ELb1EEENS0_10IndexBasedEdED2Ev, symObjAddr: 0x21E78, symBinAddr: 0x100029CD4, symSize: 0x34 }
  - { offsetInCU: 0x9EA83, offset: 0xB2473, size: 0x8, addend: 0x0, symName: __ZN5Eigen5BlockIKNS_12CwiseUnaryOpINS_8internal16scalar_square_opIdEEKNS_12ArrayWrapperINS_6MatrixIdLin1ELin1ELi0ELin1ELin1EEEEEEELin1ELi1ELb1EEC1ERSB_l, symObjAddr: 0x21EAC, symBinAddr: 0x100029D08, symSize: 0x3C }
  - { offsetInCU: 0x9EAC9, offset: 0xB24B9, size: 0x8, addend: 0x0, symName: __ZN5Eigen5BlockIKNS_12CwiseUnaryOpINS_8internal16scalar_square_opIdEEKNS_12ArrayWrapperINS_6MatrixIdLin1ELin1ELi0ELin1ELin1EEEEEEELin1ELi1ELb1EEC2ERSB_l, symObjAddr: 0x21EE8, symBinAddr: 0x100029D44, symSize: 0xAC }
  - { offsetInCU: 0x9EB0F, offset: 0xB24FF, size: 0x8, addend: 0x0, symName: __ZN5Eigen9BlockImplIKNS_12CwiseUnaryOpINS_8internal16scalar_square_opIdEEKNS_12ArrayWrapperINS_6MatrixIdLin1ELin1ELi0ELin1ELin1EEEEEEELin1ELi1ELb1ENS_5DenseEEC2ERSB_l, symObjAddr: 0x21F94, symBinAddr: 0x100029DF0, symSize: 0x3C }
  - { offsetInCU: 0x9EB55, offset: 0xB2545, size: 0x8, addend: 0x0, symName: __ZN5Eigen8internal15BlockImpl_denseIKNS_12CwiseUnaryOpINS0_16scalar_square_opIdEEKNS_12ArrayWrapperINS_6MatrixIdLin1ELin1ELi0ELin1ELin1EEEEEEELin1ELi1ELb1ELb0EEC2ERSB_l, symObjAddr: 0x21FD0, symBinAddr: 0x100029E2C, symSize: 0x88 }
  - { offsetInCU: 0x9EB9B, offset: 0xB258B, size: 0x8, addend: 0x0, symName: __ZN5Eigen9ArrayBaseINS_5BlockIKNS_12CwiseUnaryOpINS_8internal16scalar_square_opIdEEKNS_12ArrayWrapperINS_6MatrixIdLin1ELin1ELi0ELin1ELin1EEEEEEELin1ELi1ELb1EEEEC2Ev, symObjAddr: 0x22058, symBinAddr: 0x100029EB4, symSize: 0x2C }
  - { offsetInCU: 0x9EBC5, offset: 0xB25B5, size: 0x8, addend: 0x0, symName: __ZN5Eigen9DenseBaseINS_5BlockIKNS_12CwiseUnaryOpINS_8internal16scalar_square_opIdEEKNS_12ArrayWrapperINS_6MatrixIdLin1ELin1ELi0ELin1ELin1EEEEEEELin1ELi1ELb1EEEEC2Ev, symObjAddr: 0x22084, symBinAddr: 0x100029EE0, symSize: 0x14 }
  - { offsetInCU: 0x9EBEF, offset: 0xB25DF, size: 0x8, addend: 0x0, symName: __ZN5Eigen8internal9evaluatorINS_12CwiseUnaryOpINS0_14scalar_sqrt_opIdEEKNS_13CwiseBinaryOpINS0_18scalar_quotient_opIddEEKNS_16PartialReduxExprIKNS2_INS0_16scalar_square_opIdEEKNS_12ArrayWrapperINS_6MatrixIdLin1ELin1ELi0ELin1ELin1EEEEEEENS0_10member_sumIddEELi0EEEKNS_14CwiseNullaryOpINS0_18scalar_constant_opIdEEKNS_5ArrayIdLi1ELin1ELi1ELi1ELin1EEEEEEEEEED2Ev, symObjAddr: 0x22098, symBinAddr: 0x100029EF4, symSize: 0x2C }
  - { offsetInCU: 0x9EC1B, offset: 0xB260B, size: 0x8, addend: 0x0, symName: __ZN5Eigen8internal15unary_evaluatorINS_12CwiseUnaryOpINS0_14scalar_sqrt_opIdEEKNS_13CwiseBinaryOpINS0_18scalar_quotient_opIddEEKNS_16PartialReduxExprIKNS2_INS0_16scalar_square_opIdEEKNS_12ArrayWrapperINS_6MatrixIdLin1ELin1ELi0ELin1ELin1EEEEEEENS0_10member_sumIddEELi0EEEKNS_14CwiseNullaryOpINS0_18scalar_constant_opIdEEKNS_5ArrayIdLi1ELin1ELi1ELi1ELin1EEEEEEEEENS0_10IndexBasedEdED2Ev, symObjAddr: 0x220C4, symBinAddr: 0x100029F20, symSize: 0x34 }
  - { offsetInCU: 0x9EC47, offset: 0xB2637, size: 0x8, addend: 0x0, symName: __ZN5Eigen8internal15unary_evaluatorINS_12CwiseUnaryOpINS0_14scalar_sqrt_opIdEEKNS_13CwiseBinaryOpINS0_18scalar_quotient_opIddEEKNS_16PartialReduxExprIKNS2_INS0_16scalar_square_opIdEEKNS_12ArrayWrapperINS_6MatrixIdLin1ELin1ELi0ELin1ELin1EEEEEEENS0_10member_sumIddEELi0EEEKNS_14CwiseNullaryOpINS0_18scalar_constant_opIdEEKNS_5ArrayIdLi1ELin1ELi1ELi1ELin1EEEEEEEEENS0_10IndexBasedEdE4DataD1Ev, symObjAddr: 0x220F8, symBinAddr: 0x100029F54, symSize: 0x2C }
  - { offsetInCU: 0x9EC74, offset: 0xB2664, size: 0x8, addend: 0x0, symName: __ZN5Eigen8internal15unary_evaluatorINS_12CwiseUnaryOpINS0_14scalar_sqrt_opIdEEKNS_13CwiseBinaryOpINS0_18scalar_quotient_opIddEEKNS_16PartialReduxExprIKNS2_INS0_16scalar_square_opIdEEKNS_12ArrayWrapperINS_6MatrixIdLin1ELin1ELi0ELin1ELin1EEEEEEENS0_10member_sumIddEELi0EEEKNS_14CwiseNullaryOpINS0_18scalar_constant_opIdEEKNS_5ArrayIdLi1ELin1ELi1ELi1ELin1EEEEEEEEENS0_10IndexBasedEdE4DataD2Ev, symObjAddr: 0x22124, symBinAddr: 0x100029F80, symSize: 0x30 }
  - { offsetInCU: 0x9ECA1, offset: 0xB2691, size: 0x8, addend: 0x0, symName: __ZN5Eigen8internal9evaluatorIKNS_13CwiseBinaryOpINS0_18scalar_quotient_opIddEEKNS_16PartialReduxExprIKNS_12CwiseUnaryOpINS0_16scalar_square_opIdEEKNS_12ArrayWrapperINS_6MatrixIdLin1ELin1ELi0ELin1ELin1EEEEEEENS0_10member_sumIddEELi0EEEKNS_14CwiseNullaryOpINS0_18scalar_constant_opIdEEKNS_5ArrayIdLi1ELin1ELi1ELi1ELin1EEEEEEEED1Ev, symObjAddr: 0x22154, symBinAddr: 0x100029FB0, symSize: 0x2C }
  - { offsetInCU: 0x9ECCD, offset: 0xB26BD, size: 0x8, addend: 0x0, symName: __ZN5Eigen8internal9evaluatorIKNS_13CwiseBinaryOpINS0_18scalar_quotient_opIddEEKNS_16PartialReduxExprIKNS_12CwiseUnaryOpINS0_16scalar_square_opIdEEKNS_12ArrayWrapperINS_6MatrixIdLin1ELin1ELi0ELin1ELin1EEEEEEENS0_10member_sumIddEELi0EEEKNS_14CwiseNullaryOpINS0_18scalar_constant_opIdEEKNS_5ArrayIdLi1ELin1ELi1ELi1ELin1EEEEEEEED2Ev, symObjAddr: 0x22180, symBinAddr: 0x100029FDC, symSize: 0x2C }
  - { offsetInCU: 0x9ECF9, offset: 0xB26E9, size: 0x8, addend: 0x0, symName: __ZN5Eigen8internal9evaluatorINS_13CwiseBinaryOpINS0_18scalar_quotient_opIddEEKNS_16PartialReduxExprIKNS_12CwiseUnaryOpINS0_16scalar_square_opIdEEKNS_12ArrayWrapperINS_6MatrixIdLin1ELin1ELi0ELin1ELin1EEEEEEENS0_10member_sumIddEELi0EEEKNS_14CwiseNullaryOpINS0_18scalar_constant_opIdEEKNS_5ArrayIdLi1ELin1ELi1ELi1ELin1EEEEEEEED2Ev, symObjAddr: 0x221AC, symBinAddr: 0x10002A008, symSize: 0x2C }
  - { offsetInCU: 0x9ED26, offset: 0xB2716, size: 0x8, addend: 0x0, symName: __ZN5Eigen8internal16binary_evaluatorINS_13CwiseBinaryOpINS0_18scalar_quotient_opIddEEKNS_16PartialReduxExprIKNS_12CwiseUnaryOpINS0_16scalar_square_opIdEEKNS_12ArrayWrapperINS_6MatrixIdLin1ELin1ELi0ELin1ELin1EEEEEEENS0_10member_sumIddEELi0EEEKNS_14CwiseNullaryOpINS0_18scalar_constant_opIdEEKNS_5ArrayIdLi1ELin1ELi1ELi1ELin1EEEEEEENS0_10IndexBasedEST_ddED2Ev, symObjAddr: 0x221D8, symBinAddr: 0x10002A034, symSize: 0x34 }
  - { offsetInCU: 0x9ED52, offset: 0xB2742, size: 0x8, addend: 0x0, symName: __ZN5Eigen8internal16binary_evaluatorINS_13CwiseBinaryOpINS0_18scalar_quotient_opIddEEKNS_16PartialReduxExprIKNS_12CwiseUnaryOpINS0_16scalar_square_opIdEEKNS_12ArrayWrapperINS_6MatrixIdLin1ELin1ELi0ELin1ELin1EEEEEEENS0_10member_sumIddEELi0EEEKNS_14CwiseNullaryOpINS0_18scalar_constant_opIdEEKNS_5ArrayIdLi1ELin1ELi1ELi1ELin1EEEEEEENS0_10IndexBasedEST_ddE4DataD1Ev, symObjAddr: 0x2220C, symBinAddr: 0x10002A068, symSize: 0x2C }
  - { offsetInCU: 0x9ED7F, offset: 0xB276F, size: 0x8, addend: 0x0, symName: __ZN5Eigen8internal16binary_evaluatorINS_13CwiseBinaryOpINS0_18scalar_quotient_opIddEEKNS_16PartialReduxExprIKNS_12CwiseUnaryOpINS0_16scalar_square_opIdEEKNS_12ArrayWrapperINS_6MatrixIdLin1ELin1ELi0ELin1ELin1EEEEEEENS0_10member_sumIddEELi0EEEKNS_14CwiseNullaryOpINS0_18scalar_constant_opIdEEKNS_5ArrayIdLi1ELin1ELi1ELi1ELin1EEEEEEENS0_10IndexBasedEST_ddE4DataD2Ev, symObjAddr: 0x22238, symBinAddr: 0x10002A094, symSize: 0x3C }
  - { offsetInCU: 0x9EDAC, offset: 0xB279C, size: 0x8, addend: 0x0, symName: __ZN5Eigen8internal9evaluatorIKNS_14CwiseNullaryOpINS0_18scalar_constant_opIdEEKNS_5ArrayIdLi1ELin1ELi1ELi1ELin1EEEEEED1Ev, symObjAddr: 0x22274, symBinAddr: 0x10002A0D0, symSize: 0x2C }
  - { offsetInCU: 0x9EDD8, offset: 0xB27C8, size: 0x8, addend: 0x0, symName: __ZN5Eigen8internal9evaluatorIKNS_14CwiseNullaryOpINS0_18scalar_constant_opIdEEKNS_5ArrayIdLi1ELin1ELi1ELi1ELin1EEEEEED2Ev, symObjAddr: 0x222A0, symBinAddr: 0x10002A0FC, symSize: 0x2C }
  - { offsetInCU: 0x9EE04, offset: 0xB27F4, size: 0x8, addend: 0x0, symName: __ZN5Eigen8internal9evaluatorINS_14CwiseNullaryOpINS0_18scalar_constant_opIdEEKNS_5ArrayIdLi1ELin1ELi1ELi1ELin1EEEEEED2Ev, symObjAddr: 0x222CC, symBinAddr: 0x10002A128, symSize: 0x2C }
  - { offsetInCU: 0x9EE30, offset: 0xB2820, size: 0x8, addend: 0x0, symName: __ZN5Eigen15DenseCoeffsBaseINS_6MatrixIdLin1ELin1ELi0ELin1ELin1EEELi1EE8coeffRefEll, symObjAddr: 0x222F8, symBinAddr: 0x10002A154, symSize: 0x80 }
  - { offsetInCU: 0x9EE74, offset: 0xB2864, size: 0x8, addend: 0x0, symName: __ZN5Eigen15DenseCoeffsBaseINS_6MatrixIdLin1ELi1ELi0ELin1ELi1EEELi1EE8coeffRefEl, symObjAddr: 0x223BC, symBinAddr: 0x10002A1D4, symSize: 0x58 }
  - { offsetInCU: 0x9EEA8, offset: 0xB2898, size: 0x8, addend: 0x0, symName: __ZN5Eigen8internal11dot_nocheckINS_6MatrixIdLin1ELi1ELi0ELin1ELi1EEES3_Lb0EE3runERKNS_10MatrixBaseIS3_EES8_, symObjAddr: 0x22488, symBinAddr: 0x10002A22C, symSize: 0x5C }
  - { offsetInCU: 0x9EEDA, offset: 0xB28CA, size: 0x8, addend: 0x0, symName: __ZNK5Eigen10MatrixBaseINS_6MatrixIdLin1ELi1ELi0ELin1ELi1EEEE10binaryExprINS_8internal22scalar_conj_product_opIddEES2_EEKNS_13CwiseBinaryOpIT_KS2_KT0_EERKNS0_ISB_EERKS9_, symObjAddr: 0x224E4, symBinAddr: 0x10002A288, symSize: 0x54 }
  - { offsetInCU: 0x9EF2E, offset: 0xB291E, size: 0x8, addend: 0x0, symName: __ZNK5Eigen9DenseBaseINS_13CwiseBinaryOpINS_8internal22scalar_conj_product_opIddEEKNS_6MatrixIdLin1ELi1ELi0ELin1ELi1EEES7_EEE3sumEv, symObjAddr: 0x22538, symBinAddr: 0x10002A2DC, symSize: 0x74 }
  - { offsetInCU: 0x9EF57, offset: 0xB2947, size: 0x8, addend: 0x0, symName: __ZN5Eigen13CwiseBinaryOpINS_8internal22scalar_conj_product_opIddEEKNS_6MatrixIdLin1ELi1ELi0ELin1ELi1EEES6_EC1ERS6_S8_RKS3_, symObjAddr: 0x225AC, symBinAddr: 0x10002A350, symSize: 0x44 }
  - { offsetInCU: 0x9EFAB, offset: 0xB299B, size: 0x8, addend: 0x0, symName: __ZN5Eigen13CwiseBinaryOpINS_8internal22scalar_conj_product_opIddEEKNS_6MatrixIdLin1ELi1ELi0ELin1ELi1EEES6_EC2ERS6_S8_RKS3_, symObjAddr: 0x225F0, symBinAddr: 0x10002A394, symSize: 0xF0 }
  - { offsetInCU: 0x9F004, offset: 0xB29F4, size: 0x8, addend: 0x0, symName: __ZN5Eigen17CwiseBinaryOpImplINS_8internal22scalar_conj_product_opIddEEKNS_6MatrixIdLin1ELi1ELi0ELin1ELi1EEES6_NS_5DenseEEC2Ev, symObjAddr: 0x226E0, symBinAddr: 0x10002A484, symSize: 0x2C }
  - { offsetInCU: 0x9F030, offset: 0xB2A20, size: 0x8, addend: 0x0, symName: __ZN5Eigen10MatrixBaseINS_13CwiseBinaryOpINS_8internal22scalar_conj_product_opIddEEKNS_6MatrixIdLin1ELi1ELi0ELin1ELi1EEES7_EEEC2Ev, symObjAddr: 0x2270C, symBinAddr: 0x10002A4B0, symSize: 0x2C }
  - { offsetInCU: 0x9F05A, offset: 0xB2A4A, size: 0x8, addend: 0x0, symName: __ZN5Eigen9DenseBaseINS_13CwiseBinaryOpINS_8internal22scalar_conj_product_opIddEEKNS_6MatrixIdLin1ELi1ELi0ELin1ELi1EEES7_EEEC2Ev, symObjAddr: 0x22738, symBinAddr: 0x10002A4DC, symSize: 0x14 }
  - { offsetInCU: 0x9F084, offset: 0xB2A74, size: 0x8, addend: 0x0, symName: __ZNK5Eigen9EigenBaseINS_13CwiseBinaryOpINS_8internal22scalar_conj_product_opIddEEKNS_6MatrixIdLin1ELi1ELi0ELin1ELi1EEES7_EEE4sizeEv, symObjAddr: 0x2274C, symBinAddr: 0x10002A4F0, symSize: 0x44 }
  - { offsetInCU: 0x9F0AA, offset: 0xB2A9A, size: 0x8, addend: 0x0, symName: __ZNK5Eigen9EigenBaseINS_13CwiseBinaryOpINS_8internal22scalar_conj_product_opIddEEKNS_6MatrixIdLin1ELi1ELi0ELin1ELi1EEES7_EEE7derivedEv, symObjAddr: 0x22790, symBinAddr: 0x10002A534, symSize: 0x14 }
  - { offsetInCU: 0x9F0D0, offset: 0xB2AC0, size: 0x8, addend: 0x0, symName: __ZNK5Eigen9DenseBaseINS_13CwiseBinaryOpINS_8internal22scalar_conj_product_opIddEEKNS_6MatrixIdLin1ELi1ELi0ELin1ELi1EEES7_EEE5reduxINS2_13scalar_sum_opIddEEEEdRKT_, symObjAddr: 0x227A4, symBinAddr: 0x10002A548, symSize: 0x10C }
  - { offsetInCU: 0x9F12C, offset: 0xB2B1C, size: 0x8, addend: 0x0, symName: __ZNK5Eigen9EigenBaseINS_13CwiseBinaryOpINS_8internal22scalar_conj_product_opIddEEKNS_6MatrixIdLin1ELi1ELi0ELin1ELi1EEES7_EEE4rowsEv, symObjAddr: 0x228B0, symBinAddr: 0x10002A654, symSize: 0x38 }
  - { offsetInCU: 0x9F152, offset: 0xB2B42, size: 0x8, addend: 0x0, symName: __ZNK5Eigen9EigenBaseINS_13CwiseBinaryOpINS_8internal22scalar_conj_product_opIddEEKNS_6MatrixIdLin1ELi1ELi0ELin1ELi1EEES7_EEE4colsEv, symObjAddr: 0x228E8, symBinAddr: 0x10002A68C, symSize: 0x38 }
  - { offsetInCU: 0x9F178, offset: 0xB2B68, size: 0x8, addend: 0x0, symName: __ZNK5Eigen13CwiseBinaryOpINS_8internal22scalar_conj_product_opIddEEKNS_6MatrixIdLin1ELi1ELi0ELin1ELi1EEES6_E4rowsEv, symObjAddr: 0x22920, symBinAddr: 0x10002A6C4, symSize: 0x28 }
  - { offsetInCU: 0x9F19E, offset: 0xB2B8E, size: 0x8, addend: 0x0, symName: __ZNK5Eigen13CwiseBinaryOpINS_8internal22scalar_conj_product_opIddEEKNS_6MatrixIdLin1ELi1ELi0ELin1ELi1EEES6_E4colsEv, symObjAddr: 0x22948, symBinAddr: 0x10002A6EC, symSize: 0x28 }
  - { offsetInCU: 0x9F228, offset: 0xB2C18, size: 0x8, addend: 0x0, symName: __ZN5Eigen8internal15redux_evaluatorINS_13CwiseBinaryOpINS0_22scalar_conj_product_opIddEEKNS_6MatrixIdLin1ELi1ELi0ELin1ELi1EEES7_EEEC1ERKS8_, symObjAddr: 0x22970, symBinAddr: 0x10002A714, symSize: 0x34 }
  - { offsetInCU: 0x9F265, offset: 0xB2C55, size: 0x8, addend: 0x0, symName: __ZN5Eigen8internal10redux_implINS0_13scalar_sum_opIddEENS0_15redux_evaluatorINS_13CwiseBinaryOpINS0_22scalar_conj_product_opIddEEKNS_6MatrixIdLin1ELi1ELi0ELin1ELi1EEESA_EEEELi3ELi0EE3runISB_EEdRKSC_RKS3_RKT_, symObjAddr: 0x229A4, symBinAddr: 0x10002A748, symSize: 0x348 }
  - { offsetInCU: 0x9F3E3, offset: 0xB2DD3, size: 0x8, addend: 0x0, symName: __ZN5Eigen8internal15redux_evaluatorINS_13CwiseBinaryOpINS0_22scalar_conj_product_opIddEEKNS_6MatrixIdLin1ELi1ELi0ELin1ELi1EEES7_EEED1Ev, symObjAddr: 0x22CEC, symBinAddr: 0x10002AA90, symSize: 0x2C }
  - { offsetInCU: 0x9F410, offset: 0xB2E00, size: 0x8, addend: 0x0, symName: __ZN5Eigen8internal15redux_evaluatorINS_13CwiseBinaryOpINS0_22scalar_conj_product_opIddEEKNS_6MatrixIdLin1ELi1ELi0ELin1ELi1EEES7_EEEC2ERKS8_, symObjAddr: 0x22D18, symBinAddr: 0x10002AABC, symSize: 0x34 }
  - { offsetInCU: 0x9F449, offset: 0xB2E39, size: 0x8, addend: 0x0, symName: __ZN5Eigen8internal9evaluatorINS_13CwiseBinaryOpINS0_22scalar_conj_product_opIddEEKNS_6MatrixIdLin1ELi1ELi0ELin1ELi1EEES7_EEEC2ERKS8_, symObjAddr: 0x22D4C, symBinAddr: 0x10002AAF0, symSize: 0x34 }
  - { offsetInCU: 0x9F482, offset: 0xB2E72, size: 0x8, addend: 0x0, symName: __ZN5Eigen8internal16binary_evaluatorINS_13CwiseBinaryOpINS0_22scalar_conj_product_opIddEEKNS_6MatrixIdLin1ELi1ELi0ELin1ELi1EEES7_EENS0_10IndexBasedES9_ddEC2ERKS8_, symObjAddr: 0x22D80, symBinAddr: 0x10002AB24, symSize: 0x64 }
  - { offsetInCU: 0x9F4BB, offset: 0xB2EAB, size: 0x8, addend: 0x0, symName: __ZN5Eigen8internal14evaluator_baseINS_13CwiseBinaryOpINS0_22scalar_conj_product_opIddEEKNS_6MatrixIdLin1ELi1ELi0ELin1ELi1EEES7_EEEC2Ev, symObjAddr: 0x22DE4, symBinAddr: 0x10002AB88, symSize: 0x14 }
  - { offsetInCU: 0x9F4E5, offset: 0xB2ED5, size: 0x8, addend: 0x0, symName: __ZN5Eigen8internal16binary_evaluatorINS_13CwiseBinaryOpINS0_22scalar_conj_product_opIddEEKNS_6MatrixIdLin1ELi1ELi0ELin1ELi1EEES7_EENS0_10IndexBasedES9_ddE4DataC1ERKS8_, symObjAddr: 0x22DF8, symBinAddr: 0x10002AB9C, symSize: 0x34 }
  - { offsetInCU: 0x9F51E, offset: 0xB2F0E, size: 0x8, addend: 0x0, symName: __ZN5Eigen8internal14evaluator_baseINS_13CwiseBinaryOpINS0_22scalar_conj_product_opIddEEKNS_6MatrixIdLin1ELi1ELi0ELin1ELi1EEES7_EEED2Ev, symObjAddr: 0x22E2C, symBinAddr: 0x10002ABD0, symSize: 0x14 }
  - { offsetInCU: 0x9F548, offset: 0xB2F38, size: 0x8, addend: 0x0, symName: __ZN5Eigen8internal16binary_evaluatorINS_13CwiseBinaryOpINS0_22scalar_conj_product_opIddEEKNS_6MatrixIdLin1ELi1ELi0ELin1ELi1EEES7_EENS0_10IndexBasedES9_ddE4DataC2ERKS8_, symObjAddr: 0x22E40, symBinAddr: 0x10002ABE4, symSize: 0xA8 }
  - { offsetInCU: 0x9F581, offset: 0xB2F71, size: 0x8, addend: 0x0, symName: __ZNK5Eigen13CwiseBinaryOpINS_8internal22scalar_conj_product_opIddEEKNS_6MatrixIdLin1ELi1ELi0ELin1ELi1EEES6_E7functorEv, symObjAddr: 0x22EE8, symBinAddr: 0x10002AC8C, symSize: 0x18 }
  - { offsetInCU: 0x9F5A7, offset: 0xB2F97, size: 0x8, addend: 0x0, symName: __ZNK5Eigen13CwiseBinaryOpINS_8internal22scalar_conj_product_opIddEEKNS_6MatrixIdLin1ELi1ELi0ELin1ELi1EEES6_E3lhsEv, symObjAddr: 0x22F00, symBinAddr: 0x10002ACA4, symSize: 0x18 }
  - { offsetInCU: 0x9F5CD, offset: 0xB2FBD, size: 0x8, addend: 0x0, symName: __ZN5Eigen8internal9evaluatorIKNS_6MatrixIdLin1ELi1ELi0ELin1ELi1EEEEC1ERS4_, symObjAddr: 0x22F18, symBinAddr: 0x10002ACBC, symSize: 0x34 }
  - { offsetInCU: 0x9F605, offset: 0xB2FF5, size: 0x8, addend: 0x0, symName: __ZNK5Eigen13CwiseBinaryOpINS_8internal22scalar_conj_product_opIddEEKNS_6MatrixIdLin1ELi1ELi0ELin1ELi1EEES6_E3rhsEv, symObjAddr: 0x22F4C, symBinAddr: 0x10002ACF0, symSize: 0x18 }
  - { offsetInCU: 0x9F62B, offset: 0xB301B, size: 0x8, addend: 0x0, symName: __ZN5Eigen8internal9evaluatorIKNS_6MatrixIdLin1ELi1ELi0ELin1ELi1EEEED1Ev, symObjAddr: 0x22F64, symBinAddr: 0x10002AD08, symSize: 0x2C }
  - { offsetInCU: 0x9F657, offset: 0xB3047, size: 0x8, addend: 0x0, symName: __ZN5Eigen8internal9evaluatorIKNS_6MatrixIdLin1ELi1ELi0ELin1ELi1EEEEC2ERS4_, symObjAddr: 0x22F90, symBinAddr: 0x10002AD34, symSize: 0x34 }
  - { offsetInCU: 0x9F68F, offset: 0xB307F, size: 0x8, addend: 0x0, symName: __ZN5Eigen8internal9evaluatorIKNS_6MatrixIdLin1ELi1ELi0ELin1ELi1EEEED2Ev, symObjAddr: 0x22FC4, symBinAddr: 0x10002AD68, symSize: 0x2C }
  - { offsetInCU: 0x9F6BB, offset: 0xB30AB, size: 0x8, addend: 0x0, symName: __ZNK5Eigen8internal16binary_evaluatorINS_13CwiseBinaryOpINS0_22scalar_conj_product_opIddEEKNS_6MatrixIdLin1ELi1ELi0ELin1ELi1EEES7_EENS0_10IndexBasedES9_ddE6packetILi16E19__simd128_float64_tEET0_l, symObjAddr: 0x23014, symBinAddr: 0x10002ADB8, symSize: 0x70 }
  - { offsetInCU: 0x9F703, offset: 0xB30F3, size: 0x8, addend: 0x0, symName: __ZNK5Eigen8internal16binary_evaluatorINS_13CwiseBinaryOpINS0_22scalar_conj_product_opIddEEKNS_6MatrixIdLin1ELi1ELi0ELin1ELi1EEES7_EENS0_10IndexBasedES9_ddE5coeffEl, symObjAddr: 0x23084, symBinAddr: 0x10002AE28, symSize: 0x64 }
  - { offsetInCU: 0x9F738, offset: 0xB3128, size: 0x8, addend: 0x0, symName: __ZN5Eigen8internal18first_aligned_implILi16ENS_13CwiseBinaryOpINS0_22scalar_conj_product_opIddEEKNS_6MatrixIdLin1ELi1ELi0ELin1ELi1EEES7_EELb1EE3runERKS8_, symObjAddr: 0x23110, symBinAddr: 0x10002AEB4, symSize: 0x14 }
  - { offsetInCU: 0x9F759, offset: 0xB3149, size: 0x8, addend: 0x0, symName: __ZNK5Eigen8internal16binary_evaluatorINS_13CwiseBinaryOpINS0_22scalar_conj_product_opIddEEKNS_6MatrixIdLin1ELi1ELi0ELin1ELi1EEES7_EENS0_10IndexBasedES9_ddE4Data4funcEv, symObjAddr: 0x23124, symBinAddr: 0x10002AEC8, symSize: 0x14 }
  - { offsetInCU: 0x9F77F, offset: 0xB316F, size: 0x8, addend: 0x0, symName: __ZNK5Eigen8internal9evaluatorINS_15PlainObjectBaseINS_6MatrixIdLin1ELi1ELi0ELin1ELi1EEEEEE6packetILi16E19__simd128_float64_tEET0_l, symObjAddr: 0x23138, symBinAddr: 0x10002AEDC, symSize: 0x3C }
  - { offsetInCU: 0x9F7E5, offset: 0xB31D5, size: 0x8, addend: 0x0, symName: __ZNK5Eigen8internal9evaluatorINS_15PlainObjectBaseINS_6MatrixIdLin1ELi1ELi0ELin1ELi1EEEEEE5coeffEl, symObjAddr: 0x23174, symBinAddr: 0x10002AF18, symSize: 0x24 }
  - { offsetInCU: 0x9F819, offset: 0xB3209, size: 0x8, addend: 0x0, symName: __ZN5Eigen8internal15redux_evaluatorINS_13CwiseBinaryOpINS0_22scalar_conj_product_opIddEEKNS_6MatrixIdLin1ELi1ELi0ELin1ELi1EEES7_EEED2Ev, symObjAddr: 0x23198, symBinAddr: 0x10002AF3C, symSize: 0x2C }
  - { offsetInCU: 0x9F846, offset: 0xB3236, size: 0x8, addend: 0x0, symName: __ZN5Eigen8internal9evaluatorINS_13CwiseBinaryOpINS0_22scalar_conj_product_opIddEEKNS_6MatrixIdLin1ELi1ELi0ELin1ELi1EEES7_EEED2Ev, symObjAddr: 0x231C4, symBinAddr: 0x10002AF68, symSize: 0x2C }
  - { offsetInCU: 0x9F873, offset: 0xB3263, size: 0x8, addend: 0x0, symName: __ZN5Eigen8internal16binary_evaluatorINS_13CwiseBinaryOpINS0_22scalar_conj_product_opIddEEKNS_6MatrixIdLin1ELi1ELi0ELin1ELi1EEES7_EENS0_10IndexBasedES9_ddED2Ev, symObjAddr: 0x231F0, symBinAddr: 0x10002AF94, symSize: 0x34 }
  - { offsetInCU: 0x9F89F, offset: 0xB328F, size: 0x8, addend: 0x0, symName: __ZN5Eigen8internal16binary_evaluatorINS_13CwiseBinaryOpINS0_22scalar_conj_product_opIddEEKNS_6MatrixIdLin1ELi1ELi0ELin1ELi1EEES7_EENS0_10IndexBasedES9_ddE4DataD1Ev, symObjAddr: 0x23224, symBinAddr: 0x10002AFC8, symSize: 0x2C }
  - { offsetInCU: 0x9F8CC, offset: 0xB32BC, size: 0x8, addend: 0x0, symName: __ZN5Eigen8internal16binary_evaluatorINS_13CwiseBinaryOpINS0_22scalar_conj_product_opIddEEKNS_6MatrixIdLin1ELi1ELi0ELin1ELi1EEES7_EENS0_10IndexBasedES9_ddE4DataD2Ev, symObjAddr: 0x23250, symBinAddr: 0x10002AFF4, symSize: 0x3C }
  - { offsetInCU: 0x9F8F9, offset: 0xB32E9, size: 0x8, addend: 0x0, symName: __ZN5Eigen9TransposeIKNS_6MatrixIdLin1ELi1ELi0ELin1ELi1EEEEC1ERS3_, symObjAddr: 0x2328C, symBinAddr: 0x10002B030, symSize: 0x34 }
  - { offsetInCU: 0x9F931, offset: 0xB3321, size: 0x8, addend: 0x0, symName: __ZN5Eigen9TransposeIKNS_6MatrixIdLin1ELi1ELi0ELin1ELi1EEEEC2ERS3_, symObjAddr: 0x232C0, symBinAddr: 0x10002B064, symSize: 0x38 }
  - { offsetInCU: 0x9F969, offset: 0xB3359, size: 0x8, addend: 0x0, symName: __ZN5Eigen13TransposeImplIKNS_6MatrixIdLin1ELi1ELi0ELin1ELi1EEENS_5DenseEEC2Ev, symObjAddr: 0x232F8, symBinAddr: 0x10002B09C, symSize: 0x2C }
  - { offsetInCU: 0x9F993, offset: 0xB3383, size: 0x8, addend: 0x0, symName: __ZN5Eigen10MatrixBaseINS_9TransposeIKNS_6MatrixIdLin1ELi1ELi0ELin1ELi1EEEEEEC2Ev, symObjAddr: 0x23324, symBinAddr: 0x10002B0C8, symSize: 0x2C }
  - { offsetInCU: 0x9F9BD, offset: 0xB33AD, size: 0x8, addend: 0x0, symName: __ZN5Eigen9DenseBaseINS_9TransposeIKNS_6MatrixIdLin1ELi1ELi0ELin1ELi1EEEEEEC2Ev, symObjAddr: 0x23350, symBinAddr: 0x10002B0F4, symSize: 0x14 }
  - { offsetInCU: 0x9F9E7, offset: 0xB33D7, size: 0x8, addend: 0x0, symName: __ZNK5Eigen9EigenBaseINS_9TransposeIKNS_6MatrixIdLin1ELi1ELi0ELin1ELi1EEEEEE7derivedEv, symObjAddr: 0x23364, symBinAddr: 0x10002B108, symSize: 0x14 }
  - { offsetInCU: 0x9FA0D, offset: 0xB33FD, size: 0x8, addend: 0x0, symName: __ZN5Eigen7ProductINS_9TransposeIKNS_6MatrixIdLin1ELi1ELi0ELin1ELi1EEEEENS2_IdLin1ELin1ELi0ELin1ELin1EEELi0EEC1ERKS5_RKS6_, symObjAddr: 0x23378, symBinAddr: 0x10002B11C, symSize: 0x3C }
  - { offsetInCU: 0x9FA53, offset: 0xB3443, size: 0x8, addend: 0x0, symName: __ZN5Eigen7ProductINS_9TransposeIKNS_6MatrixIdLin1ELi1ELi0ELin1ELi1EEEEENS2_IdLin1ELin1ELi0ELin1ELin1EEELi0EEC2ERKS5_RKS6_, symObjAddr: 0x233B4, symBinAddr: 0x10002B158, symSize: 0xC4 }
  - { offsetInCU: 0x9FA9E, offset: 0xB348E, size: 0x8, addend: 0x0, symName: __ZN5Eigen11ProductImplINS_9TransposeIKNS_6MatrixIdLin1ELi1ELi0ELin1ELi1EEEEENS2_IdLin1ELin1ELi0ELin1ELin1EEELi0ENS_5DenseEEC2Ev, symObjAddr: 0x23478, symBinAddr: 0x10002B21C, symSize: 0x2C }
  - { offsetInCU: 0x9FACA, offset: 0xB34BA, size: 0x8, addend: 0x0, symName: __ZNK5Eigen9TransposeIKNS_6MatrixIdLin1ELi1ELi0ELin1ELi1EEEE4colsEv, symObjAddr: 0x234A4, symBinAddr: 0x10002B248, symSize: 0x28 }
  - { offsetInCU: 0x9FAF5, offset: 0xB34E5, size: 0x8, addend: 0x0, symName: __ZN5Eigen8internal18dense_product_baseINS_9TransposeIKNS_6MatrixIdLin1ELi1ELi0ELin1ELi1EEEEENS3_IdLin1ELin1ELi0ELin1ELin1EEELi0ELi7EEC2Ev, symObjAddr: 0x234CC, symBinAddr: 0x10002B270, symSize: 0x2C }
  - { offsetInCU: 0x9FB21, offset: 0xB3511, size: 0x8, addend: 0x0, symName: __ZN5Eigen10MatrixBaseINS_7ProductINS_9TransposeIKNS_6MatrixIdLin1ELi1ELi0ELin1ELi1EEEEENS3_IdLin1ELin1ELi0ELin1ELin1EEELi0EEEEC2Ev, symObjAddr: 0x234F8, symBinAddr: 0x10002B29C, symSize: 0x2C }
  - { offsetInCU: 0x9FB4B, offset: 0xB353B, size: 0x8, addend: 0x0, symName: __ZN5Eigen9DenseBaseINS_7ProductINS_9TransposeIKNS_6MatrixIdLin1ELi1ELi0ELin1ELi1EEEEENS3_IdLin1ELin1ELi0ELin1ELin1EEELi0EEEEC2Ev, symObjAddr: 0x23524, symBinAddr: 0x10002B2C8, symSize: 0x14 }
  - { offsetInCU: 0x9FB75, offset: 0xB3565, size: 0x8, addend: 0x0, symName: __ZNK5Eigen9EigenBaseINS_7ProductINS_9TransposeIKNS_6MatrixIdLin1ELi1ELi0ELin1ELi1EEEEENS3_IdLin1ELin1ELi0ELin1ELin1EEELi0EEEE7derivedEv, symObjAddr: 0x23538, symBinAddr: 0x10002B2DC, symSize: 0x14 }
  - { offsetInCU: 0x9FB9B, offset: 0xB358B, size: 0x8, addend: 0x0, symName: __ZN5Eigen7ProductINS0_INS_9TransposeIKNS_6MatrixIdLin1ELi1ELi0ELin1ELi1EEEEENS2_IdLin1ELin1ELi0ELin1ELin1EEELi0EEES3_Li0EEC1ERKS7_RS4_, symObjAddr: 0x2354C, symBinAddr: 0x10002B2F0, symSize: 0x3C }
  - { offsetInCU: 0x9FBE1, offset: 0xB35D1, size: 0x8, addend: 0x0, symName: __ZN5Eigen7ProductINS0_INS_9TransposeIKNS_6MatrixIdLin1ELi1ELi0ELin1ELi1EEEEENS2_IdLin1ELin1ELi0ELin1ELin1EEELi0EEES3_Li0EEC2ERKS7_RS4_, symObjAddr: 0x23588, symBinAddr: 0x10002B32C, symSize: 0xC4 }
  - { offsetInCU: 0x9FC2C, offset: 0xB361C, size: 0x8, addend: 0x0, symName: __ZN5Eigen11ProductImplINS_7ProductINS_9TransposeIKNS_6MatrixIdLin1ELi1ELi0ELin1ELi1EEEEENS3_IdLin1ELin1ELi0ELin1ELin1EEELi0EEES4_Li0ENS_5DenseEEC2Ev, symObjAddr: 0x2364C, symBinAddr: 0x10002B3F0, symSize: 0x2C }
  - { offsetInCU: 0x9FC58, offset: 0xB3648, size: 0x8, addend: 0x0, symName: __ZNK5Eigen7ProductINS_9TransposeIKNS_6MatrixIdLin1ELi1ELi0ELin1ELi1EEEEENS2_IdLin1ELin1ELi0ELin1ELin1EEELi0EE4colsEv, symObjAddr: 0x23678, symBinAddr: 0x10002B41C, symSize: 0x28 }
  - { offsetInCU: 0x9FC83, offset: 0xB3673, size: 0x8, addend: 0x0, symName: __ZN5Eigen8internal18dense_product_baseINS_7ProductINS_9TransposeIKNS_6MatrixIdLin1ELi1ELi0ELin1ELi1EEEEENS4_IdLin1ELin1ELi0ELin1ELin1EEELi0EEES5_Li0ELi6EEC2Ev, symObjAddr: 0x236A0, symBinAddr: 0x10002B444, symSize: 0x2C }
  - { offsetInCU: 0x9FCAF, offset: 0xB369F, size: 0x8, addend: 0x0, symName: __ZN5Eigen10MatrixBaseINS_7ProductINS1_INS_9TransposeIKNS_6MatrixIdLin1ELi1ELi0ELin1ELi1EEEEENS3_IdLin1ELin1ELi0ELin1ELin1EEELi0EEES4_Li0EEEEC2Ev, symObjAddr: 0x236CC, symBinAddr: 0x10002B470, symSize: 0x2C }
  - { offsetInCU: 0x9FCD9, offset: 0xB36C9, size: 0x8, addend: 0x0, symName: __ZN5Eigen9DenseBaseINS_7ProductINS1_INS_9TransposeIKNS_6MatrixIdLin1ELi1ELi0ELin1ELi1EEEEENS3_IdLin1ELin1ELi0ELin1ELin1EEELi0EEES4_Li0EEEEC2Ev, symObjAddr: 0x236F8, symBinAddr: 0x10002B49C, symSize: 0x14 }
  - { offsetInCU: 0x9FD03, offset: 0xB36F3, size: 0x8, addend: 0x0, symName: __ZNK5Eigen9EigenBaseINS_7ProductINS1_INS_9TransposeIKNS_6MatrixIdLin1ELi1ELi0ELin1ELi1EEEEENS3_IdLin1ELin1ELi0ELin1ELin1EEELi0EEES4_Li0EEEE7derivedEv, symObjAddr: 0x2370C, symBinAddr: 0x10002B4B0, symSize: 0x14 }
  - { offsetInCU: 0x9FD29, offset: 0xB3719, size: 0x8, addend: 0x0, symName: __ZN5Eigen8internal9evaluatorINS_7ProductINS2_INS_9TransposeIKNS_6MatrixIdLin1ELi1ELi0ELin1ELi1EEEEENS4_IdLin1ELin1ELi0ELin1ELin1EEELi0EEES5_Li0EEEEC1ERKSA_, symObjAddr: 0x23720, symBinAddr: 0x10002B4C4, symSize: 0x34 }
  - { offsetInCU: 0x9FD61, offset: 0xB3751, size: 0x8, addend: 0x0, symName: __ZNK5Eigen8internal9evaluatorINS_15PlainObjectBaseINS_6MatrixIdLi1ELi1ELi0ELi1ELi1EEEEEE5coeffEll, symObjAddr: 0x23754, symBinAddr: 0x10002B4F8, symSize: 0x5C }
  - { offsetInCU: 0x9FDA3, offset: 0xB3793, size: 0x8, addend: 0x0, symName: __ZN5Eigen8internal9evaluatorINS_7ProductINS2_INS_9TransposeIKNS_6MatrixIdLin1ELi1ELi0ELin1ELi1EEEEENS4_IdLin1ELin1ELi0ELin1ELin1EEELi0EEES5_Li0EEEED1Ev, symObjAddr: 0x237B0, symBinAddr: 0x10002B554, symSize: 0x2C }
  - { offsetInCU: 0x9FDCF, offset: 0xB37BF, size: 0x8, addend: 0x0, symName: __ZN5Eigen8internal9evaluatorINS_7ProductINS2_INS_9TransposeIKNS_6MatrixIdLin1ELi1ELi0ELin1ELi1EEEEENS4_IdLin1ELin1ELi0ELin1ELin1EEELi0EEES5_Li0EEEEC2ERKSA_, symObjAddr: 0x237DC, symBinAddr: 0x10002B580, symSize: 0x34 }
  - { offsetInCU: 0x9FE07, offset: 0xB37F7, size: 0x8, addend: 0x0, symName: __ZN5Eigen8internal17product_evaluatorINS_7ProductINS2_INS_9TransposeIKNS_6MatrixIdLin1ELi1ELi0ELin1ELi1EEEEENS4_IdLin1ELin1ELi0ELin1ELin1EEELi0EEES5_Li0EEELi6ENS_10DenseShapeESB_ddEC2ERKSA_, symObjAddr: 0x23810, symBinAddr: 0x10002B5B4, symSize: 0xE0 }
  - { offsetInCU: 0x9FE3F, offset: 0xB382F, size: 0x8, addend: 0x0, symName: __ZN5Eigen8internal9evaluatorINS_6MatrixIdLi1ELi1ELi0ELi1ELi1EEEEC2Ev, symObjAddr: 0x238F0, symBinAddr: 0x10002B694, symSize: 0x2C }
  - { offsetInCU: 0x9FE69, offset: 0xB3859, size: 0x8, addend: 0x0, symName: __ZNK5Eigen7ProductINS0_INS_9TransposeIKNS_6MatrixIdLin1ELi1ELi0ELin1ELi1EEEEENS2_IdLin1ELin1ELi0ELin1ELin1EEELi0EEES3_Li0EE4rowsEv, symObjAddr: 0x2391C, symBinAddr: 0x10002B6C0, symSize: 0x24 }
  - { offsetInCU: 0x9FE8F, offset: 0xB387F, size: 0x8, addend: 0x0, symName: __ZNK5Eigen7ProductINS0_INS_9TransposeIKNS_6MatrixIdLin1ELi1ELi0ELin1ELi1EEEEENS2_IdLin1ELin1ELi0ELin1ELin1EEELi0EEES3_Li0EE4colsEv, symObjAddr: 0x23940, symBinAddr: 0x10002B6E4, symSize: 0x28 }
  - { offsetInCU: 0x9FEB5, offset: 0xB38A5, size: 0x8, addend: 0x0, symName: __ZN5Eigen6MatrixIdLi1ELi1ELi0ELi1ELi1EEC1IllEERKT_RKT0_, symObjAddr: 0x23968, symBinAddr: 0x10002B70C, symSize: 0x3C }
  - { offsetInCU: 0x9FF0F, offset: 0xB38FF, size: 0x8, addend: 0x0, symName: __ZN5Eigen8internal9evaluatorINS_6MatrixIdLi1ELi1ELi0ELi1ELi1EEEEC1ERKS3_, symObjAddr: 0x239A4, symBinAddr: 0x10002B748, symSize: 0x34 }
  - { offsetInCU: 0x9FF47, offset: 0xB3937, size: 0x8, addend: 0x0, symName: __ZN5Eigen8internal20generic_product_implINS_7ProductINS_9TransposeIKNS_6MatrixIdLin1ELi1ELi0ELin1ELi1EEEEENS4_IdLin1ELin1ELi0ELin1ELin1EEELi0EEES5_NS_10DenseShapeESA_Li6EE6evalToINS4_IdLi1ELi1ELi0ELi1ELi1EEEEEvRT_RKS9_RS6_, symObjAddr: 0x239D8, symBinAddr: 0x10002B77C, symSize: 0x70 }
  - { offsetInCU: 0x9FF90, offset: 0xB3980, size: 0x8, addend: 0x0, symName: __ZNK5Eigen7ProductINS0_INS_9TransposeIKNS_6MatrixIdLin1ELi1ELi0ELin1ELi1EEEEENS2_IdLin1ELin1ELi0ELin1ELin1EEELi0EEES3_Li0EE3lhsEv, symObjAddr: 0x23A48, symBinAddr: 0x10002B7EC, symSize: 0x14 }
  - { offsetInCU: 0x9FFB6, offset: 0xB39A6, size: 0x8, addend: 0x0, symName: __ZNK5Eigen7ProductINS0_INS_9TransposeIKNS_6MatrixIdLin1ELi1ELi0ELin1ELi1EEEEENS2_IdLin1ELin1ELi0ELin1ELin1EEELi0EEES3_Li0EE3rhsEv, symObjAddr: 0x23A5C, symBinAddr: 0x10002B800, symSize: 0x18 }
  - { offsetInCU: 0x9FFDC, offset: 0xB39CC, size: 0x8, addend: 0x0, symName: __ZN5Eigen8internal9evaluatorINS_6MatrixIdLi1ELi1ELi0ELi1ELi1EEEED2Ev, symObjAddr: 0x23A74, symBinAddr: 0x10002B818, symSize: 0x2C }
  - { offsetInCU: 0xA0009, offset: 0xB39F9, size: 0x8, addend: 0x0, symName: __ZN5Eigen8internal9evaluatorINS_15PlainObjectBaseINS_6MatrixIdLi1ELi1ELi0ELi1ELi1EEEEEEC2Ev, symObjAddr: 0x23AA0, symBinAddr: 0x10002B844, symSize: 0x64 }
  - { offsetInCU: 0xA0033, offset: 0xB3A23, size: 0x8, addend: 0x0, symName: __ZN5Eigen8internal14evaluator_baseINS_6MatrixIdLi1ELi1ELi0ELi1ELi1EEEEC2Ev, symObjAddr: 0x23B04, symBinAddr: 0x10002B8A8, symSize: 0x14 }
  - { offsetInCU: 0xA005D, offset: 0xB3A4D, size: 0x8, addend: 0x0, symName: __ZN5Eigen8internal14evaluator_baseINS_6MatrixIdLi1ELi1ELi0ELi1ELi1EEEED2Ev, symObjAddr: 0x23B18, symBinAddr: 0x10002B8BC, symSize: 0x14 }
  - { offsetInCU: 0xA0087, offset: 0xB3A77, size: 0x8, addend: 0x0, symName: __ZNK5Eigen7ProductINS_9TransposeIKNS_6MatrixIdLin1ELi1ELi0ELin1ELi1EEEEENS2_IdLin1ELin1ELi0ELin1ELin1EEELi0EE4rowsEv, symObjAddr: 0x23B2C, symBinAddr: 0x10002B8D0, symSize: 0x24 }
  - { offsetInCU: 0xA00AD, offset: 0xB3A9D, size: 0x8, addend: 0x0, symName: __ZNK5Eigen9TransposeIKNS_6MatrixIdLin1ELi1ELi0ELin1ELi1EEEE4rowsEv, symObjAddr: 0x23B50, symBinAddr: 0x10002B8F4, symSize: 0x28 }
  - { offsetInCU: 0xA00D3, offset: 0xB3AC3, size: 0x8, addend: 0x0, symName: __ZN5Eigen6MatrixIdLi1ELi1ELi0ELi1ELi1EEC2IllEERKT_RKT0_, symObjAddr: 0x23B78, symBinAddr: 0x10002B91C, symSize: 0x54 }
  - { offsetInCU: 0xA012D, offset: 0xB3B1D, size: 0x8, addend: 0x0, symName: __ZN5Eigen15PlainObjectBaseINS_6MatrixIdLi1ELi1ELi0ELi1ELi1EEEEC2Ev, symObjAddr: 0x23BCC, symBinAddr: 0x10002B970, symSize: 0x34 }
  - { offsetInCU: 0xA0157, offset: 0xB3B47, size: 0x8, addend: 0x0, symName: __ZN5Eigen15PlainObjectBaseINS_6MatrixIdLi1ELi1ELi0ELi1ELi1EEEE22_check_template_paramsEv, symObjAddr: 0x23C00, symBinAddr: 0x10002B9A4, symSize: 0x4 }
  - { offsetInCU: 0xA016B, offset: 0xB3B5B, size: 0x8, addend: 0x0, symName: __ZN5Eigen15PlainObjectBaseINS_6MatrixIdLi1ELi1ELi0ELi1ELi1EEEE6_init2IllEEvllPNS_8internal9enable_ifILb1ET_E4typeE, symObjAddr: 0x23C04, symBinAddr: 0x10002B9A8, symSize: 0x44 }
  - { offsetInCU: 0xA01EB, offset: 0xB3BDB, size: 0x8, addend: 0x0, symName: __ZN5Eigen10MatrixBaseINS_6MatrixIdLi1ELi1ELi0ELi1ELi1EEEEC2Ev, symObjAddr: 0x23C48, symBinAddr: 0x10002B9EC, symSize: 0x2C }
  - { offsetInCU: 0xA0215, offset: 0xB3C05, size: 0x8, addend: 0x0, symName: __ZN5Eigen12DenseStorageIdLi1ELi1ELi1ELi0EEC1Ev, symObjAddr: 0x23C74, symBinAddr: 0x10002BA18, symSize: 0x2C }
  - { offsetInCU: 0xA023F, offset: 0xB3C2F, size: 0x8, addend: 0x0, symName: __ZN5Eigen9DenseBaseINS_6MatrixIdLi1ELi1ELi0ELi1ELi1EEEEC2Ev, symObjAddr: 0x23CA0, symBinAddr: 0x10002BA44, symSize: 0x14 }
  - { offsetInCU: 0xA0269, offset: 0xB3C59, size: 0x8, addend: 0x0, symName: __ZN5Eigen12DenseStorageIdLi1ELi1ELi1ELi0EEC2Ev, symObjAddr: 0x23CB4, symBinAddr: 0x10002BA58, symSize: 0x2C }
  - { offsetInCU: 0xA0293, offset: 0xB3C83, size: 0x8, addend: 0x0, symName: __ZN5Eigen8internal11plain_arrayIdLi1ELi0ELi0EEC1Ev, symObjAddr: 0x23CE0, symBinAddr: 0x10002BA84, symSize: 0x2C }
  - { offsetInCU: 0xA02BD, offset: 0xB3CAD, size: 0x8, addend: 0x0, symName: __ZN5Eigen8internal11plain_arrayIdLi1ELi0ELi0EEC2Ev, symObjAddr: 0x23D0C, symBinAddr: 0x10002BAB0, symSize: 0x2C }
  - { offsetInCU: 0xA02E7, offset: 0xB3CD7, size: 0x8, addend: 0x0, symName: __ZN5Eigen15PlainObjectBaseINS_6MatrixIdLi1ELi1ELi0ELi1ELi1EEEE6resizeEll, symObjAddr: 0x23D3C, symBinAddr: 0x10002BAE0, symSize: 0x104 }
  - { offsetInCU: 0xA032B, offset: 0xB3D1B, size: 0x8, addend: 0x0, symName: __ZN5Eigen12DenseStorageIdLi1ELi1ELi1ELi0EE6resizeElll, symObjAddr: 0x23E40, symBinAddr: 0x10002BBE4, symSize: 0x1C }
  - { offsetInCU: 0xA0375, offset: 0xB3D65, size: 0x8, addend: 0x0, symName: __ZN5Eigen8internal9evaluatorINS_6MatrixIdLi1ELi1ELi0ELi1ELi1EEEEC2ERKS3_, symObjAddr: 0x23E5C, symBinAddr: 0x10002BC00, symSize: 0x34 }
  - { offsetInCU: 0xA03AE, offset: 0xB3D9E, size: 0x8, addend: 0x0, symName: __ZN5Eigen8internal9evaluatorINS_15PlainObjectBaseINS_6MatrixIdLi1ELi1ELi0ELi1ELi1EEEEEEC2ERKS5_, symObjAddr: 0x23E90, symBinAddr: 0x10002BC34, symSize: 0x78 }
  - { offsetInCU: 0xA03E6, offset: 0xB3DD6, size: 0x8, addend: 0x0, symName: __ZNK5Eigen15PlainObjectBaseINS_6MatrixIdLi1ELi1ELi0ELi1ELi1EEEE4dataEv, symObjAddr: 0x23F08, symBinAddr: 0x10002BCAC, symSize: 0x24 }
  - { offsetInCU: 0xA040C, offset: 0xB3DFC, size: 0x8, addend: 0x0, symName: __ZNK5Eigen12DenseStorageIdLi1ELi1ELi1ELi0EE4dataEv, symObjAddr: 0x23F2C, symBinAddr: 0x10002BCD0, symSize: 0x14 }
  - { offsetInCU: 0xA0432, offset: 0xB3E22, size: 0x8, addend: 0x0, symName: __ZNK5Eigen9DenseBaseINS_7ProductINS_9TransposeIKNS_6MatrixIdLin1ELi1ELi0ELin1ELi1EEEEENS3_IdLin1ELin1ELi0ELin1ELin1EEELi0EEEE9transposeEv, symObjAddr: 0x23F40, symBinAddr: 0x10002BCE4, symSize: 0x38 }
  - { offsetInCU: 0xA045A, offset: 0xB3E4A, size: 0x8, addend: 0x0, symName: __ZNK5Eigen10MatrixBaseINS_9TransposeIKNS_7ProductINS1_IKNS_6MatrixIdLin1ELi1ELi0ELin1ELi1EEEEENS3_IdLin1ELin1ELi0ELin1ELin1EEELi0EEEEEE12cwiseProductIS4_EEKNS_13CwiseBinaryOpINS_8internal17scalar_product_opIdNSE_6traitsIT_E6ScalarEEEKSA_KSH_EERKNS0_ISH_EE, symObjAddr: 0x23F78, symBinAddr: 0x10002BD1C, symSize: 0x60 }
  - { offsetInCU: 0xA0497, offset: 0xB3E87, size: 0x8, addend: 0x0, symName: __ZNK5Eigen9DenseBaseINS_13CwiseBinaryOpINS_8internal17scalar_product_opIddEEKNS_9TransposeIKNS_7ProductINS5_IKNS_6MatrixIdLin1ELi1ELi0ELin1ELi1EEEEENS7_IdLin1ELin1ELi0ELin1ELin1EEELi0EEEEES9_EEE3sumEv, symObjAddr: 0x23FD8, symBinAddr: 0x10002BD7C, symSize: 0x74 }
  - { offsetInCU: 0xA04C0, offset: 0xB3EB0, size: 0x8, addend: 0x0, symName: __ZN5Eigen15PlainObjectBaseINS_6MatrixIdLi1ELi1ELi0ELi1ELi1EEEE8coeffRefEll, symObjAddr: 0x2404C, symBinAddr: 0x10002BDF0, symSize: 0x60 }
  - { offsetInCU: 0xA0502, offset: 0xB3EF2, size: 0x8, addend: 0x0, symName: __ZN5Eigen9TransposeIKNS_7ProductINS0_IKNS_6MatrixIdLin1ELi1ELi0ELin1ELi1EEEEENS2_IdLin1ELin1ELi0ELin1ELin1EEELi0EEEEC1ERS8_, symObjAddr: 0x240AC, symBinAddr: 0x10002BE50, symSize: 0x34 }
  - { offsetInCU: 0xA053A, offset: 0xB3F2A, size: 0x8, addend: 0x0, symName: __ZN5Eigen9TransposeIKNS_7ProductINS0_IKNS_6MatrixIdLin1ELi1ELi0ELin1ELi1EEEEENS2_IdLin1ELin1ELi0ELin1ELin1EEELi0EEEEC2ERS8_, symObjAddr: 0x240E0, symBinAddr: 0x10002BE84, symSize: 0x3C }
  - { offsetInCU: 0xA0572, offset: 0xB3F62, size: 0x8, addend: 0x0, symName: __ZN5Eigen13TransposeImplIKNS_7ProductINS_9TransposeIKNS_6MatrixIdLin1ELi1ELi0ELin1ELi1EEEEENS3_IdLin1ELin1ELi0ELin1ELin1EEELi0EEENS_5DenseEEC2Ev, symObjAddr: 0x2411C, symBinAddr: 0x10002BEC0, symSize: 0x2C }
  - { offsetInCU: 0xA059C, offset: 0xB3F8C, size: 0x8, addend: 0x0, symName: __ZN5Eigen10MatrixBaseINS_9TransposeIKNS_7ProductINS1_IKNS_6MatrixIdLin1ELi1ELi0ELin1ELi1EEEEENS3_IdLin1ELin1ELi0ELin1ELin1EEELi0EEEEEEC2Ev, symObjAddr: 0x24148, symBinAddr: 0x10002BEEC, symSize: 0x2C }
  - { offsetInCU: 0xA05C6, offset: 0xB3FB6, size: 0x8, addend: 0x0, symName: __ZN5Eigen9DenseBaseINS_9TransposeIKNS_7ProductINS1_IKNS_6MatrixIdLin1ELi1ELi0ELin1ELi1EEEEENS3_IdLin1ELin1ELi0ELin1ELin1EEELi0EEEEEEC2Ev, symObjAddr: 0x24174, symBinAddr: 0x10002BF18, symSize: 0x14 }
  - { offsetInCU: 0xA05F0, offset: 0xB3FE0, size: 0x8, addend: 0x0, symName: __ZNK5Eigen9EigenBaseINS_9TransposeIKNS_7ProductINS1_IKNS_6MatrixIdLin1ELi1ELi0ELin1ELi1EEEEENS3_IdLin1ELin1ELi0ELin1ELin1EEELi0EEEEEE7derivedEv, symObjAddr: 0x24188, symBinAddr: 0x10002BF2C, symSize: 0x14 }
  - { offsetInCU: 0xA0616, offset: 0xB4006, size: 0x8, addend: 0x0, symName: __ZN5Eigen13CwiseBinaryOpINS_8internal17scalar_product_opIddEEKNS_9TransposeIKNS_7ProductINS4_IKNS_6MatrixIdLin1ELi1ELi0ELin1ELi1EEEEENS6_IdLin1ELin1ELi0ELin1ELin1EEELi0EEEEES8_EC1ERSE_RS8_RKS3_, symObjAddr: 0x2419C, symBinAddr: 0x10002BF40, symSize: 0x44 }
  - { offsetInCU: 0xA066A, offset: 0xB405A, size: 0x8, addend: 0x0, symName: __ZN5Eigen13CwiseBinaryOpINS_8internal17scalar_product_opIddEEKNS_9TransposeIKNS_7ProductINS4_IKNS_6MatrixIdLin1ELi1ELi0ELin1ELi1EEEEENS6_IdLin1ELin1ELi0ELin1ELin1EEELi0EEEEES8_EC2ERSE_RS8_RKS3_, symObjAddr: 0x241E0, symBinAddr: 0x10002BF84, symSize: 0xF4 }
  - { offsetInCU: 0xA06C3, offset: 0xB40B3, size: 0x8, addend: 0x0, symName: __ZN5Eigen17CwiseBinaryOpImplINS_8internal17scalar_product_opIddEEKNS_9TransposeIKNS_7ProductINS4_IKNS_6MatrixIdLin1ELi1ELi0ELin1ELi1EEEEENS6_IdLin1ELin1ELi0ELin1ELin1EEELi0EEEEES8_NS_5DenseEEC2Ev, symObjAddr: 0x242D4, symBinAddr: 0x10002C078, symSize: 0x2C }
  - { offsetInCU: 0xA06EF, offset: 0xB40DF, size: 0x8, addend: 0x0, symName: __ZNK5Eigen9TransposeIKNS_7ProductINS0_IKNS_6MatrixIdLin1ELi1ELi0ELin1ELi1EEEEENS2_IdLin1ELin1ELi0ELin1ELin1EEELi0EEEE4rowsEv, symObjAddr: 0x24300, symBinAddr: 0x10002C0A4, symSize: 0x24 }
  - { offsetInCU: 0xA0715, offset: 0xB4105, size: 0x8, addend: 0x0, symName: __ZNK5Eigen9TransposeIKNS_7ProductINS0_IKNS_6MatrixIdLin1ELi1ELi0ELin1ELi1EEEEENS2_IdLin1ELin1ELi0ELin1ELin1EEELi0EEEE4colsEv, symObjAddr: 0x24324, symBinAddr: 0x10002C0C8, symSize: 0x24 }
  - { offsetInCU: 0xA073B, offset: 0xB412B, size: 0x8, addend: 0x0, symName: __ZN5Eigen10MatrixBaseINS_13CwiseBinaryOpINS_8internal17scalar_product_opIddEEKNS_9TransposeIKNS_7ProductINS5_IKNS_6MatrixIdLin1ELi1ELi0ELin1ELi1EEEEENS7_IdLin1ELin1ELi0ELin1ELin1EEELi0EEEEES9_EEEC2Ev, symObjAddr: 0x24348, symBinAddr: 0x10002C0EC, symSize: 0x2C }
  - { offsetInCU: 0xA0765, offset: 0xB4155, size: 0x8, addend: 0x0, symName: __ZN5Eigen9DenseBaseINS_13CwiseBinaryOpINS_8internal17scalar_product_opIddEEKNS_9TransposeIKNS_7ProductINS5_IKNS_6MatrixIdLin1ELi1ELi0ELin1ELi1EEEEENS7_IdLin1ELin1ELi0ELin1ELin1EEELi0EEEEES9_EEEC2Ev, symObjAddr: 0x24374, symBinAddr: 0x10002C118, symSize: 0x14 }
